
libsimdjson.so:     file format elf64-x86-64


Disassembly of section .init:

0000000000004000 <_init>:
    4000:	48 83 ec 08          	sub    $0x8,%rsp
    4004:	48 8b 05 cd 5f 02 00 	mov    0x25fcd(%rip),%rax        # 29fd8 <__gmon_start__>
    400b:	48 85 c0             	test   %rax,%rax
    400e:	74 05                	je     4015 <_init+0x15>
    4010:	e8 c3 02 00 00       	callq  42d8 <__gmon_start__@plt>
    4015:	48 83 c4 08          	add    $0x8,%rsp
    4019:	c3                   	retq   

Disassembly of section .plt:

0000000000004020 <.plt>:
    4020:	ff 35 e2 5f 02 00    	pushq  0x25fe2(%rip)        # 2a008 <_GLOBAL_OFFSET_TABLE_+0x8>
    4026:	ff 25 e4 5f 02 00    	jmpq   *0x25fe4(%rip)        # 2a010 <_GLOBAL_OFFSET_TABLE_+0x10>
    402c:	0f 1f 40 00          	nopl   0x0(%rax)

0000000000004030 <_ZNK8simdjson8westmere14implementation6stage2EPKhmRNS_3dom6parserE@plt>:
    4030:	ff 25 e2 5f 02 00    	jmpq   *0x25fe2(%rip)        # 2a018 <_ZNK8simdjson8westmere14implementation6stage2EPKhmRNS_3dom6parserE@@Base+0x17608>
    4036:	68 00 00 00 00       	pushq  $0x0
    403b:	e9 e0 ff ff ff       	jmpq   4020 <.plt>

0000000000004040 <_ZN8simdjson8fallback13numberparsing19parse_large_integerINS0_6stage213number_writerEEEbPKhT_b@plt>:
    4040:	ff 25 da 5f 02 00    	jmpq   *0x25fda(%rip)        # 2a020 <_ZN8simdjson8fallback13numberparsing19parse_large_integerINS0_6stage213number_writerEEEbPKhT_b@@Base+0xbf80>
    4046:	68 01 00 00 00       	pushq  $0x1
    404b:	e9 d0 ff ff ff       	jmpq   4020 <.plt>

0000000000004050 <_ZSt9terminatev@plt>:
    4050:	ff 25 d2 5f 02 00    	jmpq   *0x25fd2(%rip)        # 2a028 <_ZSt9terminatev@GLIBCXX_3.4>
    4056:	68 02 00 00 00       	pushq  $0x2
    405b:	e9 c0 ff ff ff       	jmpq   4020 <.plt>

0000000000004060 <_ZN8simdjson8fallback13numberparsing18slow_float_parsingINS0_6stage213number_writerEEEbPKcT_@plt>:
    4060:	ff 25 ca 5f 02 00    	jmpq   *0x25fca(%rip)        # 2a030 <_ZN8simdjson8fallback13numberparsing18slow_float_parsingINS0_6stage213number_writerEEEbPKcT_@@Base+0xc010>
    4066:	68 03 00 00 00       	pushq  $0x3
    406b:	e9 b0 ff ff ff       	jmpq   4020 <.plt>

0000000000004070 <_ZNK8simdjson8internal29available_implementation_list21detect_best_supportedEv@plt>:
    4070:	ff 25 c2 5f 02 00    	jmpq   *0x25fc2(%rip)        # 2a038 <_ZNK8simdjson8internal29available_implementation_list21detect_best_supportedEv@@Base+0x24f08>
    4076:	68 04 00 00 00       	pushq  $0x4
    407b:	e9 a0 ff ff ff       	jmpq   4020 <.plt>

0000000000004080 <strlen@plt>:
    4080:	ff 25 ba 5f 02 00    	jmpq   *0x25fba(%rip)        # 2a040 <strlen@GLIBC_2.2.5>
    4086:	68 05 00 00 00       	pushq  $0x5
    408b:	e9 90 ff ff ff       	jmpq   4020 <.plt>

0000000000004090 <memcmp@plt>:
    4090:	ff 25 b2 5f 02 00    	jmpq   *0x25fb2(%rip)        # 2a048 <memcmp@GLIBC_2.2.5>
    4096:	68 06 00 00 00       	pushq  $0x6
    409b:	e9 80 ff ff ff       	jmpq   4020 <.plt>

00000000000040a0 <_ZN8simdjson8westmere13numberparsing18slow_float_parsingINS0_6stage213number_writerEEEbPKcT_@plt>:
    40a0:	ff 25 aa 5f 02 00    	jmpq   *0x25faa(%rip)        # 2a050 <_ZN8simdjson8westmere13numberparsing18slow_float_parsingINS0_6stage213number_writerEEEbPKcT_@@Base+0xbbe0>
    40a6:	68 07 00 00 00       	pushq  $0x7
    40ab:	e9 70 ff ff ff       	jmpq   4020 <.plt>

00000000000040b0 <_ZSt20__throw_length_errorPKc@plt>:
    40b0:	ff 25 a2 5f 02 00    	jmpq   *0x25fa2(%rip)        # 2a058 <_ZSt20__throw_length_errorPKc@GLIBCXX_3.4>
    40b6:	68 08 00 00 00       	pushq  $0x8
    40bb:	e9 60 ff ff ff       	jmpq   4020 <.plt>

00000000000040c0 <abort@plt>:
    40c0:	ff 25 9a 5f 02 00    	jmpq   *0x25f9a(%rip)        # 2a060 <abort@GLIBC_2.2.5>
    40c6:	68 09 00 00 00       	pushq  $0x9
    40cb:	e9 50 ff ff ff       	jmpq   4020 <.plt>

00000000000040d0 <_ZN8simdjson17codepoint_to_utf8EjPh@plt>:
    40d0:	ff 25 92 5f 02 00    	jmpq   *0x25f92(%rip)        # 2a068 <_ZN8simdjson17codepoint_to_utf8EjPh@@Base+0x103f8>
    40d6:	68 0a 00 00 00       	pushq  $0xa
    40db:	e9 40 ff ff ff       	jmpq   4020 <.plt>

00000000000040e0 <_ZNK8simdjson8internal49detect_best_supported_implementation_on_first_use8set_bestEv@plt>:
    40e0:	ff 25 8a 5f 02 00    	jmpq   *0x25f8a(%rip)        # 2a070 <_ZNK8simdjson8internal49detect_best_supported_implementation_on_first_use8set_bestEv@@Base+0x24ea0>
    40e6:	68 0b 00 00 00       	pushq  $0xb
    40eb:	e9 30 ff ff ff       	jmpq   4020 <.plt>

00000000000040f0 <_ZN8simdjson8westmere6stage113json_minifier6minifyILm64EEENS_10error_codeEPKhmPhRm@plt>:
    40f0:	ff 25 82 5f 02 00    	jmpq   *0x25f82(%rip)        # 2a078 <_ZN8simdjson8westmere6stage113json_minifier6minifyILm64EEENS_10error_codeEPKhmPhRm@@Base+0xdd98>
    40f6:	68 0c 00 00 00       	pushq  $0xc
    40fb:	e9 20 ff ff ff       	jmpq   4020 <.plt>

0000000000004100 <_ZSt19__throw_logic_errorPKc@plt>:
    4100:	ff 25 7a 5f 02 00    	jmpq   *0x25f7a(%rip)        # 2a080 <_ZSt19__throw_logic_errorPKc@GLIBCXX_3.4>
    4106:	68 0d 00 00 00       	pushq  $0xd
    410b:	e9 10 ff ff ff       	jmpq   4020 <.plt>

0000000000004110 <strtod@plt>:
    4110:	ff 25 72 5f 02 00    	jmpq   *0x25f72(%rip)        # 2a088 <strtod@GLIBC_2.2.5>
    4116:	68 0e 00 00 00       	pushq  $0xe
    411b:	e9 00 ff ff ff       	jmpq   4020 <.plt>

0000000000004120 <memcpy@plt>:
    4120:	ff 25 6a 5f 02 00    	jmpq   *0x25f6a(%rip)        # 2a090 <memcpy@GLIBC_2.14>
    4126:	68 0f 00 00 00       	pushq  $0xf
    412b:	e9 f0 fe ff ff       	jmpq   4020 <.plt>

0000000000004130 <__cxa_atexit@plt>:
    4130:	ff 25 62 5f 02 00    	jmpq   *0x25f62(%rip)        # 2a098 <__cxa_atexit@GLIBC_2.2.5>
    4136:	68 10 00 00 00       	pushq  $0x10
    413b:	e9 e0 fe ff ff       	jmpq   4020 <.plt>

0000000000004140 <_ZdlPv@plt>:
    4140:	ff 25 5a 5f 02 00    	jmpq   *0x25f5a(%rip)        # 2a0a0 <_ZdlPv@GLIBCXX_3.4>
    4146:	68 11 00 00 00       	pushq  $0x11
    414b:	e9 d0 fe ff ff       	jmpq   4020 <.plt>

0000000000004150 <_ZNK8simdjson8westmere14implementation6stage1EPKhmRNS_3dom6parserEb@plt>:
    4150:	ff 25 52 5f 02 00    	jmpq   *0x25f52(%rip)        # 2a0a8 <_ZNK8simdjson8westmere14implementation6stage1EPKhmRNS_3dom6parserEb@@Base+0x24d68>
    4156:	68 12 00 00 00       	pushq  $0x12
    415b:	e9 c0 fe ff ff       	jmpq   4020 <.plt>

0000000000004160 <_Znwm@plt>:
    4160:	ff 25 4a 5f 02 00    	jmpq   *0x25f4a(%rip)        # 2a0b0 <_Znwm@GLIBCXX_3.4>
    4166:	68 13 00 00 00       	pushq  $0x13
    416b:	e9 b0 fe ff ff       	jmpq   4020 <.plt>

0000000000004170 <_ZN8simdjson7haswell13numberparsing18slow_float_parsingINS0_6stage213number_writerEEEbPKcT_@plt>:
    4170:	ff 25 42 5f 02 00    	jmpq   *0x25f42(%rip)        # 2a0b8 <_ZN8simdjson7haswell13numberparsing18slow_float_parsingINS0_6stage213number_writerEEEbPKcT_@@Base+0xbe68>
    4176:	68 14 00 00 00       	pushq  $0x14
    417b:	e9 a0 fe ff ff       	jmpq   4020 <.plt>

0000000000004180 <_ZdlPvm@plt>:
    4180:	ff 25 3a 5f 02 00    	jmpq   *0x25f3a(%rip)        # 2a0c0 <_ZdlPvm@CXXABI_1.3.9>
    4186:	68 15 00 00 00       	pushq  $0x15
    418b:	e9 90 fe ff ff       	jmpq   4020 <.plt>

0000000000004190 <_ZNK8simdjson8fallback14implementation6stage1EPKhmRNS_3dom6parserEb@plt>:
    4190:	ff 25 32 5f 02 00    	jmpq   *0x25f32(%rip)        # 2a0c8 <_ZNK8simdjson8fallback14implementation6stage1EPKhmRNS_3dom6parserEb@@Base+0x25338>
    4196:	68 16 00 00 00       	pushq  $0x16
    419b:	e9 80 fe ff ff       	jmpq   4020 <.plt>

00000000000041a0 <free@plt>:
    41a0:	ff 25 2a 5f 02 00    	jmpq   *0x25f2a(%rip)        # 2a0d0 <free@GLIBC_2.2.5>
    41a6:	68 17 00 00 00       	pushq  $0x17
    41ab:	e9 70 fe ff ff       	jmpq   4020 <.plt>

00000000000041b0 <getenv@plt>:
    41b0:	ff 25 22 5f 02 00    	jmpq   *0x25f22(%rip)        # 2a0d8 <getenv@GLIBC_2.2.5>
    41b6:	68 18 00 00 00       	pushq  $0x18
    41bb:	e9 60 fe ff ff       	jmpq   4020 <.plt>

00000000000041c0 <_ZNK8simdjson8internal29available_implementation_list3endEv@plt>:
    41c0:	ff 25 1a 5f 02 00    	jmpq   *0x25f1a(%rip)        # 2a0e0 <_ZNK8simdjson8internal29available_implementation_list3endEv@@Base+0x24fc0>
    41c6:	68 19 00 00 00       	pushq  $0x19
    41cb:	e9 50 fe ff ff       	jmpq   4020 <.plt>

00000000000041d0 <malloc@plt>:
    41d0:	ff 25 12 5f 02 00    	jmpq   *0x25f12(%rip)        # 2a0e8 <malloc@GLIBC_2.2.5>
    41d6:	68 1a 00 00 00       	pushq  $0x1a
    41db:	e9 40 fe ff ff       	jmpq   4020 <.plt>

00000000000041e0 <_ZNK8simdjson8fallback14implementation6stage2EPKhmRNS_3dom6parserE@plt>:
    41e0:	ff 25 0a 5f 02 00    	jmpq   *0x25f0a(%rip)        # 2a0f0 <_ZNK8simdjson8fallback14implementation6stage2EPKhmRNS_3dom6parserE@@Base+0x24d90>
    41e6:	68 1b 00 00 00       	pushq  $0x1b
    41eb:	e9 30 fe ff ff       	jmpq   4020 <.plt>

00000000000041f0 <_ZN8simdjson8internal26unsupported_implementationC1Ev@plt>:
    41f0:	ff 25 02 5f 02 00    	jmpq   *0x25f02(%rip)        # 2a0f8 <_ZN8simdjson8internal26unsupported_implementationC1Ev@@Base+0x103a8>
    41f6:	68 1c 00 00 00       	pushq  $0x1c
    41fb:	e9 20 fe ff ff       	jmpq   4020 <.plt>

0000000000004200 <_ZNK8simdjson7haswell14implementation6stage1EPKhmRNS_3dom6parserEb@plt>:
    4200:	ff 25 fa 5e 02 00    	jmpq   *0x25efa(%rip)        # 2a100 <_ZNK8simdjson7haswell14implementation6stage1EPKhmRNS_3dom6parserEb@@Base+0x24e00>
    4206:	68 1d 00 00 00       	pushq  $0x1d
    420b:	e9 10 fe ff ff       	jmpq   4020 <.plt>

0000000000004210 <_ZN8simdjson8westmere6stage123json_structural_indexer5indexILm64EEENS_10error_codeEPKhmRNS_3dom6parserEb@plt>:
    4210:	ff 25 f2 5e 02 00    	jmpq   *0x25ef2(%rip)        # 2a108 <_ZN8simdjson8westmere6stage123json_structural_indexer5indexILm64EEENS_10error_codeEPKhmRNS_3dom6parserEb@@Base+0xd6c8>
    4216:	68 1e 00 00 00       	pushq  $0x1e
    421b:	e9 00 fe ff ff       	jmpq   4020 <.plt>

0000000000004220 <fprintf@plt>:
    4220:	ff 25 ea 5e 02 00    	jmpq   *0x25eea(%rip)        # 2a110 <fprintf@GLIBC_2.2.5>
    4226:	68 1f 00 00 00       	pushq  $0x1f
    422b:	e9 f0 fd ff ff       	jmpq   4020 <.plt>

0000000000004230 <_ZNSt7__cxx1112basic_stringIcSt11char_traitsIcESaIcEED1Ev@plt>:
    4230:	ff 25 e2 5e 02 00    	jmpq   *0x25ee2(%rip)        # 2a118 <_ZNSt7__cxx1112basic_stringIcSt11char_traitsIcESaIcEED1Ev@@Base+0x103e8>
    4236:	68 20 00 00 00       	pushq  $0x20
    423b:	e9 e0 fd ff ff       	jmpq   4020 <.plt>

0000000000004240 <_ZN8simdjson7haswell6stage123json_structural_indexer5indexILm128EEENS_10error_codeEPKhmRNS_3dom6parserEb@plt>:
    4240:	ff 25 da 5e 02 00    	jmpq   *0x25eda(%rip)        # 2a120 <_ZN8simdjson7haswell6stage123json_structural_indexer5indexILm128EEENS_10error_codeEPKhmRNS_3dom6parserEb@@Base+0xf7f0>
    4246:	68 21 00 00 00       	pushq  $0x21
    424b:	e9 d0 fd ff ff       	jmpq   4020 <.plt>

0000000000004250 <_ZNSt8ios_base4InitC1Ev@plt>:
    4250:	ff 25 d2 5e 02 00    	jmpq   *0x25ed2(%rip)        # 2a128 <_ZNSt8ios_base4InitC1Ev@GLIBCXX_3.4>
    4256:	68 22 00 00 00       	pushq  $0x22
    425b:	e9 c0 fd ff ff       	jmpq   4020 <.plt>

0000000000004260 <_ZN8simdjson7haswell13numberparsing19parse_large_integerINS0_6stage213number_writerEEEbPKhT_b@plt>:
    4260:	ff 25 ca 5e 02 00    	jmpq   *0x25eca(%rip)        # 2a130 <_ZN8simdjson7haswell13numberparsing19parse_large_integerINS0_6stage213number_writerEEEbPKhT_b@@Base+0xbe60>
    4266:	68 23 00 00 00       	pushq  $0x23
    426b:	e9 b0 fd ff ff       	jmpq   4020 <.plt>

0000000000004270 <_ZN8simdjson8westmere13numberparsing19parse_large_integerINS0_6stage213number_writerEEEbPKhT_b@plt>:
    4270:	ff 25 c2 5e 02 00    	jmpq   *0x25ec2(%rip)        # 2a138 <_ZN8simdjson8westmere13numberparsing19parse_large_integerINS0_6stage213number_writerEEEbPKhT_b@@Base+0xbc48>
    4276:	68 24 00 00 00       	pushq  $0x24
    427b:	e9 a0 fd ff ff       	jmpq   4020 <.plt>

0000000000004280 <_ZN8simdjson7haswell6stage113json_minifier6minifyILm128EEENS_10error_codeEPKhmPhRm@plt>:
    4280:	ff 25 ba 5e 02 00    	jmpq   *0x25eba(%rip)        # 2a140 <_ZN8simdjson7haswell6stage113json_minifier6minifyILm128EEENS_10error_codeEPKhmPhRm@@Base+0x10310>
    4286:	68 25 00 00 00       	pushq  $0x25
    428b:	e9 90 fd ff ff       	jmpq   4020 <.plt>

0000000000004290 <_Unwind_Resume@plt>:
    4290:	ff 25 b2 5e 02 00    	jmpq   *0x25eb2(%rip)        # 2a148 <_Unwind_Resume@GCC_3.0>
    4296:	68 26 00 00 00       	pushq  $0x26
    429b:	e9 80 fd ff ff       	jmpq   4020 <.plt>

00000000000042a0 <_ZNK8simdjson8internal29available_implementation_list5beginEv@plt>:
    42a0:	ff 25 aa 5e 02 00    	jmpq   *0x25eaa(%rip)        # 2a150 <_ZNK8simdjson8internal29available_implementation_list5beginEv@@Base+0x25040>
    42a6:	68 27 00 00 00       	pushq  $0x27
    42ab:	e9 70 fd ff ff       	jmpq   4020 <.plt>

00000000000042b0 <_ZNSt11char_traitsIcE6lengthEPKc@plt>:
    42b0:	ff 25 a2 5e 02 00    	jmpq   *0x25ea2(%rip)        # 2a158 <_ZNSt11char_traitsIcE6lengthEPKc@@Base+0x10678>
    42b6:	68 28 00 00 00       	pushq  $0x28
    42bb:	e9 60 fd ff ff       	jmpq   4020 <.plt>

00000000000042c0 <_ZNK8simdjson7haswell14implementation6stage2EPKhmRNS_3dom6parserE@plt>:
    42c0:	ff 25 9a 5e 02 00    	jmpq   *0x25e9a(%rip)        # 2a160 <_ZNK8simdjson7haswell14implementation6stage2EPKhmRNS_3dom6parserE@@Base+0x1e7f0>
    42c6:	68 29 00 00 00       	pushq  $0x29
    42cb:	e9 50 fd ff ff       	jmpq   4020 <.plt>

Disassembly of section .plt.got:

00000000000042d0 <__cxa_finalize@plt>:
    42d0:	ff 25 8a 5c 02 00    	jmpq   *0x25c8a(%rip)        # 29f60 <__cxa_finalize@GLIBC_2.2.5>
    42d6:	66 90                	xchg   %ax,%ax

00000000000042d8 <__gmon_start__@plt>:
    42d8:	ff 25 fa 5c 02 00    	jmpq   *0x25cfa(%rip)        # 29fd8 <__gmon_start__>
    42de:	66 90                	xchg   %ax,%ax

Disassembly of section .text:

00000000000042e0 <_GLOBAL__sub_I_simdjson.cpp.cold.56>:
    42e0:	ba 18 00 00 00       	mov    $0x18,%edx
    42e5:	bd 18 00 00 00       	mov    $0x18,%ebp
    42ea:	48 29 d5             	sub    %rdx,%rbp
    42ed:	48 6b ed 28          	imul   $0x28,%rbp,%rbp
    42f1:	48 01 dd             	add    %rbx,%rbp
    42f4:	48 39 dd             	cmp    %rbx,%rbp
    42f7:	0f 85 99 00 00 00    	jne    4396 <_GLOBAL__sub_I_simdjson.cpp.cold.56+0xb6>
    42fd:	48 89 c7             	mov    %rax,%rdi
    4300:	e8 8b ff ff ff       	callq  4290 <_Unwind_Resume@plt>
    4305:	48 8d 3d 5c 66 02 00 	lea    0x2665c(%rip),%rdi        # 2a968 <_ZN8simdjson8internalL59detect_best_supported_implementation_on_first_use_singletonE+0x8>
    430c:	e8 1f ff ff ff       	callq  4230 <_ZNSt7__cxx1112basic_stringIcSt11char_traitsIcESaIcEED1Ev@plt>
    4311:	e8 3a fd ff ff       	callq  4050 <_ZSt9terminatev@plt>
    4316:	48 8d 3d 0b 67 02 00 	lea    0x2670b(%rip),%rdi        # 2aa28 <_ZN8simdjson8internalL18westmere_singletonE+0x8>
    431d:	e8 0e ff ff ff       	callq  4230 <_ZNSt7__cxx1112basic_stringIcSt11char_traitsIcESaIcEED1Ev@plt>
    4322:	48 89 df             	mov    %rbx,%rdi
    4325:	e8 66 ff ff ff       	callq  4290 <_Unwind_Resume@plt>
    432a:	48 8d 3d 57 67 02 00 	lea    0x26757(%rip),%rdi        # 2aa88 <_ZN8simdjson8internalL17haswell_singletonE+0x8>
    4331:	e8 fa fe ff ff       	callq  4230 <_ZNSt7__cxx1112basic_stringIcSt11char_traitsIcESaIcEED1Ev@plt>
    4336:	48 89 df             	mov    %rbx,%rdi
    4339:	e8 52 ff ff ff       	callq  4290 <_Unwind_Resume@plt>
    433e:	48 8d 3d 83 66 02 00 	lea    0x26683(%rip),%rdi        # 2a9c8 <_ZN8simdjson8internalL18fallback_singletonE+0x8>
    4345:	e8 e6 fe ff ff       	callq  4230 <_ZNSt7__cxx1112basic_stringIcSt11char_traitsIcESaIcEED1Ev@plt>
    434a:	48 89 df             	mov    %rbx,%rdi
    434d:	e8 3e ff ff ff       	callq  4290 <_Unwind_Resume@plt>
    4352:	31 d2                	xor    %edx,%edx
    4354:	eb 8f                	jmp    42e5 <_GLOBAL__sub_I_simdjson.cpp.cold.56+0x5>
    4356:	ba 01 00 00 00       	mov    $0x1,%edx
    435b:	eb 88                	jmp    42e5 <_GLOBAL__sub_I_simdjson.cpp.cold.56+0x5>
    435d:	ba 04 00 00 00       	mov    $0x4,%edx
    4362:	eb 81                	jmp    42e5 <_GLOBAL__sub_I_simdjson.cpp.cold.56+0x5>
    4364:	ba 05 00 00 00       	mov    $0x5,%edx
    4369:	e9 77 ff ff ff       	jmpq   42e5 <_GLOBAL__sub_I_simdjson.cpp.cold.56+0x5>
    436e:	ba 06 00 00 00       	mov    $0x6,%edx
    4373:	e9 6d ff ff ff       	jmpq   42e5 <_GLOBAL__sub_I_simdjson.cpp.cold.56+0x5>
    4378:	ba 07 00 00 00       	mov    $0x7,%edx
    437d:	e9 63 ff ff ff       	jmpq   42e5 <_GLOBAL__sub_I_simdjson.cpp.cold.56+0x5>
    4382:	ba 02 00 00 00       	mov    $0x2,%edx
    4387:	e9 59 ff ff ff       	jmpq   42e5 <_GLOBAL__sub_I_simdjson.cpp.cold.56+0x5>
    438c:	ba 03 00 00 00       	mov    $0x3,%edx
    4391:	e9 4f ff ff ff       	jmpq   42e5 <_GLOBAL__sub_I_simdjson.cpp.cold.56+0x5>
    4396:	48 83 ed 28          	sub    $0x28,%rbp
    439a:	48 8b 7d 08          	mov    0x8(%rbp),%rdi
    439e:	48 8d 55 18          	lea    0x18(%rbp),%rdx
    43a2:	48 39 d7             	cmp    %rdx,%rdi
    43a5:	0f 84 49 ff ff ff    	je     42f4 <_GLOBAL__sub_I_simdjson.cpp.cold.56+0x14>
    43ab:	48 89 44 24 08       	mov    %rax,0x8(%rsp)
    43b0:	e8 8b fd ff ff       	callq  4140 <_ZdlPv@plt>
    43b5:	48 8b 44 24 08       	mov    0x8(%rsp),%rax
    43ba:	e9 35 ff ff ff       	jmpq   42f4 <_GLOBAL__sub_I_simdjson.cpp.cold.56+0x14>
    43bf:	ba 08 00 00 00       	mov    $0x8,%edx
    43c4:	e9 1c ff ff ff       	jmpq   42e5 <_GLOBAL__sub_I_simdjson.cpp.cold.56+0x5>
    43c9:	ba 09 00 00 00       	mov    $0x9,%edx
    43ce:	e9 12 ff ff ff       	jmpq   42e5 <_GLOBAL__sub_I_simdjson.cpp.cold.56+0x5>
    43d3:	ba 0a 00 00 00       	mov    $0xa,%edx
    43d8:	e9 08 ff ff ff       	jmpq   42e5 <_GLOBAL__sub_I_simdjson.cpp.cold.56+0x5>
    43dd:	ba 0b 00 00 00       	mov    $0xb,%edx
    43e2:	e9 fe fe ff ff       	jmpq   42e5 <_GLOBAL__sub_I_simdjson.cpp.cold.56+0x5>
    43e7:	ba 0c 00 00 00       	mov    $0xc,%edx
    43ec:	e9 f4 fe ff ff       	jmpq   42e5 <_GLOBAL__sub_I_simdjson.cpp.cold.56+0x5>
    43f1:	ba 0d 00 00 00       	mov    $0xd,%edx
    43f6:	e9 ea fe ff ff       	jmpq   42e5 <_GLOBAL__sub_I_simdjson.cpp.cold.56+0x5>
    43fb:	ba 0e 00 00 00       	mov    $0xe,%edx
    4400:	e9 e0 fe ff ff       	jmpq   42e5 <_GLOBAL__sub_I_simdjson.cpp.cold.56+0x5>
    4405:	ba 0f 00 00 00       	mov    $0xf,%edx
    440a:	e9 d6 fe ff ff       	jmpq   42e5 <_GLOBAL__sub_I_simdjson.cpp.cold.56+0x5>
    440f:	ba 10 00 00 00       	mov    $0x10,%edx
    4414:	e9 cc fe ff ff       	jmpq   42e5 <_GLOBAL__sub_I_simdjson.cpp.cold.56+0x5>
    4419:	ba 11 00 00 00       	mov    $0x11,%edx
    441e:	e9 c2 fe ff ff       	jmpq   42e5 <_GLOBAL__sub_I_simdjson.cpp.cold.56+0x5>
    4423:	ba 12 00 00 00       	mov    $0x12,%edx
    4428:	e9 b8 fe ff ff       	jmpq   42e5 <_GLOBAL__sub_I_simdjson.cpp.cold.56+0x5>
    442d:	ba 13 00 00 00       	mov    $0x13,%edx
    4432:	e9 ae fe ff ff       	jmpq   42e5 <_GLOBAL__sub_I_simdjson.cpp.cold.56+0x5>
    4437:	ba 14 00 00 00       	mov    $0x14,%edx
    443c:	e9 a4 fe ff ff       	jmpq   42e5 <_GLOBAL__sub_I_simdjson.cpp.cold.56+0x5>
    4441:	ba 15 00 00 00       	mov    $0x15,%edx
    4446:	e9 9a fe ff ff       	jmpq   42e5 <_GLOBAL__sub_I_simdjson.cpp.cold.56+0x5>
    444b:	ba 16 00 00 00       	mov    $0x16,%edx
    4450:	e9 90 fe ff ff       	jmpq   42e5 <_GLOBAL__sub_I_simdjson.cpp.cold.56+0x5>
    4455:	ba 17 00 00 00       	mov    $0x17,%edx
    445a:	e9 86 fe ff ff       	jmpq   42e5 <_GLOBAL__sub_I_simdjson.cpp.cold.56+0x5>
    445f:	90                   	nop

0000000000004460 <_ZNSt7__cxx1112basic_stringIcSt11char_traitsIcESaIcEEC2ISt17basic_string_viewIcS2_EvEERKT_RKS3_.constprop.53>:
    4460:	41 54                	push   %r12
    4462:	48 8d 47 10          	lea    0x10(%rdi),%rax
    4466:	55                   	push   %rbp
    4467:	48 89 fd             	mov    %rdi,%rbp
    446a:	53                   	push   %rbx
    446b:	4c 8b 66 08          	mov    0x8(%rsi),%r12
    446f:	48 8b 1e             	mov    (%rsi),%rbx
    4472:	48 89 07             	mov    %rax,(%rdi)
    4475:	4c 89 e1             	mov    %r12,%rcx
    4478:	48 01 d9             	add    %rbx,%rcx
    447b:	74 05                	je     4482 <_ZNSt7__cxx1112basic_stringIcSt11char_traitsIcESaIcEEC2ISt17basic_string_viewIcS2_EvEERKT_RKS3_.constprop.53+0x22>
    447d:	4d 85 e4             	test   %r12,%r12
    4480:	74 52                	je     44d4 <_ZNSt7__cxx1112basic_stringIcSt11char_traitsIcESaIcEEC2ISt17basic_string_viewIcS2_EvEERKT_RKS3_.constprop.53+0x74>
    4482:	48 83 fb 0f          	cmp    $0xf,%rbx
    4486:	77 26                	ja     44ae <_ZNSt7__cxx1112basic_stringIcSt11char_traitsIcESaIcEEC2ISt17basic_string_viewIcS2_EvEERKT_RKS3_.constprop.53+0x4e>
    4488:	48 83 fb 01          	cmp    $0x1,%rbx
    448c:	75 19                	jne    44a7 <_ZNSt7__cxx1112basic_stringIcSt11char_traitsIcESaIcEEC2ISt17basic_string_viewIcS2_EvEERKT_RKS3_.constprop.53+0x47>
    448e:	41 0f b6 04 24       	movzbl (%r12),%eax
    4493:	88 45 10             	mov    %al,0x10(%rbp)
    4496:	48 8b 45 00          	mov    0x0(%rbp),%rax
    449a:	48 89 5d 08          	mov    %rbx,0x8(%rbp)
    449e:	c6 04 18 00          	movb   $0x0,(%rax,%rbx,1)
    44a2:	5b                   	pop    %rbx
    44a3:	5d                   	pop    %rbp
    44a4:	41 5c                	pop    %r12
    44a6:	c3                   	retq   
    44a7:	48 85 db             	test   %rbx,%rbx
    44aa:	74 ea                	je     4496 <_ZNSt7__cxx1112basic_stringIcSt11char_traitsIcESaIcEEC2ISt17basic_string_viewIcS2_EvEERKT_RKS3_.constprop.53+0x36>
    44ac:	eb 16                	jmp    44c4 <_ZNSt7__cxx1112basic_stringIcSt11char_traitsIcESaIcEEC2ISt17basic_string_viewIcS2_EvEERKT_RKS3_.constprop.53+0x64>
    44ae:	48 85 db             	test   %rbx,%rbx
    44b1:	78 2d                	js     44e0 <_ZNSt7__cxx1112basic_stringIcSt11char_traitsIcESaIcEEC2ISt17basic_string_viewIcS2_EvEERKT_RKS3_.constprop.53+0x80>
    44b3:	48 8d 7b 01          	lea    0x1(%rbx),%rdi
    44b7:	e8 a4 fc ff ff       	callq  4160 <_Znwm@plt>
    44bc:	48 89 5d 10          	mov    %rbx,0x10(%rbp)
    44c0:	48 89 45 00          	mov    %rax,0x0(%rbp)
    44c4:	48 89 da             	mov    %rbx,%rdx
    44c7:	4c 89 e6             	mov    %r12,%rsi
    44ca:	48 89 c7             	mov    %rax,%rdi
    44cd:	e8 4e fc ff ff       	callq  4120 <memcpy@plt>
    44d2:	eb c2                	jmp    4496 <_ZNSt7__cxx1112basic_stringIcSt11char_traitsIcESaIcEEC2ISt17basic_string_viewIcS2_EvEERKT_RKS3_.constprop.53+0x36>
    44d4:	48 8d 3d 25 ab 01 00 	lea    0x1ab25(%rip),%rdi        # 1f000 <_fini+0x970>
    44db:	e8 20 fc ff ff       	callq  4100 <_ZSt19__throw_logic_errorPKc@plt>
    44e0:	48 8d 3d b9 b0 01 00 	lea    0x1b0b9(%rip),%rdi        # 1f5a0 <_fini+0xf10>
    44e7:	e8 c4 fb ff ff       	callq  40b0 <_ZSt20__throw_length_errorPKc@plt>
    44ec:	0f 1f 40 00          	nopl   0x0(%rax)

00000000000044f0 <_ZNSt7__cxx1112basic_stringIcSt11char_traitsIcESaIcEEC2IS3_EEPKcRKS3_.constprop.51>:
    44f0:	41 55                	push   %r13
    44f2:	4c 8d 6f 10          	lea    0x10(%rdi),%r13
    44f6:	41 54                	push   %r12
    44f8:	55                   	push   %rbp
    44f9:	53                   	push   %rbx
    44fa:	48 83 ec 08          	sub    $0x8,%rsp
    44fe:	4c 89 2f             	mov    %r13,(%rdi)
    4501:	48 85 f6             	test   %rsi,%rsi
    4504:	74 78                	je     457e <_ZNSt7__cxx1112basic_stringIcSt11char_traitsIcESaIcEEC2IS3_EEPKcRKS3_.constprop.51+0x8e>
    4506:	48 89 fd             	mov    %rdi,%rbp
    4509:	48 89 f7             	mov    %rsi,%rdi
    450c:	49 89 f4             	mov    %rsi,%r12
    450f:	e8 9c fd ff ff       	callq  42b0 <_ZNSt11char_traitsIcE6lengthEPKc@plt>
    4514:	48 89 c3             	mov    %rax,%rbx
    4517:	48 83 f8 0f          	cmp    $0xf,%rax
    451b:	77 2c                	ja     4549 <_ZNSt7__cxx1112basic_stringIcSt11char_traitsIcESaIcEEC2IS3_EEPKcRKS3_.constprop.51+0x59>
    451d:	48 83 f8 01          	cmp    $0x1,%rax
    4521:	75 1f                	jne    4542 <_ZNSt7__cxx1112basic_stringIcSt11char_traitsIcESaIcEEC2IS3_EEPKcRKS3_.constprop.51+0x52>
    4523:	41 0f b6 04 24       	movzbl (%r12),%eax
    4528:	88 45 10             	mov    %al,0x10(%rbp)
    452b:	48 8b 45 00          	mov    0x0(%rbp),%rax
    452f:	48 89 5d 08          	mov    %rbx,0x8(%rbp)
    4533:	c6 04 18 00          	movb   $0x0,(%rax,%rbx,1)
    4537:	48 83 c4 08          	add    $0x8,%rsp
    453b:	5b                   	pop    %rbx
    453c:	5d                   	pop    %rbp
    453d:	41 5c                	pop    %r12
    453f:	41 5d                	pop    %r13
    4541:	c3                   	retq   
    4542:	48 85 c0             	test   %rax,%rax
    4545:	74 e4                	je     452b <_ZNSt7__cxx1112basic_stringIcSt11char_traitsIcESaIcEEC2IS3_EEPKcRKS3_.constprop.51+0x3b>
    4547:	eb 19                	jmp    4562 <_ZNSt7__cxx1112basic_stringIcSt11char_traitsIcESaIcEEC2IS3_EEPKcRKS3_.constprop.51+0x72>
    4549:	48 85 c0             	test   %rax,%rax
    454c:	78 24                	js     4572 <_ZNSt7__cxx1112basic_stringIcSt11char_traitsIcESaIcEEC2IS3_EEPKcRKS3_.constprop.51+0x82>
    454e:	48 8d 78 01          	lea    0x1(%rax),%rdi
    4552:	e8 09 fc ff ff       	callq  4160 <_Znwm@plt>
    4557:	48 89 5d 10          	mov    %rbx,0x10(%rbp)
    455b:	48 89 45 00          	mov    %rax,0x0(%rbp)
    455f:	49 89 c5             	mov    %rax,%r13
    4562:	48 89 da             	mov    %rbx,%rdx
    4565:	4c 89 e6             	mov    %r12,%rsi
    4568:	4c 89 ef             	mov    %r13,%rdi
    456b:	e8 b0 fb ff ff       	callq  4120 <memcpy@plt>
    4570:	eb b9                	jmp    452b <_ZNSt7__cxx1112basic_stringIcSt11char_traitsIcESaIcEEC2IS3_EEPKcRKS3_.constprop.51+0x3b>
    4572:	48 8d 3d 27 b0 01 00 	lea    0x1b027(%rip),%rdi        # 1f5a0 <_fini+0xf10>
    4579:	e8 32 fb ff ff       	callq  40b0 <_ZSt20__throw_length_errorPKc@plt>
    457e:	48 8d 3d 7b aa 01 00 	lea    0x1aa7b(%rip),%rdi        # 1f000 <_fini+0x970>
    4585:	e8 76 fb ff ff       	callq  4100 <_ZSt19__throw_logic_errorPKc@plt>
    458a:	66 0f 1f 44 00 00    	nopw   0x0(%rax,%rax,1)

0000000000004590 <_GLOBAL__sub_I_simdjson.cpp>:
    4590:	41 55                	push   %r13
    4592:	48 8d 3d 37 65 02 00 	lea    0x26537(%rip),%rdi        # 2aad0 <_ZStL8__ioinit>
    4599:	41 54                	push   %r12
    459b:	55                   	push   %rbp
    459c:	53                   	push   %rbx
    459d:	48 83 ec 38          	sub    $0x38,%rsp
    45a1:	e8 aa fc ff ff       	callq  4250 <_ZNSt8ios_base4InitC1Ev@plt>
    45a6:	48 8b 3d 43 5a 02 00 	mov    0x25a43(%rip),%rdi        # 29ff0 <_ZNSt8ios_base4InitD1Ev@GLIBCXX_3.4>
    45ad:	48 8d 35 1c 65 02 00 	lea    0x2651c(%rip),%rsi        # 2aad0 <_ZStL8__ioinit>
    45b4:	48 8d 15 c5 5b 02 00 	lea    0x25bc5(%rip),%rdx        # 2a180 <__dso_handle>
    45bb:	e8 70 fb ff ff       	callq  4130 <__cxa_atexit@plt>
    45c0:	48 8b 1d c9 59 02 00 	mov    0x259c9(%rip),%rbx        # 29f90 <_ZN8simdjson8internal11error_codesE@@Base-0x570>
    45c7:	48 8d 35 08 b0 01 00 	lea    0x1b008(%rip),%rsi        # 1f5d6 <_fini+0xf46>
    45ce:	c7 03 00 00 00 00    	movl   $0x0,(%rbx)
    45d4:	48 8d 7b 08          	lea    0x8(%rbx),%rdi
    45d8:	e8 13 ff ff ff       	callq  44f0 <_ZNSt7__cxx1112basic_stringIcSt11char_traitsIcESaIcEEC2IS3_EEPKcRKS3_.constprop.51>
    45dd:	c7 43 28 01 00 00 00 	movl   $0x1,0x28(%rbx)
    45e4:	48 8d 35 b5 aa 01 00 	lea    0x1aab5(%rip),%rsi        # 1f0a0 <_fini+0xa10>
    45eb:	48 8d 7b 30          	lea    0x30(%rbx),%rdi
    45ef:	e8 fc fe ff ff       	callq  44f0 <_ZNSt7__cxx1112basic_stringIcSt11char_traitsIcESaIcEEC2IS3_EEPKcRKS3_.constprop.51>
    45f4:	c7 43 50 02 00 00 00 	movl   $0x2,0x50(%rbx)
    45fb:	48 8d 35 c6 aa 01 00 	lea    0x1aac6(%rip),%rsi        # 1f0c8 <_fini+0xa38>
    4602:	48 8d 7b 58          	lea    0x58(%rbx),%rdi
    4606:	e8 e5 fe ff ff       	callq  44f0 <_ZNSt7__cxx1112basic_stringIcSt11char_traitsIcESaIcEEC2IS3_EEPKcRKS3_.constprop.51>
    460b:	c7 43 78 03 00 00 00 	movl   $0x3,0x78(%rbx)
    4612:	48 8d 35 df aa 01 00 	lea    0x1aadf(%rip),%rsi        # 1f0f8 <_fini+0xa68>
    4619:	48 8d bb 80 00 00 00 	lea    0x80(%rbx),%rdi
    4620:	e8 cb fe ff ff       	callq  44f0 <_ZNSt7__cxx1112basic_stringIcSt11char_traitsIcESaIcEEC2IS3_EEPKcRKS3_.constprop.51>
    4625:	48 8d 35 0c ab 01 00 	lea    0x1ab0c(%rip),%rsi        # 1f138 <_fini+0xaa8>
    462c:	48 8d bb a8 00 00 00 	lea    0xa8(%rbx),%rdi
    4633:	c7 83 a0 00 00 00 04 	movl   $0x4,0xa0(%rbx)
    463a:	00 00 00 
    463d:	e8 ae fe ff ff       	callq  44f0 <_ZNSt7__cxx1112basic_stringIcSt11char_traitsIcESaIcEEC2IS3_EEPKcRKS3_.constprop.51>
    4642:	48 8d 35 57 ab 01 00 	lea    0x1ab57(%rip),%rsi        # 1f1a0 <_fini+0xb10>
    4649:	48 8d bb d0 00 00 00 	lea    0xd0(%rbx),%rdi
    4650:	c7 83 c8 00 00 00 05 	movl   $0x5,0xc8(%rbx)
    4657:	00 00 00 
    465a:	e8 91 fe ff ff       	callq  44f0 <_ZNSt7__cxx1112basic_stringIcSt11char_traitsIcESaIcEEC2IS3_EEPKcRKS3_.constprop.51>
    465f:	48 8d 35 82 ab 01 00 	lea    0x1ab82(%rip),%rsi        # 1f1e8 <_fini+0xb58>
    4666:	48 8d bb f8 00 00 00 	lea    0xf8(%rbx),%rdi
    466d:	c7 83 f0 00 00 00 06 	movl   $0x6,0xf0(%rbx)
    4674:	00 00 00 
    4677:	e8 74 fe ff ff       	callq  44f0 <_ZNSt7__cxx1112basic_stringIcSt11char_traitsIcESaIcEEC2IS3_EEPKcRKS3_.constprop.51>
    467c:	48 8d 35 85 ab 01 00 	lea    0x1ab85(%rip),%rsi        # 1f208 <_fini+0xb78>
    4683:	48 8d bb 20 01 00 00 	lea    0x120(%rbx),%rdi
    468a:	c7 83 18 01 00 00 07 	movl   $0x7,0x118(%rbx)
    4691:	00 00 00 
    4694:	e8 57 fe ff ff       	callq  44f0 <_ZNSt7__cxx1112basic_stringIcSt11char_traitsIcESaIcEEC2IS3_EEPKcRKS3_.constprop.51>
    4699:	48 8d 35 a8 ab 01 00 	lea    0x1aba8(%rip),%rsi        # 1f248 <_fini+0xbb8>
    46a0:	48 8d bb 48 01 00 00 	lea    0x148(%rbx),%rdi
    46a7:	c7 83 40 01 00 00 08 	movl   $0x8,0x140(%rbx)
    46ae:	00 00 00 
    46b1:	e8 3a fe ff ff       	callq  44f0 <_ZNSt7__cxx1112basic_stringIcSt11char_traitsIcESaIcEEC2IS3_EEPKcRKS3_.constprop.51>
    46b6:	48 8d 35 cb ab 01 00 	lea    0x1abcb(%rip),%rsi        # 1f288 <_fini+0xbf8>
    46bd:	48 8d bb 70 01 00 00 	lea    0x170(%rbx),%rdi
    46c4:	c7 83 68 01 00 00 09 	movl   $0x9,0x168(%rbx)
    46cb:	00 00 00 
    46ce:	e8 1d fe ff ff       	callq  44f0 <_ZNSt7__cxx1112basic_stringIcSt11char_traitsIcESaIcEEC2IS3_EEPKcRKS3_.constprop.51>
    46d3:	48 8d 35 ee ab 01 00 	lea    0x1abee(%rip),%rsi        # 1f2c8 <_fini+0xc38>
    46da:	48 8d bb 98 01 00 00 	lea    0x198(%rbx),%rdi
    46e1:	c7 83 90 01 00 00 0a 	movl   $0xa,0x190(%rbx)
    46e8:	00 00 00 
    46eb:	e8 00 fe ff ff       	callq  44f0 <_ZNSt7__cxx1112basic_stringIcSt11char_traitsIcESaIcEEC2IS3_EEPKcRKS3_.constprop.51>
    46f0:	48 8d 35 e8 ae 01 00 	lea    0x1aee8(%rip),%rsi        # 1f5df <_fini+0xf4f>
    46f7:	48 8d bb c0 01 00 00 	lea    0x1c0(%rbx),%rdi
    46fe:	c7 83 b8 01 00 00 0b 	movl   $0xb,0x1b8(%rbx)
    4705:	00 00 00 
    4708:	e8 e3 fd ff ff       	callq  44f0 <_ZNSt7__cxx1112basic_stringIcSt11char_traitsIcESaIcEEC2IS3_EEPKcRKS3_.constprop.51>
    470d:	48 8d 35 e8 ae 01 00 	lea    0x1aee8(%rip),%rsi        # 1f5fc <_fini+0xf6c>
    4714:	48 8d bb e8 01 00 00 	lea    0x1e8(%rbx),%rdi
    471b:	c7 83 e0 01 00 00 0c 	movl   $0xc,0x1e0(%rbx)
    4722:	00 00 00 
    4725:	e8 c6 fd ff ff       	callq  44f0 <_ZNSt7__cxx1112basic_stringIcSt11char_traitsIcESaIcEEC2IS3_EEPKcRKS3_.constprop.51>
    472a:	48 8d 35 d9 ae 01 00 	lea    0x1aed9(%rip),%rsi        # 1f60a <_fini+0xf7a>
    4731:	48 8d bb 10 02 00 00 	lea    0x210(%rbx),%rdi
    4738:	c7 83 08 02 00 00 0d 	movl   $0xd,0x208(%rbx)
    473f:	00 00 00 
    4742:	e8 a9 fd ff ff       	callq  44f0 <_ZNSt7__cxx1112basic_stringIcSt11char_traitsIcESaIcEEC2IS3_EEPKcRKS3_.constprop.51>
    4747:	48 8d 35 9a ab 01 00 	lea    0x1ab9a(%rip),%rsi        # 1f2e8 <_fini+0xc58>
    474e:	48 8d bb 38 02 00 00 	lea    0x238(%rbx),%rdi
    4755:	c7 83 30 02 00 00 0e 	movl   $0xe,0x230(%rbx)
    475c:	00 00 00 
    475f:	e8 8c fd ff ff       	callq  44f0 <_ZNSt7__cxx1112basic_stringIcSt11char_traitsIcESaIcEEC2IS3_EEPKcRKS3_.constprop.51>
    4764:	48 8d 35 cd ab 01 00 	lea    0x1abcd(%rip),%rsi        # 1f338 <_fini+0xca8>
    476b:	48 8d bb 60 02 00 00 	lea    0x260(%rbx),%rdi
    4772:	c7 83 58 02 00 00 0f 	movl   $0xf,0x258(%rbx)
    4779:	00 00 00 
    477c:	e8 6f fd ff ff       	callq  44f0 <_ZNSt7__cxx1112basic_stringIcSt11char_traitsIcESaIcEEC2IS3_EEPKcRKS3_.constprop.51>
    4781:	48 8d 35 d8 ab 01 00 	lea    0x1abd8(%rip),%rsi        # 1f360 <_fini+0xcd0>
    4788:	48 8d bb 88 02 00 00 	lea    0x288(%rbx),%rdi
    478f:	c7 83 80 02 00 00 10 	movl   $0x10,0x280(%rbx)
    4796:	00 00 00 
    4799:	e8 52 fd ff ff       	callq  44f0 <_ZNSt7__cxx1112basic_stringIcSt11char_traitsIcESaIcEEC2IS3_EEPKcRKS3_.constprop.51>
    479e:	48 8d 35 2b ac 01 00 	lea    0x1ac2b(%rip),%rsi        # 1f3d0 <_fini+0xd40>
    47a5:	48 8d bb b0 02 00 00 	lea    0x2b0(%rbx),%rdi
    47ac:	c7 83 a8 02 00 00 11 	movl   $0x11,0x2a8(%rbx)
    47b3:	00 00 00 
    47b6:	e8 35 fd ff ff       	callq  44f0 <_ZNSt7__cxx1112basic_stringIcSt11char_traitsIcESaIcEEC2IS3_EEPKcRKS3_.constprop.51>
    47bb:	48 8d 35 46 ac 01 00 	lea    0x1ac46(%rip),%rsi        # 1f408 <_fini+0xd78>
    47c2:	48 8d bb d8 02 00 00 	lea    0x2d8(%rbx),%rdi
    47c9:	c7 83 d0 02 00 00 12 	movl   $0x12,0x2d0(%rbx)
    47d0:	00 00 00 
    47d3:	e8 18 fd ff ff       	callq  44f0 <_ZNSt7__cxx1112basic_stringIcSt11char_traitsIcESaIcEEC2IS3_EEPKcRKS3_.constprop.51>
    47d8:	48 8d 35 79 ac 01 00 	lea    0x1ac79(%rip),%rsi        # 1f458 <_fini+0xdc8>
    47df:	48 8d bb 00 03 00 00 	lea    0x300(%rbx),%rdi
    47e6:	c7 83 f8 02 00 00 13 	movl   $0x13,0x2f8(%rbx)
    47ed:	00 00 00 
    47f0:	e8 fb fc ff ff       	callq  44f0 <_ZNSt7__cxx1112basic_stringIcSt11char_traitsIcESaIcEEC2IS3_EEPKcRKS3_.constprop.51>
    47f5:	48 8d 35 ac ac 01 00 	lea    0x1acac(%rip),%rsi        # 1f4a8 <_fini+0xe18>
    47fc:	48 8d bb 28 03 00 00 	lea    0x328(%rbx),%rdi
    4803:	c7 83 20 03 00 00 14 	movl   $0x14,0x320(%rbx)
    480a:	00 00 00 
    480d:	e8 de fc ff ff       	callq  44f0 <_ZNSt7__cxx1112basic_stringIcSt11char_traitsIcESaIcEEC2IS3_EEPKcRKS3_.constprop.51>
    4812:	48 8d 35 06 ae 01 00 	lea    0x1ae06(%rip),%rsi        # 1f61f <_fini+0xf8f>
    4819:	48 8d bb 50 03 00 00 	lea    0x350(%rbx),%rdi
    4820:	c7 83 48 03 00 00 15 	movl   $0x15,0x348(%rbx)
    4827:	00 00 00 
    482a:	e8 c1 fc ff ff       	callq  44f0 <_ZNSt7__cxx1112basic_stringIcSt11char_traitsIcESaIcEEC2IS3_EEPKcRKS3_.constprop.51>
    482f:	48 8d 35 01 ae 01 00 	lea    0x1ae01(%rip),%rsi        # 1f637 <_fini+0xfa7>
    4836:	48 8d bb 78 03 00 00 	lea    0x378(%rbx),%rdi
    483d:	c7 83 70 03 00 00 16 	movl   $0x16,0x370(%rbx)
    4844:	00 00 00 
    4847:	e8 a4 fc ff ff       	callq  44f0 <_ZNSt7__cxx1112basic_stringIcSt11char_traitsIcESaIcEEC2IS3_EEPKcRKS3_.constprop.51>
    484c:	48 8d 35 01 ae 01 00 	lea    0x1ae01(%rip),%rsi        # 1f654 <_fini+0xfc4>
    4853:	48 8d bb a0 03 00 00 	lea    0x3a0(%rbx),%rdi
    485a:	c7 83 98 03 00 00 17 	movl   $0x17,0x398(%rbx)
    4861:	00 00 00 
    4864:	e8 87 fc ff ff       	callq  44f0 <_ZNSt7__cxx1112basic_stringIcSt11char_traitsIcESaIcEEC2IS3_EEPKcRKS3_.constprop.51>
    4869:	48 8d 35 78 ac 01 00 	lea    0x1ac78(%rip),%rsi        # 1f4e8 <_fini+0xe58>
    4870:	48 8d bb c8 03 00 00 	lea    0x3c8(%rbx),%rdi
    4877:	c7 83 c0 03 00 00 18 	movl   $0x18,0x3c0(%rbx)
    487e:	00 00 00 
    4881:	e8 6a fc ff ff       	callq  44f0 <_ZNSt7__cxx1112basic_stringIcSt11char_traitsIcESaIcEEC2IS3_EEPKcRKS3_.constprop.51>
    4886:	48 8d 15 f3 58 02 00 	lea    0x258f3(%rip),%rdx        # 2a180 <__dso_handle>
    488d:	31 f6                	xor    %esi,%esi
    488f:	48 8d 6c 24 20       	lea    0x20(%rsp),%rbp
    4894:	48 8d 3d a5 04 00 00 	lea    0x4a5(%rip),%rdi        # 4d40 <__tcf_0>
    489b:	e8 90 f8 ff ff       	callq  4130 <__cxa_atexit@plt>
    48a0:	48 8d 3d ca ad 01 00 	lea    0x1adca(%rip),%rdi        # 1f671 <_fini+0xfe1>
    48a7:	e8 04 fa ff ff       	callq  42b0 <_ZNSt11char_traitsIcE6lengthEPKc@plt>
    48ac:	48 8d 3d cd ad 01 00 	lea    0x1adcd(%rip),%rdi        # 1f680 <_fini+0xff0>
    48b3:	48 89 c3             	mov    %rax,%rbx
    48b6:	e8 f5 f9 ff ff       	callq  42b0 <_ZNSt11char_traitsIcE6lengthEPKc@plt>
    48bb:	4c 8b 25 be 56 02 00 	mov    0x256be(%rip),%r12        # 29f80 <_ZTVN8simdjson14implementationE@@Base+0x4b0>
    48c2:	48 89 ee             	mov    %rbp,%rsi
    48c5:	48 89 5c 24 10       	mov    %rbx,0x10(%rsp)
    48ca:	48 89 44 24 20       	mov    %rax,0x20(%rsp)
    48cf:	48 8d 05 aa ad 01 00 	lea    0x1adaa(%rip),%rax        # 1f680 <_fini+0xff0>
    48d6:	48 8d 5c 24 10       	lea    0x10(%rsp),%rbx
    48db:	48 89 44 24 28       	mov    %rax,0x28(%rsp)
    48e0:	48 8d 05 8a ad 01 00 	lea    0x1ad8a(%rip),%rax        # 1f671 <_fini+0xfe1>
    48e7:	48 8d 3d 9a 61 02 00 	lea    0x2619a(%rip),%rdi        # 2aa88 <_ZN8simdjson8internalL17haswell_singletonE+0x8>
    48ee:	48 89 44 24 18       	mov    %rax,0x18(%rsp)
    48f3:	49 8d 44 24 10       	lea    0x10(%r12),%rax
    48f8:	48 89 05 81 61 02 00 	mov    %rax,0x26181(%rip)        # 2aa80 <_ZN8simdjson8internalL17haswell_singletonE>
    48ff:	e8 5c fb ff ff       	callq  4460 <_ZNSt7__cxx1112basic_stringIcSt11char_traitsIcESaIcEEC2ISt17basic_string_viewIcS2_EvEERKT_RKS3_.constprop.53>
    4904:	48 89 de             	mov    %rbx,%rsi
    4907:	48 8d 3d 9a 61 02 00 	lea    0x2619a(%rip),%rdi        # 2aaa8 <_ZN8simdjson8internalL17haswell_singletonE+0x28>
    490e:	e8 4d fb ff ff       	callq  4460 <_ZNSt7__cxx1112basic_stringIcSt11char_traitsIcESaIcEEC2ISt17basic_string_viewIcS2_EvEERKT_RKS3_.constprop.53>
    4913:	48 8b 05 ce 56 02 00 	mov    0x256ce(%rip),%rax        # 29fe8 <_ZTVN8simdjson7haswell14implementationE@@Base+0x398>
    491a:	48 8b 3d a7 56 02 00 	mov    0x256a7(%rip),%rdi        # 29fc8 <_ZN8simdjson7haswell14implementationD1Ev@@Base+0x107b8>
    4921:	48 8d 15 58 58 02 00 	lea    0x25858(%rip),%rdx        # 2a180 <__dso_handle>
    4928:	48 8d 35 51 61 02 00 	lea    0x26151(%rip),%rsi        # 2aa80 <_ZN8simdjson8internalL17haswell_singletonE>
    492f:	c7 05 8f 61 02 00 74 	movl   $0x74,0x2618f(%rip)        # 2aac8 <_ZN8simdjson8internalL17haswell_singletonE+0x48>
    4936:	00 00 00 
    4939:	48 83 c0 10          	add    $0x10,%rax
    493d:	48 89 05 3c 61 02 00 	mov    %rax,0x2613c(%rip)        # 2aa80 <_ZN8simdjson8internalL17haswell_singletonE>
    4944:	e8 e7 f7 ff ff       	callq  4130 <__cxa_atexit@plt>
    4949:	48 8d 3d 38 ad 01 00 	lea    0x1ad38(%rip),%rdi        # 1f688 <_fini+0xff8>
    4950:	e8 5b f9 ff ff       	callq  42b0 <_ZNSt11char_traitsIcE6lengthEPKc@plt>
    4955:	48 8d 3d 3d ad 01 00 	lea    0x1ad3d(%rip),%rdi        # 1f699 <_fini+0x1009>
    495c:	49 89 c5             	mov    %rax,%r13
    495f:	e8 4c f9 ff ff       	callq  42b0 <_ZNSt11char_traitsIcE6lengthEPKc@plt>
    4964:	48 89 ee             	mov    %rbp,%rsi
    4967:	4c 89 6c 24 10       	mov    %r13,0x10(%rsp)
    496c:	48 8d 3d b5 60 02 00 	lea    0x260b5(%rip),%rdi        # 2aa28 <_ZN8simdjson8internalL18westmere_singletonE+0x8>
    4973:	48 89 44 24 20       	mov    %rax,0x20(%rsp)
    4978:	48 8d 05 1a ad 01 00 	lea    0x1ad1a(%rip),%rax        # 1f699 <_fini+0x1009>
    497f:	48 89 44 24 28       	mov    %rax,0x28(%rsp)
    4984:	48 8d 05 fd ac 01 00 	lea    0x1acfd(%rip),%rax        # 1f688 <_fini+0xff8>
    498b:	48 89 44 24 18       	mov    %rax,0x18(%rsp)
    4990:	49 8d 44 24 10       	lea    0x10(%r12),%rax
    4995:	48 89 05 84 60 02 00 	mov    %rax,0x26084(%rip)        # 2aa20 <_ZN8simdjson8internalL18westmere_singletonE>
    499c:	e8 bf fa ff ff       	callq  4460 <_ZNSt7__cxx1112basic_stringIcSt11char_traitsIcESaIcEEC2ISt17basic_string_viewIcS2_EvEERKT_RKS3_.constprop.53>
    49a1:	48 89 de             	mov    %rbx,%rsi
    49a4:	48 8d 3d 9d 60 02 00 	lea    0x2609d(%rip),%rdi        # 2aa48 <_ZN8simdjson8internalL18westmere_singletonE+0x28>
    49ab:	e8 b0 fa ff ff       	callq  4460 <_ZNSt7__cxx1112basic_stringIcSt11char_traitsIcESaIcEEC2ISt17basic_string_viewIcS2_EvEERKT_RKS3_.constprop.53>
    49b0:	48 8b 05 89 55 02 00 	mov    0x25589(%rip),%rax        # 29f40 <_ZTVN8simdjson8westmere14implementationE@@Base+0x290>
    49b7:	48 8b 3d b2 55 02 00 	mov    0x255b2(%rip),%rdi        # 29f70 <_ZN8simdjson8westmere14implementationD1Ev@@Base+0x107b0>
    49be:	48 8d 15 bb 57 02 00 	lea    0x257bb(%rip),%rdx        # 2a180 <__dso_handle>
    49c5:	48 8d 35 54 60 02 00 	lea    0x26054(%rip),%rsi        # 2aa20 <_ZN8simdjson8internalL18westmere_singletonE>
    49cc:	c7 05 92 60 02 00 18 	movl   $0x18,0x26092(%rip)        # 2aa68 <_ZN8simdjson8internalL18westmere_singletonE+0x48>
    49d3:	00 00 00 
    49d6:	48 83 c0 10          	add    $0x10,%rax
    49da:	48 89 05 3f 60 02 00 	mov    %rax,0x2603f(%rip)        # 2aa20 <_ZN8simdjson8internalL18westmere_singletonE>
    49e1:	e8 4a f7 ff ff       	callq  4130 <__cxa_atexit@plt>
    49e6:	48 8d 3d 5b ab 01 00 	lea    0x1ab5b(%rip),%rdi        # 1f548 <_fini+0xeb8>
    49ed:	e8 be f8 ff ff       	callq  42b0 <_ZNSt11char_traitsIcE6lengthEPKc@plt>
    49f2:	48 8d 3d a9 ac 01 00 	lea    0x1aca9(%rip),%rdi        # 1f6a2 <_fini+0x1012>
    49f9:	49 89 c5             	mov    %rax,%r13
    49fc:	e8 af f8 ff ff       	callq  42b0 <_ZNSt11char_traitsIcE6lengthEPKc@plt>
    4a01:	48 89 ee             	mov    %rbp,%rsi
    4a04:	4c 89 6c 24 10       	mov    %r13,0x10(%rsp)
    4a09:	48 8d 3d b8 5f 02 00 	lea    0x25fb8(%rip),%rdi        # 2a9c8 <_ZN8simdjson8internalL18fallback_singletonE+0x8>
    4a10:	48 89 44 24 20       	mov    %rax,0x20(%rsp)
    4a15:	48 8d 05 86 ac 01 00 	lea    0x1ac86(%rip),%rax        # 1f6a2 <_fini+0x1012>
    4a1c:	48 89 44 24 28       	mov    %rax,0x28(%rsp)
    4a21:	48 8d 05 20 ab 01 00 	lea    0x1ab20(%rip),%rax        # 1f548 <_fini+0xeb8>
    4a28:	48 89 44 24 18       	mov    %rax,0x18(%rsp)
    4a2d:	49 8d 44 24 10       	lea    0x10(%r12),%rax
    4a32:	48 89 05 87 5f 02 00 	mov    %rax,0x25f87(%rip)        # 2a9c0 <_ZN8simdjson8internalL18fallback_singletonE>
    4a39:	e8 22 fa ff ff       	callq  4460 <_ZNSt7__cxx1112basic_stringIcSt11char_traitsIcESaIcEEC2ISt17basic_string_viewIcS2_EvEERKT_RKS3_.constprop.53>
    4a3e:	48 89 de             	mov    %rbx,%rsi
    4a41:	48 8d 3d a0 5f 02 00 	lea    0x25fa0(%rip),%rdi        # 2a9e8 <_ZN8simdjson8internalL18fallback_singletonE+0x28>
    4a48:	e8 13 fa ff ff       	callq  4460 <_ZNSt7__cxx1112basic_stringIcSt11char_traitsIcESaIcEEC2ISt17basic_string_viewIcS2_EvEERKT_RKS3_.constprop.53>
    4a4d:	48 8b 05 7c 55 02 00 	mov    0x2557c(%rip),%rax        # 29fd0 <_ZTVN8simdjson8fallback14implementationE@@Base+0x3e0>
    4a54:	48 8b 3d ed 54 02 00 	mov    0x254ed(%rip),%rdi        # 29f48 <_ZN8simdjson8fallback14implementationD1Ev@@Base+0x106e8>
    4a5b:	48 8d 15 1e 57 02 00 	lea    0x2571e(%rip),%rdx        # 2a180 <__dso_handle>
    4a62:	48 8d 35 57 5f 02 00 	lea    0x25f57(%rip),%rsi        # 2a9c0 <_ZN8simdjson8internalL18fallback_singletonE>
    4a69:	c7 05 95 5f 02 00 00 	movl   $0x0,0x25f95(%rip)        # 2aa08 <_ZN8simdjson8internalL18fallback_singletonE+0x48>
    4a70:	00 00 00 
    4a73:	48 83 c0 10          	add    $0x10,%rax
    4a77:	48 89 05 42 5f 02 00 	mov    %rax,0x25f42(%rip)        # 2a9c0 <_ZN8simdjson8internalL18fallback_singletonE>
    4a7e:	e8 ad f6 ff ff       	callq  4130 <__cxa_atexit@plt>
    4a83:	48 8d 3d de aa 01 00 	lea    0x1aade(%rip),%rdi        # 1f568 <_fini+0xed8>
    4a8a:	e8 21 f8 ff ff       	callq  42b0 <_ZNSt11char_traitsIcE6lengthEPKc@plt>
    4a8f:	48 8d 3d 15 ac 01 00 	lea    0x1ac15(%rip),%rdi        # 1f6ab <_fini+0x101b>
    4a96:	49 89 c5             	mov    %rax,%r13
    4a99:	e8 12 f8 ff ff       	callq  42b0 <_ZNSt11char_traitsIcE6lengthEPKc@plt>
    4a9e:	48 89 ee             	mov    %rbp,%rsi
    4aa1:	4c 89 6c 24 10       	mov    %r13,0x10(%rsp)
    4aa6:	48 8d 3d bb 5e 02 00 	lea    0x25ebb(%rip),%rdi        # 2a968 <_ZN8simdjson8internalL59detect_best_supported_implementation_on_first_use_singletonE+0x8>
    4aad:	48 89 44 24 20       	mov    %rax,0x20(%rsp)
    4ab2:	48 8d 05 f2 ab 01 00 	lea    0x1abf2(%rip),%rax        # 1f6ab <_fini+0x101b>
    4ab9:	48 89 44 24 28       	mov    %rax,0x28(%rsp)
    4abe:	48 8d 05 a3 aa 01 00 	lea    0x1aaa3(%rip),%rax        # 1f568 <_fini+0xed8>
    4ac5:	48 89 44 24 18       	mov    %rax,0x18(%rsp)
    4aca:	49 8d 44 24 10       	lea    0x10(%r12),%rax
    4acf:	48 89 05 8a 5e 02 00 	mov    %rax,0x25e8a(%rip)        # 2a960 <_ZN8simdjson8internalL59detect_best_supported_implementation_on_first_use_singletonE>
    4ad6:	e8 85 f9 ff ff       	callq  4460 <_ZNSt7__cxx1112basic_stringIcSt11char_traitsIcESaIcEEC2ISt17basic_string_viewIcS2_EvEERKT_RKS3_.constprop.53>
    4adb:	48 89 de             	mov    %rbx,%rsi
    4ade:	48 8d 3d a3 5e 02 00 	lea    0x25ea3(%rip),%rdi        # 2a988 <_ZN8simdjson8internalL59detect_best_supported_implementation_on_first_use_singletonE+0x28>
    4ae5:	e8 76 f9 ff ff       	callq  4460 <_ZNSt7__cxx1112basic_stringIcSt11char_traitsIcESaIcEEC2ISt17basic_string_viewIcS2_EvEERKT_RKS3_.constprop.53>
    4aea:	48 8b 05 77 54 02 00 	mov    0x25477(%rip),%rax        # 29f68 <_ZTVN8simdjson8internal49detect_best_supported_implementation_on_first_useE@@Base+0x438>
    4af1:	48 8d 1d 68 5e 02 00 	lea    0x25e68(%rip),%rbx        # 2a960 <_ZN8simdjson8internalL59detect_best_supported_implementation_on_first_use_singletonE>
    4af8:	48 8b 3d a9 54 02 00 	mov    0x254a9(%rip),%rdi        # 29fa8 <_ZN8simdjson8internal49detect_best_supported_implementation_on_first_useD1Ev@@Base+0x106a8>
    4aff:	48 8d 15 7a 56 02 00 	lea    0x2567a(%rip),%rdx        # 2a180 <__dso_handle>
    4b06:	c7 05 98 5e 02 00 00 	movl   $0x0,0x25e98(%rip)        # 2a9a8 <_ZN8simdjson8internalL59detect_best_supported_implementation_on_first_use_singletonE+0x48>
    4b0d:	00 00 00 
    4b10:	48 89 de             	mov    %rbx,%rsi
    4b13:	48 83 c0 10          	add    $0x10,%rax
    4b17:	48 89 05 42 5e 02 00 	mov    %rax,0x25e42(%rip)        # 2a960 <_ZN8simdjson8internalL59detect_best_supported_implementation_on_first_use_singletonE>
    4b1e:	e8 0d f6 ff ff       	callq  4130 <__cxa_atexit@plt>
    4b23:	48 8b 05 4e 54 02 00 	mov    0x2544e(%rip),%rax        # 29f78 <_ZN8simdjson8internal21active_implementationE@@Base-0x578>
    4b2a:	48 8d 3d cf 5d 02 00 	lea    0x25dcf(%rip),%rdi        # 2a900 <_ZN8simdjson8internalL21unsupported_singletonE>
    4b31:	48 89 18             	mov    %rbx,(%rax)
    4b34:	e8 b7 f6 ff ff       	callq  41f0 <_ZN8simdjson8internal26unsupported_implementationC1Ev@plt>
    4b39:	48 8b 3d 18 54 02 00 	mov    0x25418(%rip),%rdi        # 29f58 <_ZN8simdjson8internal26unsupported_implementationD1Ev@@Base+0x106a8>
    4b40:	48 8d 15 39 56 02 00 	lea    0x25639(%rip),%rdx        # 2a180 <__dso_handle>
    4b47:	48 8d 35 b2 5d 02 00 	lea    0x25db2(%rip),%rsi        # 2a900 <_ZN8simdjson8internalL21unsupported_singletonE>
    4b4e:	e8 dd f5 ff ff       	callq  4130 <__cxa_atexit@plt>
    4b53:	48 8b 05 3e 54 02 00 	mov    0x2543e(%rip),%rax        # 29f98 <_ZN8simdjson21active_implementationE@@Base-0x548>
    4b5a:	48 89 18             	mov    %rbx,(%rax)
    4b5d:	48 83 c4 38          	add    $0x38,%rsp
    4b61:	5b                   	pop    %rbx
    4b62:	5d                   	pop    %rbp
    4b63:	41 5c                	pop    %r12
    4b65:	41 5d                	pop    %r13
    4b67:	c3                   	retq   
    4b68:	e9 73 f7 ff ff       	jmpq   42e0 <_GLOBAL__sub_I_simdjson.cpp.cold.56>
    4b6d:	e9 93 f7 ff ff       	jmpq   4305 <_GLOBAL__sub_I_simdjson.cpp.cold.56+0x25>
    4b72:	48 89 c3             	mov    %rax,%rbx
    4b75:	e9 9c f7 ff ff       	jmpq   4316 <_GLOBAL__sub_I_simdjson.cpp.cold.56+0x36>
    4b7a:	48 89 c3             	mov    %rax,%rbx
    4b7d:	e9 bc f7 ff ff       	jmpq   433e <_GLOBAL__sub_I_simdjson.cpp.cold.56+0x5e>
    4b82:	48 89 c3             	mov    %rax,%rbx
    4b85:	e9 a0 f7 ff ff       	jmpq   432a <_GLOBAL__sub_I_simdjson.cpp.cold.56+0x4a>
    4b8a:	e9 c3 f7 ff ff       	jmpq   4352 <_GLOBAL__sub_I_simdjson.cpp.cold.56+0x72>
    4b8f:	e9 c9 f7 ff ff       	jmpq   435d <_GLOBAL__sub_I_simdjson.cpp.cold.56+0x7d>
    4b94:	e9 e9 f7 ff ff       	jmpq   4382 <_GLOBAL__sub_I_simdjson.cpp.cold.56+0xa2>
    4b99:	e9 d0 f7 ff ff       	jmpq   436e <_GLOBAL__sub_I_simdjson.cpp.cold.56+0x8e>
    4b9e:	e9 b3 f7 ff ff       	jmpq   4356 <_GLOBAL__sub_I_simdjson.cpp.cold.56+0x76>
    4ba3:	e9 bc f7 ff ff       	jmpq   4364 <_GLOBAL__sub_I_simdjson.cpp.cold.56+0x84>
    4ba8:	e9 df f7 ff ff       	jmpq   438c <_GLOBAL__sub_I_simdjson.cpp.cold.56+0xac>
    4bad:	e9 c6 f7 ff ff       	jmpq   4378 <_GLOBAL__sub_I_simdjson.cpp.cold.56+0x98>
    4bb2:	e9 08 f8 ff ff       	jmpq   43bf <_GLOBAL__sub_I_simdjson.cpp.cold.56+0xdf>
    4bb7:	e9 0d f8 ff ff       	jmpq   43c9 <_GLOBAL__sub_I_simdjson.cpp.cold.56+0xe9>
    4bbc:	e9 12 f8 ff ff       	jmpq   43d3 <_GLOBAL__sub_I_simdjson.cpp.cold.56+0xf3>
    4bc1:	e9 17 f8 ff ff       	jmpq   43dd <_GLOBAL__sub_I_simdjson.cpp.cold.56+0xfd>
    4bc6:	e9 1c f8 ff ff       	jmpq   43e7 <_GLOBAL__sub_I_simdjson.cpp.cold.56+0x107>
    4bcb:	e9 21 f8 ff ff       	jmpq   43f1 <_GLOBAL__sub_I_simdjson.cpp.cold.56+0x111>
    4bd0:	e9 26 f8 ff ff       	jmpq   43fb <_GLOBAL__sub_I_simdjson.cpp.cold.56+0x11b>
    4bd5:	e9 2b f8 ff ff       	jmpq   4405 <_GLOBAL__sub_I_simdjson.cpp.cold.56+0x125>
    4bda:	e9 30 f8 ff ff       	jmpq   440f <_GLOBAL__sub_I_simdjson.cpp.cold.56+0x12f>
    4bdf:	e9 35 f8 ff ff       	jmpq   4419 <_GLOBAL__sub_I_simdjson.cpp.cold.56+0x139>
    4be4:	e9 3a f8 ff ff       	jmpq   4423 <_GLOBAL__sub_I_simdjson.cpp.cold.56+0x143>
    4be9:	e9 3f f8 ff ff       	jmpq   442d <_GLOBAL__sub_I_simdjson.cpp.cold.56+0x14d>
    4bee:	e9 44 f8 ff ff       	jmpq   4437 <_GLOBAL__sub_I_simdjson.cpp.cold.56+0x157>
    4bf3:	e9 49 f8 ff ff       	jmpq   4441 <_GLOBAL__sub_I_simdjson.cpp.cold.56+0x161>
    4bf8:	e9 4e f8 ff ff       	jmpq   444b <_GLOBAL__sub_I_simdjson.cpp.cold.56+0x16b>
    4bfd:	e9 53 f8 ff ff       	jmpq   4455 <_GLOBAL__sub_I_simdjson.cpp.cold.56+0x175>
    4c02:	66 2e 0f 1f 84 00 00 	nopw   %cs:0x0(%rax,%rax,1)
    4c09:	00 00 00 
    4c0c:	0f 1f 40 00          	nopl   0x0(%rax)

0000000000004c10 <deregister_tm_clones>:
    4c10:	48 8d 3d 91 58 02 00 	lea    0x25891(%rip),%rdi        # 2a4a8 <__TMC_END__>
    4c17:	48 8d 05 8a 58 02 00 	lea    0x2588a(%rip),%rax        # 2a4a8 <__TMC_END__>
    4c1e:	48 39 f8             	cmp    %rdi,%rax
    4c21:	74 15                	je     4c38 <deregister_tm_clones+0x28>
    4c23:	48 8b 05 86 53 02 00 	mov    0x25386(%rip),%rax        # 29fb0 <_ITM_deregisterTMCloneTable>
    4c2a:	48 85 c0             	test   %rax,%rax
    4c2d:	74 09                	je     4c38 <deregister_tm_clones+0x28>
    4c2f:	ff e0                	jmpq   *%rax
    4c31:	0f 1f 80 00 00 00 00 	nopl   0x0(%rax)
    4c38:	c3                   	retq   
    4c39:	0f 1f 80 00 00 00 00 	nopl   0x0(%rax)

0000000000004c40 <register_tm_clones>:
    4c40:	48 8d 3d 61 58 02 00 	lea    0x25861(%rip),%rdi        # 2a4a8 <__TMC_END__>
    4c47:	48 8d 35 5a 58 02 00 	lea    0x2585a(%rip),%rsi        # 2a4a8 <__TMC_END__>
    4c4e:	48 29 fe             	sub    %rdi,%rsi
    4c51:	48 c1 fe 03          	sar    $0x3,%rsi
    4c55:	48 89 f0             	mov    %rsi,%rax
    4c58:	48 c1 e8 3f          	shr    $0x3f,%rax
    4c5c:	48 01 c6             	add    %rax,%rsi
    4c5f:	48 d1 fe             	sar    %rsi
    4c62:	74 14                	je     4c78 <register_tm_clones+0x38>
    4c64:	48 8b 05 75 53 02 00 	mov    0x25375(%rip),%rax        # 29fe0 <_ITM_registerTMCloneTable>
    4c6b:	48 85 c0             	test   %rax,%rax
    4c6e:	74 08                	je     4c78 <register_tm_clones+0x38>
    4c70:	ff e0                	jmpq   *%rax
    4c72:	66 0f 1f 44 00 00    	nopw   0x0(%rax,%rax,1)
    4c78:	c3                   	retq   
    4c79:	0f 1f 80 00 00 00 00 	nopl   0x0(%rax)

0000000000004c80 <__do_global_dtors_aux>:
    4c80:	80 3d 39 58 02 00 00 	cmpb   $0x0,0x25839(%rip)        # 2a4c0 <completed.7288>
    4c87:	75 2f                	jne    4cb8 <__do_global_dtors_aux+0x38>
    4c89:	55                   	push   %rbp
    4c8a:	48 83 3d ce 52 02 00 	cmpq   $0x0,0x252ce(%rip)        # 29f60 <__cxa_finalize@GLIBC_2.2.5>
    4c91:	00 
    4c92:	48 89 e5             	mov    %rsp,%rbp
    4c95:	74 0c                	je     4ca3 <__do_global_dtors_aux+0x23>
    4c97:	48 8b 3d e2 54 02 00 	mov    0x254e2(%rip),%rdi        # 2a180 <__dso_handle>
    4c9e:	e8 2d f6 ff ff       	callq  42d0 <__cxa_finalize@plt>
    4ca3:	e8 68 ff ff ff       	callq  4c10 <deregister_tm_clones>
    4ca8:	c6 05 11 58 02 00 01 	movb   $0x1,0x25811(%rip)        # 2a4c0 <completed.7288>
    4caf:	5d                   	pop    %rbp
    4cb0:	c3                   	retq   
    4cb1:	0f 1f 80 00 00 00 00 	nopl   0x0(%rax)
    4cb8:	c3                   	retq   
    4cb9:	0f 1f 80 00 00 00 00 	nopl   0x0(%rax)

0000000000004cc0 <frame_dummy>:
    4cc0:	e9 7b ff ff ff       	jmpq   4c40 <register_tm_clones>
    4cc5:	66 2e 0f 1f 84 00 00 	nopw   %cs:0x0(%rax,%rax,1)
    4ccc:	00 00 00 
    4ccf:	90                   	nop

0000000000004cd0 <_ZNK8simdjson8fallback14implementation6minifyEPKhmPhRm>:
    4cd0:	48 85 d2             	test   %rdx,%rdx
    4cd3:	74 5b                	je     4d30 <_ZNK8simdjson8fallback14implementation6minifyEPKhmPhRm+0x60>
    4cd5:	55                   	push   %rbp
    4cd6:	bf 01 00 00 00       	mov    $0x1,%edi
    4cdb:	45 31 d2             	xor    %r10d,%r10d
    4cde:	4c 8d 1d bb 54 02 00 	lea    0x254bb(%rip),%r11        # 2a1a0 <_ZN8simdjson8fallbackL10jump_tableE>
    4ce5:	53                   	push   %rbx
    4ce6:	48 8d 1c 16          	lea    (%rsi,%rdx,1),%rbx
    4cea:	31 d2                	xor    %edx,%edx
    4cec:	0f 1f 40 00          	nopl   0x0(%rax)
    4cf0:	0f b6 06             	movzbl (%rsi),%eax
    4cf3:	48 83 c6 01          	add    $0x1,%rsi
    4cf7:	41 89 c1             	mov    %eax,%r9d
    4cfa:	8d 04 40             	lea    (%rax,%rax,2),%eax
    4cfd:	48 98                	cltq   
    4cff:	4c 01 d8             	add    %r11,%rax
    4d02:	0f b6 28             	movzbl (%rax),%ebp
    4d05:	44 88 0c 11          	mov    %r9b,(%rcx,%rdx,1)
    4d09:	44 0f b6 48 02       	movzbl 0x2(%rax),%r9d
    4d0e:	21 fd                	and    %edi,%ebp
    4d10:	f7 d7                	not    %edi
    4d12:	40 0a 78 01          	or     0x1(%rax),%dil
    4d16:	41 31 ea             	xor    %ebp,%r10d
    4d19:	45 09 d1             	or     %r10d,%r9d
    4d1c:	45 0f b6 c9          	movzbl %r9b,%r9d
    4d20:	4c 01 ca             	add    %r9,%rdx
    4d23:	48 39 f3             	cmp    %rsi,%rbx
    4d26:	75 c8                	jne    4cf0 <_ZNK8simdjson8fallback14implementation6minifyEPKhmPhRm+0x20>
    4d28:	31 c0                	xor    %eax,%eax
    4d2a:	5b                   	pop    %rbx
    4d2b:	5d                   	pop    %rbp
    4d2c:	49 89 10             	mov    %rdx,(%r8)
    4d2f:	c3                   	retq   
    4d30:	49 89 10             	mov    %rdx,(%r8)
    4d33:	31 c0                	xor    %eax,%eax
    4d35:	c3                   	retq   
    4d36:	66 2e 0f 1f 84 00 00 	nopw   %cs:0x0(%rax,%rax,1)
    4d3d:	00 00 00 

0000000000004d40 <__tcf_0>:
    4d40:	55                   	push   %rbp
    4d41:	53                   	push   %rbx
    4d42:	48 83 ec 08          	sub    $0x8,%rsp
    4d46:	48 8b 2d 43 52 02 00 	mov    0x25243(%rip),%rbp        # 29f90 <_ZN8simdjson8internal11error_codesE@@Base-0x570>
    4d4d:	48 8d 9d c0 03 00 00 	lea    0x3c0(%rbp),%rbx
    4d54:	eb 1b                	jmp    4d71 <__tcf_0+0x31>
    4d56:	66 2e 0f 1f 84 00 00 	nopw   %cs:0x0(%rax,%rax,1)
    4d5d:	00 00 00 
    4d60:	e8 db f3 ff ff       	callq  4140 <_ZdlPv@plt>
    4d65:	48 8d 43 d8          	lea    -0x28(%rbx),%rax
    4d69:	48 39 eb             	cmp    %rbp,%rbx
    4d6c:	74 19                	je     4d87 <__tcf_0+0x47>
    4d6e:	48 89 c3             	mov    %rax,%rbx
    4d71:	48 8b 7b 08          	mov    0x8(%rbx),%rdi
    4d75:	48 8d 43 18          	lea    0x18(%rbx),%rax
    4d79:	48 39 c7             	cmp    %rax,%rdi
    4d7c:	75 e2                	jne    4d60 <__tcf_0+0x20>
    4d7e:	48 8d 43 d8          	lea    -0x28(%rbx),%rax
    4d82:	48 39 eb             	cmp    %rbp,%rbx
    4d85:	75 e7                	jne    4d6e <__tcf_0+0x2e>
    4d87:	48 83 c4 08          	add    $0x8,%rsp
    4d8b:	5b                   	pop    %rbx
    4d8c:	5d                   	pop    %rbp
    4d8d:	c3                   	retq   
    4d8e:	66 90                	xchg   %ax,%ax

0000000000004d90 <_ZNK8simdjson8fallback14implementation6stage1EPKhmRNS_3dom6parserEb>:
    4d90:	48 39 51 40          	cmp    %rdx,0x40(%rcx)
    4d94:	0f 82 0e 03 00 00    	jb     50a8 <_ZNK8simdjson8fallback14implementation6stage1EPKhmRNS_3dom6parserEb+0x318>
    4d9a:	41 57                	push   %r15
    4d9c:	41 89 d2             	mov    %edx,%r10d
    4d9f:	31 c0                	xor    %eax,%eax
    4da1:	41 56                	push   %r14
    4da3:	45 89 c6             	mov    %r8d,%r14d
    4da6:	41 55                	push   %r13
    4da8:	41 54                	push   %r12
    4daa:	4c 8b 61 08          	mov    0x8(%rcx),%r12
    4dae:	55                   	push   %rbp
    4daf:	bd 0e 00 00 00       	mov    $0xe,%ebp
    4db4:	53                   	push   %rbx
    4db5:	4d 89 e3             	mov    %r12,%r11
    4db8:	31 db                	xor    %ebx,%ebx
    4dba:	85 d2                	test   %edx,%edx
    4dbc:	0f 84 ec 02 00 00    	je     50ae <_ZNK8simdjson8fallback14implementation6stage1EPKhmRNS_3dom6parserEb+0x31e>
    4dc2:	66 0f 1f 44 00 00    	nopw   0x0(%rax,%rax,1)
    4dc8:	89 df                	mov    %ebx,%edi
    4dca:	44 8d 4b 01          	lea    0x1(%rbx),%r9d
    4dce:	44 0f b6 04 3e       	movzbl (%rsi,%rdi,1),%r8d
    4dd3:	44 89 cf             	mov    %r9d,%edi
    4dd6:	41 80 f8 2c          	cmp    $0x2c,%r8b
    4dda:	0f 84 5c 01 00 00    	je     4f3c <_ZNK8simdjson8fallback14implementation6stage1EPKhmRNS_3dom6parserEb+0x1ac>
    4de0:	0f 87 ea 00 00 00    	ja     4ed0 <_ZNK8simdjson8fallback14implementation6stage1EPKhmRNS_3dom6parserEb+0x140>
    4de6:	41 80 f8 0d          	cmp    $0xd,%r8b
    4dea:	0f 84 ca 00 00 00    	je     4eba <_ZNK8simdjson8fallback14implementation6stage1EPKhmRNS_3dom6parserEb+0x12a>
    4df0:	0f 86 ba 00 00 00    	jbe    4eb0 <_ZNK8simdjson8fallback14implementation6stage1EPKhmRNS_3dom6parserEb+0x120>
    4df6:	41 80 f8 20          	cmp    $0x20,%r8b
    4dfa:	0f 84 ba 00 00 00    	je     4eba <_ZNK8simdjson8fallback14implementation6stage1EPKhmRNS_3dom6parserEb+0x12a>
    4e00:	41 80 f8 22          	cmp    $0x22,%r8b
    4e04:	0f 85 da 00 00 00    	jne    4ee4 <_ZNK8simdjson8fallback14implementation6stage1EPKhmRNS_3dom6parserEb+0x154>
    4e0a:	41 89 1b             	mov    %ebx,(%r11)
    4e0d:	49 83 c3 04          	add    $0x4,%r11
    4e11:	45 39 ca             	cmp    %r9d,%r10d
    4e14:	77 26                	ja     4e3c <_ZNK8simdjson8fallback14implementation6stage1EPKhmRNS_3dom6parserEb+0xac>
    4e16:	eb 44                	jmp    4e5c <_ZNK8simdjson8fallback14implementation6stage1EPKhmRNS_3dom6parserEb+0xcc>
    4e18:	0f 1f 84 00 00 00 00 	nopl   0x0(%rax,%rax,1)
    4e1f:	00 
    4e20:	44 8d 4f 01          	lea    0x1(%rdi),%r9d
    4e24:	45 84 c0             	test   %r8b,%r8b
    4e27:	0f 88 6b 01 00 00    	js     4f98 <_ZNK8simdjson8fallback14implementation6stage1EPKhmRNS_3dom6parserEb+0x208>
    4e2d:	41 80 f8 1f          	cmp    $0x1f,%r8b
    4e31:	44 89 cf             	mov    %r9d,%edi
    4e34:	0f 46 c5             	cmovbe %ebp,%eax
    4e37:	41 39 fa             	cmp    %edi,%r10d
    4e3a:	76 20                	jbe    4e5c <_ZNK8simdjson8fallback14implementation6stage1EPKhmRNS_3dom6parserEb+0xcc>
    4e3c:	41 89 f8             	mov    %edi,%r8d
    4e3f:	46 0f b6 04 06       	movzbl (%rsi,%r8,1),%r8d
    4e44:	41 80 f8 22          	cmp    $0x22,%r8b
    4e48:	0f 84 92 01 00 00    	je     4fe0 <_ZNK8simdjson8fallback14implementation6stage1EPKhmRNS_3dom6parserEb+0x250>
    4e4e:	41 80 f8 5c          	cmp    $0x5c,%r8b
    4e52:	75 cc                	jne    4e20 <_ZNK8simdjson8fallback14implementation6stage1EPKhmRNS_3dom6parserEb+0x90>
    4e54:	83 c7 02             	add    $0x2,%edi
    4e57:	41 39 fa             	cmp    %edi,%r10d
    4e5a:	77 e0                	ja     4e3c <_ZNK8simdjson8fallback14implementation6stage1EPKhmRNS_3dom6parserEb+0xac>
    4e5c:	41 39 fa             	cmp    %edi,%r10d
    4e5f:	bb 0f 00 00 00       	mov    $0xf,%ebx
    4e64:	41 0f 97 c0          	seta   %r8b
    4e68:	83 c7 01             	add    $0x1,%edi
    4e6b:	45 08 f0             	or     %r14b,%r8b
    4e6e:	0f 44 c3             	cmove  %ebx,%eax
    4e71:	89 fb                	mov    %edi,%ebx
    4e73:	41 39 fa             	cmp    %edi,%r10d
    4e76:	0f 87 4c ff ff ff    	ja     4dc8 <_ZNK8simdjson8fallback14implementation6stage1EPKhmRNS_3dom6parserEb+0x38>
    4e7c:	0f 1f 40 00          	nopl   0x0(%rax)
    4e80:	4d 39 dc             	cmp    %r11,%r12
    4e83:	0f 84 25 02 00 00    	je     50ae <_ZNK8simdjson8fallback14implementation6stage1EPKhmRNS_3dom6parserEb+0x31e>
    4e89:	41 89 13             	mov    %edx,(%r11)
    4e8c:	49 83 c3 04          	add    $0x4,%r11
    4e90:	4d 29 e3             	sub    %r12,%r11
    4e93:	49 c1 fb 02          	sar    $0x2,%r11
    4e97:	44 89 59 04          	mov    %r11d,0x4(%rcx)
    4e9b:	5b                   	pop    %rbx
    4e9c:	5d                   	pop    %rbp
    4e9d:	41 5c                	pop    %r12
    4e9f:	41 5d                	pop    %r13
    4ea1:	41 5e                	pop    %r14
    4ea3:	41 5f                	pop    %r15
    4ea5:	c3                   	retq   
    4ea6:	66 2e 0f 1f 84 00 00 	nopw   %cs:0x0(%rax,%rax,1)
    4ead:	00 00 00 
    4eb0:	41 83 e8 09          	sub    $0x9,%r8d
    4eb4:	41 80 f8 01          	cmp    $0x1,%r8b
    4eb8:	77 2a                	ja     4ee4 <_ZNK8simdjson8fallback14implementation6stage1EPKhmRNS_3dom6parserEb+0x154>
    4eba:	89 fb                	mov    %edi,%ebx
    4ebc:	41 39 fa             	cmp    %edi,%r10d
    4ebf:	0f 87 03 ff ff ff    	ja     4dc8 <_ZNK8simdjson8fallback14implementation6stage1EPKhmRNS_3dom6parserEb+0x38>
    4ec5:	eb b9                	jmp    4e80 <_ZNK8simdjson8fallback14implementation6stage1EPKhmRNS_3dom6parserEb+0xf0>
    4ec7:	66 0f 1f 84 00 00 00 	nopw   0x0(%rax,%rax,1)
    4ece:	00 00 
    4ed0:	41 80 f8 5d          	cmp    $0x5d,%r8b
    4ed4:	74 66                	je     4f3c <_ZNK8simdjson8fallback14implementation6stage1EPKhmRNS_3dom6parserEb+0x1ac>
    4ed6:	77 58                	ja     4f30 <_ZNK8simdjson8fallback14implementation6stage1EPKhmRNS_3dom6parserEb+0x1a0>
    4ed8:	41 80 f8 3a          	cmp    $0x3a,%r8b
    4edc:	74 5e                	je     4f3c <_ZNK8simdjson8fallback14implementation6stage1EPKhmRNS_3dom6parserEb+0x1ac>
    4ede:	41 80 f8 5b          	cmp    $0x5b,%r8b
    4ee2:	74 58                	je     4f3c <_ZNK8simdjson8fallback14implementation6stage1EPKhmRNS_3dom6parserEb+0x1ac>
    4ee4:	41 89 1b             	mov    %ebx,(%r11)
    4ee7:	44 89 cb             	mov    %r9d,%ebx
    4eea:	49 83 c3 04          	add    $0x4,%r11
    4eee:	44 89 cf             	mov    %r9d,%edi
    4ef1:	48 01 f3             	add    %rsi,%rbx
    4ef4:	45 39 ca             	cmp    %r9d,%r10d
    4ef7:	76 87                	jbe    4e80 <_ZNK8simdjson8fallback14implementation6stage1EPKhmRNS_3dom6parserEb+0xf0>
    4ef9:	44 0f b6 03          	movzbl (%rbx),%r8d
    4efd:	41 80 f8 2c          	cmp    $0x2c,%r8b
    4f01:	74 b7                	je     4eba <_ZNK8simdjson8fallback14implementation6stage1EPKhmRNS_3dom6parserEb+0x12a>
    4f03:	76 63                	jbe    4f68 <_ZNK8simdjson8fallback14implementation6stage1EPKhmRNS_3dom6parserEb+0x1d8>
    4f05:	41 80 f8 5d          	cmp    $0x5d,%r8b
    4f09:	74 af                	je     4eba <_ZNK8simdjson8fallback14implementation6stage1EPKhmRNS_3dom6parserEb+0x12a>
    4f0b:	77 43                	ja     4f50 <_ZNK8simdjson8fallback14implementation6stage1EPKhmRNS_3dom6parserEb+0x1c0>
    4f0d:	41 80 f8 3a          	cmp    $0x3a,%r8b
    4f11:	74 a7                	je     4eba <_ZNK8simdjson8fallback14implementation6stage1EPKhmRNS_3dom6parserEb+0x12a>
    4f13:	41 80 f8 5b          	cmp    $0x5b,%r8b
    4f17:	74 a1                	je     4eba <_ZNK8simdjson8fallback14implementation6stage1EPKhmRNS_3dom6parserEb+0x12a>
    4f19:	41 83 c1 01          	add    $0x1,%r9d
    4f1d:	48 83 c3 01          	add    $0x1,%rbx
    4f21:	44 89 cf             	mov    %r9d,%edi
    4f24:	45 39 ca             	cmp    %r9d,%r10d
    4f27:	77 d0                	ja     4ef9 <_ZNK8simdjson8fallback14implementation6stage1EPKhmRNS_3dom6parserEb+0x169>
    4f29:	e9 52 ff ff ff       	jmpq   4e80 <_ZNK8simdjson8fallback14implementation6stage1EPKhmRNS_3dom6parserEb+0xf0>
    4f2e:	66 90                	xchg   %ax,%ax
    4f30:	41 80 f8 7b          	cmp    $0x7b,%r8b
    4f34:	74 06                	je     4f3c <_ZNK8simdjson8fallback14implementation6stage1EPKhmRNS_3dom6parserEb+0x1ac>
    4f36:	41 80 f8 7d          	cmp    $0x7d,%r8b
    4f3a:	75 a8                	jne    4ee4 <_ZNK8simdjson8fallback14implementation6stage1EPKhmRNS_3dom6parserEb+0x154>
    4f3c:	41 89 1b             	mov    %ebx,(%r11)
    4f3f:	49 83 c3 04          	add    $0x4,%r11
    4f43:	e9 72 ff ff ff       	jmpq   4eba <_ZNK8simdjson8fallback14implementation6stage1EPKhmRNS_3dom6parserEb+0x12a>
    4f48:	0f 1f 84 00 00 00 00 	nopl   0x0(%rax,%rax,1)
    4f4f:	00 
    4f50:	41 80 f8 7b          	cmp    $0x7b,%r8b
    4f54:	0f 84 60 ff ff ff    	je     4eba <_ZNK8simdjson8fallback14implementation6stage1EPKhmRNS_3dom6parserEb+0x12a>
    4f5a:	41 80 f8 7d          	cmp    $0x7d,%r8b
    4f5e:	75 b9                	jne    4f19 <_ZNK8simdjson8fallback14implementation6stage1EPKhmRNS_3dom6parserEb+0x189>
    4f60:	e9 55 ff ff ff       	jmpq   4eba <_ZNK8simdjson8fallback14implementation6stage1EPKhmRNS_3dom6parserEb+0x12a>
    4f65:	0f 1f 00             	nopl   (%rax)
    4f68:	41 80 f8 0d          	cmp    $0xd,%r8b
    4f6c:	0f 84 48 ff ff ff    	je     4eba <_ZNK8simdjson8fallback14implementation6stage1EPKhmRNS_3dom6parserEb+0x12a>
    4f72:	77 14                	ja     4f88 <_ZNK8simdjson8fallback14implementation6stage1EPKhmRNS_3dom6parserEb+0x1f8>
    4f74:	41 83 e8 09          	sub    $0x9,%r8d
    4f78:	41 80 f8 01          	cmp    $0x1,%r8b
    4f7c:	77 9b                	ja     4f19 <_ZNK8simdjson8fallback14implementation6stage1EPKhmRNS_3dom6parserEb+0x189>
    4f7e:	e9 37 ff ff ff       	jmpq   4eba <_ZNK8simdjson8fallback14implementation6stage1EPKhmRNS_3dom6parserEb+0x12a>
    4f83:	0f 1f 44 00 00       	nopl   0x0(%rax,%rax,1)
    4f88:	41 80 f8 20          	cmp    $0x20,%r8b
    4f8c:	75 8b                	jne    4f19 <_ZNK8simdjson8fallback14implementation6stage1EPKhmRNS_3dom6parserEb+0x189>
    4f8e:	e9 27 ff ff ff       	jmpq   4eba <_ZNK8simdjson8fallback14implementation6stage1EPKhmRNS_3dom6parserEb+0x12a>
    4f93:	0f 1f 44 00 00       	nopl   0x0(%rax,%rax,1)
    4f98:	41 f6 c0 40          	test   $0x40,%r8b
    4f9c:	0f 84 be 00 00 00    	je     5060 <_ZNK8simdjson8fallback14implementation6stage1EPKhmRNS_3dom6parserEb+0x2d0>
    4fa2:	41 f6 c0 20          	test   $0x20,%r8b
    4fa6:	75 48                	jne    4ff0 <_ZNK8simdjson8fallback14implementation6stage1EPKhmRNS_3dom6parserEb+0x260>
    4fa8:	45 39 ca             	cmp    %r9d,%r10d
    4fab:	0f 82 07 01 00 00    	jb     50b8 <_ZNK8simdjson8fallback14implementation6stage1EPKhmRNS_3dom6parserEb+0x328>
    4fb1:	44 89 cb             	mov    %r9d,%ebx
    4fb4:	0f b6 1c 1e          	movzbl (%rsi,%rbx,1),%ebx
    4fb8:	83 e3 c0             	and    $0xffffffc0,%ebx
    4fbb:	80 fb 80             	cmp    $0x80,%bl
    4fbe:	0f 85 9c 00 00 00    	jne    5060 <_ZNK8simdjson8fallback14implementation6stage1EPKhmRNS_3dom6parserEb+0x2d0>
    4fc4:	41 80 f8 c1          	cmp    $0xc1,%r8b
    4fc8:	bb 0b 00 00 00       	mov    $0xb,%ebx
    4fcd:	0f 46 c3             	cmovbe %ebx,%eax
    4fd0:	83 c7 02             	add    $0x2,%edi
    4fd3:	e9 7f fe ff ff       	jmpq   4e57 <_ZNK8simdjson8fallback14implementation6stage1EPKhmRNS_3dom6parserEb+0xc7>
    4fd8:	0f 1f 84 00 00 00 00 	nopl   0x0(%rax,%rax,1)
    4fdf:	00 
    4fe0:	83 c7 01             	add    $0x1,%edi
    4fe3:	e9 d2 fe ff ff       	jmpq   4eba <_ZNK8simdjson8fallback14implementation6stage1EPKhmRNS_3dom6parserEb+0x12a>
    4fe8:	0f 1f 84 00 00 00 00 	nopl   0x0(%rax,%rax,1)
    4fef:	00 
    4ff0:	41 f6 c0 10          	test   $0x10,%r8b
    4ff4:	75 4a                	jne    5040 <_ZNK8simdjson8fallback14implementation6stage1EPKhmRNS_3dom6parserEb+0x2b0>
    4ff6:	8d 5f 02             	lea    0x2(%rdi),%ebx
    4ff9:	41 39 da             	cmp    %ebx,%r10d
    4ffc:	72 62                	jb     5060 <_ZNK8simdjson8fallback14implementation6stage1EPKhmRNS_3dom6parserEb+0x2d0>
    4ffe:	45 89 cd             	mov    %r9d,%r13d
    5001:	46 0f b6 2c 2e       	movzbl (%rsi,%r13,1),%r13d
    5006:	45 89 ef             	mov    %r13d,%r15d
    5009:	41 83 e7 c0          	and    $0xffffffc0,%r15d
    500d:	41 80 ff 80          	cmp    $0x80,%r15b
    5011:	75 4d                	jne    5060 <_ZNK8simdjson8fallback14implementation6stage1EPKhmRNS_3dom6parserEb+0x2d0>
    5013:	0f b6 1c 1e          	movzbl (%rsi,%rbx,1),%ebx
    5017:	83 e3 c0             	and    $0xffffffc0,%ebx
    501a:	80 fb 80             	cmp    $0x80,%bl
    501d:	75 41                	jne    5060 <_ZNK8simdjson8fallback14implementation6stage1EPKhmRNS_3dom6parserEb+0x2d0>
    501f:	41 80 fd 9f          	cmp    $0x9f,%r13b
    5023:	0f 87 9c 00 00 00    	ja     50c5 <_ZNK8simdjson8fallback14implementation6stage1EPKhmRNS_3dom6parserEb+0x335>
    5029:	41 80 f8 e0          	cmp    $0xe0,%r8b
    502d:	0f 85 92 00 00 00    	jne    50c5 <_ZNK8simdjson8fallback14implementation6stage1EPKhmRNS_3dom6parserEb+0x335>
    5033:	b8 0b 00 00 00       	mov    $0xb,%eax
    5038:	83 c7 03             	add    $0x3,%edi
    503b:	e9 f7 fd ff ff       	jmpq   4e37 <_ZNK8simdjson8fallback14implementation6stage1EPKhmRNS_3dom6parserEb+0xa7>
    5040:	8d 5f 03             	lea    0x3(%rdi),%ebx
    5043:	41 39 da             	cmp    %ebx,%r10d
    5046:	72 18                	jb     5060 <_ZNK8simdjson8fallback14implementation6stage1EPKhmRNS_3dom6parserEb+0x2d0>
    5048:	45 89 cd             	mov    %r9d,%r13d
    504b:	46 0f b6 2c 2e       	movzbl (%rsi,%r13,1),%r13d
    5050:	45 89 ef             	mov    %r13d,%r15d
    5053:	41 83 e5 c0          	and    $0xffffffc0,%r13d
    5057:	41 80 fd 80          	cmp    $0x80,%r13b
    505b:	74 13                	je     5070 <_ZNK8simdjson8fallback14implementation6stage1EPKhmRNS_3dom6parserEb+0x2e0>
    505d:	0f 1f 00             	nopl   (%rax)
    5060:	44 89 cf             	mov    %r9d,%edi
    5063:	b8 0b 00 00 00       	mov    $0xb,%eax
    5068:	e9 ca fd ff ff       	jmpq   4e37 <_ZNK8simdjson8fallback14implementation6stage1EPKhmRNS_3dom6parserEb+0xa7>
    506d:	0f 1f 00             	nopl   (%rax)
    5070:	44 8d 6f 02          	lea    0x2(%rdi),%r13d
    5074:	46 0f b6 2c 2e       	movzbl (%rsi,%r13,1),%r13d
    5079:	41 83 e5 c0          	and    $0xffffffc0,%r13d
    507d:	41 80 fd 80          	cmp    $0x80,%r13b
    5081:	75 dd                	jne    5060 <_ZNK8simdjson8fallback14implementation6stage1EPKhmRNS_3dom6parserEb+0x2d0>
    5083:	0f b6 1c 1e          	movzbl (%rsi,%rbx,1),%ebx
    5087:	83 e3 c0             	and    $0xffffffc0,%ebx
    508a:	80 fb 80             	cmp    $0x80,%bl
    508d:	75 d1                	jne    5060 <_ZNK8simdjson8fallback14implementation6stage1EPKhmRNS_3dom6parserEb+0x2d0>
    508f:	41 80 ff 8f          	cmp    $0x8f,%r15b
    5093:	77 4b                	ja     50e0 <_ZNK8simdjson8fallback14implementation6stage1EPKhmRNS_3dom6parserEb+0x350>
    5095:	41 80 f8 f0          	cmp    $0xf0,%r8b
    5099:	75 45                	jne    50e0 <_ZNK8simdjson8fallback14implementation6stage1EPKhmRNS_3dom6parserEb+0x350>
    509b:	b8 0b 00 00 00       	mov    $0xb,%eax
    50a0:	83 c7 04             	add    $0x4,%edi
    50a3:	e9 8f fd ff ff       	jmpq   4e37 <_ZNK8simdjson8fallback14implementation6stage1EPKhmRNS_3dom6parserEb+0xa7>
    50a8:	b8 02 00 00 00       	mov    $0x2,%eax
    50ad:	c3                   	retq   
    50ae:	b8 0d 00 00 00       	mov    $0xd,%eax
    50b3:	e9 e3 fd ff ff       	jmpq   4e9b <_ZNK8simdjson8fallback14implementation6stage1EPKhmRNS_3dom6parserEb+0x10b>
    50b8:	44 89 cf             	mov    %r9d,%edi
    50bb:	b8 0b 00 00 00       	mov    $0xb,%eax
    50c0:	e9 97 fd ff ff       	jmpq   4e5c <_ZNK8simdjson8fallback14implementation6stage1EPKhmRNS_3dom6parserEb+0xcc>
    50c5:	41 80 f8 ed          	cmp    $0xed,%r8b
    50c9:	0f 85 69 ff ff ff    	jne    5038 <_ZNK8simdjson8fallback14implementation6stage1EPKhmRNS_3dom6parserEb+0x2a8>
    50cf:	41 80 fd 9f          	cmp    $0x9f,%r13b
    50d3:	bb 0b 00 00 00       	mov    $0xb,%ebx
    50d8:	0f 47 c3             	cmova  %ebx,%eax
    50db:	e9 58 ff ff ff       	jmpq   5038 <_ZNK8simdjson8fallback14implementation6stage1EPKhmRNS_3dom6parserEb+0x2a8>
    50e0:	41 80 f8 f4          	cmp    $0xf4,%r8b
    50e4:	75 06                	jne    50ec <_ZNK8simdjson8fallback14implementation6stage1EPKhmRNS_3dom6parserEb+0x35c>
    50e6:	41 80 ff 8f          	cmp    $0x8f,%r15b
    50ea:	77 af                	ja     509b <_ZNK8simdjson8fallback14implementation6stage1EPKhmRNS_3dom6parserEb+0x30b>
    50ec:	41 80 f8 f4          	cmp    $0xf4,%r8b
    50f0:	bb 0b 00 00 00       	mov    $0xb,%ebx
    50f5:	0f 47 c3             	cmova  %ebx,%eax
    50f8:	eb a6                	jmp    50a0 <_ZNK8simdjson8fallback14implementation6stage1EPKhmRNS_3dom6parserEb+0x310>
    50fa:	66 0f 1f 44 00 00    	nopw   0x0(%rax,%rax,1)

0000000000005100 <_ZNK8simdjson8internal29available_implementation_list4sizeEv>:
    5100:	b8 03 00 00 00       	mov    $0x3,%eax
    5105:	c3                   	retq   
    5106:	66 2e 0f 1f 84 00 00 	nopw   %cs:0x0(%rax,%rax,1)
    510d:	00 00 00 

0000000000005110 <_ZNK8simdjson8internal29available_implementation_list5beginEv>:
    5110:	48 8d 05 19 49 02 00 	lea    0x24919(%rip),%rax        # 29a30 <._99>
    5117:	c3                   	retq   
    5118:	0f 1f 84 00 00 00 00 	nopl   0x0(%rax,%rax,1)
    511f:	00 

0000000000005120 <_ZNK8simdjson8internal29available_implementation_list3endEv>:
    5120:	48 8d 05 21 49 02 00 	lea    0x24921(%rip),%rax        # 29a48 <_ZTVN10__cxxabiv117__class_type_infoE@CXXABI_1.3>
    5127:	c3                   	retq   
    5128:	0f 1f 84 00 00 00 00 	nopl   0x0(%rax,%rax,1)
    512f:	00 

0000000000005130 <_ZNK8simdjson8internal29available_implementation_list21detect_best_supportedEv>:
    5130:	41 55                	push   %r13
    5132:	b8 07 00 00 00       	mov    $0x7,%eax
    5137:	31 c9                	xor    %ecx,%ecx
    5139:	41 54                	push   %r12
    513b:	55                   	push   %rbp
    513c:	53                   	push   %rbx
    513d:	48 83 ec 08          	sub    $0x8,%rsp
    5141:	0f a2                	cpuid  
    5143:	89 d8                	mov    %ebx,%eax
    5145:	bd 20 00 00 00       	mov    $0x20,%ebp
    514a:	83 e0 20             	and    $0x20,%eax
    514d:	74 0a                	je     5159 <_ZNK8simdjson8internal29available_implementation_list21detect_best_supportedEv+0x29>
    514f:	bd 24 00 00 00       	mov    $0x24,%ebp
    5154:	b8 04 00 00 00       	mov    $0x4,%eax
    5159:	f6 c3 08             	test   $0x8,%bl
    515c:	0f 44 e8             	cmove  %eax,%ebp
    515f:	89 e8                	mov    %ebp,%eax
    5161:	83 c8 40             	or     $0x40,%eax
    5164:	80 e7 01             	and    $0x1,%bh
    5167:	0f 45 e8             	cmovne %eax,%ebp
    516a:	b8 01 00 00 00       	mov    $0x1,%eax
    516f:	0f a2                	cpuid  
    5171:	89 e8                	mov    %ebp,%eax
    5173:	48 8d 1d b6 48 02 00 	lea    0x248b6(%rip),%rbx        # 29a30 <._99>
    517a:	83 c8 08             	or     $0x8,%eax
    517d:	f7 c1 00 00 10 00    	test   $0x100000,%ecx
    5183:	4c 8d 6b 18          	lea    0x18(%rbx),%r13
    5187:	0f 45 e8             	cmovne %eax,%ebp
    518a:	89 e8                	mov    %ebp,%eax
    518c:	83 c8 10             	or     $0x10,%eax
    518f:	83 e1 02             	and    $0x2,%ecx
    5192:	0f 45 e8             	cmovne %eax,%ebp
    5195:	4c 8b 23             	mov    (%rbx),%r12
    5198:	49 8b 04 24          	mov    (%r12),%rax
    519c:	4c 89 e7             	mov    %r12,%rdi
    519f:	ff 50 10             	callq  *0x10(%rax)
    51a2:	89 c2                	mov    %eax,%edx
    51a4:	21 ea                	and    %ebp,%edx
    51a6:	39 c2                	cmp    %eax,%edx
    51a8:	74 10                	je     51ba <_ZNK8simdjson8internal29available_implementation_list21detect_best_supportedEv+0x8a>
    51aa:	48 83 c3 08          	add    $0x8,%rbx
    51ae:	4c 39 eb             	cmp    %r13,%rbx
    51b1:	75 e2                	jne    5195 <_ZNK8simdjson8internal29available_implementation_list21detect_best_supportedEv+0x65>
    51b3:	4c 8d 25 46 57 02 00 	lea    0x25746(%rip),%r12        # 2a900 <_ZN8simdjson8internalL21unsupported_singletonE>
    51ba:	48 83 c4 08          	add    $0x8,%rsp
    51be:	4c 89 e0             	mov    %r12,%rax
    51c1:	5b                   	pop    %rbx
    51c2:	5d                   	pop    %rbp
    51c3:	41 5c                	pop    %r12
    51c5:	41 5d                	pop    %r13
    51c7:	c3                   	retq   
    51c8:	0f 1f 84 00 00 00 00 	nopl   0x0(%rax,%rax,1)
    51cf:	00 

00000000000051d0 <_ZNK8simdjson8internal49detect_best_supported_implementation_on_first_use8set_bestEv>:
    51d0:	41 56                	push   %r14
    51d2:	48 8d 3d df a3 01 00 	lea    0x1a3df(%rip),%rdi        # 1f5b8 <_fini+0xf28>
    51d9:	41 55                	push   %r13
    51db:	41 54                	push   %r12
    51dd:	55                   	push   %rbp
    51de:	53                   	push   %rbx
    51df:	e8 cc ef ff ff       	callq  41b0 <getenv@plt>
    51e4:	48 85 c0             	test   %rax,%rax
    51e7:	0f 84 c3 00 00 00    	je     52b0 <_ZNK8simdjson8internal49detect_best_supported_implementation_on_first_use8set_bestEv+0xe0>
    51ed:	48 89 c7             	mov    %rax,%rdi
    51f0:	49 89 c4             	mov    %rax,%r12
    51f3:	e8 88 ee ff ff       	callq  4080 <strlen@plt>
    51f8:	48 8b 2d c1 4d 02 00 	mov    0x24dc1(%rip),%rbp        # 29fc0 <_ZN8simdjson25available_implementationsE@@Base-0x528>
    51ff:	49 89 c6             	mov    %rax,%r14
    5202:	48 89 ef             	mov    %rbp,%rdi
    5205:	e8 96 f0 ff ff       	callq  42a0 <_ZNK8simdjson8internal29available_implementation_list5beginEv@plt>
    520a:	48 89 ef             	mov    %rbp,%rdi
    520d:	48 89 c3             	mov    %rax,%rbx
    5210:	e8 ab ef ff ff       	callq  41c0 <_ZNK8simdjson8internal29available_implementation_list3endEv@plt>
    5215:	49 89 c5             	mov    %rax,%r13
    5218:	48 39 c3             	cmp    %rax,%rbx
    521b:	74 20                	je     523d <_ZNK8simdjson8internal49detect_best_supported_implementation_on_first_use8set_bestEv+0x6d>
    521d:	4d 85 f6             	test   %r14,%r14
    5220:	74 3e                	je     5260 <_ZNK8simdjson8internal49detect_best_supported_implementation_on_first_use8set_bestEv+0x90>
    5222:	48 8b 2b             	mov    (%rbx),%rbp
    5225:	48 8b 45 00          	mov    0x0(%rbp),%rax
    5229:	48 89 ef             	mov    %rbp,%rdi
    522c:	ff 10                	callq  *(%rax)
    522e:	4c 3b 70 08          	cmp    0x8(%rax),%r14
    5232:	74 4c                	je     5280 <_ZNK8simdjson8internal49detect_best_supported_implementation_on_first_use8set_bestEv+0xb0>
    5234:	48 83 c3 08          	add    $0x8,%rbx
    5238:	49 39 dd             	cmp    %rbx,%r13
    523b:	75 e5                	jne    5222 <_ZNK8simdjson8internal49detect_best_supported_implementation_on_first_use8set_bestEv+0x52>
    523d:	48 8b 05 44 4d 02 00 	mov    0x24d44(%rip),%rax        # 29f88 <stderr@GLIBC_2.2.5>
    5244:	4c 89 e2             	mov    %r12,%rdx
    5247:	48 8d 35 e2 9d 01 00 	lea    0x19de2(%rip),%rsi        # 1f030 <_fini+0x9a0>
    524e:	48 8b 38             	mov    (%rax),%rdi
    5251:	31 c0                	xor    %eax,%eax
    5253:	e8 c8 ef ff ff       	callq  4220 <fprintf@plt>
    5258:	e8 63 ee ff ff       	callq  40c0 <abort@plt>
    525d:	0f 1f 00             	nopl   (%rax)
    5260:	48 8b 2b             	mov    (%rbx),%rbp
    5263:	48 8b 45 00          	mov    0x0(%rbp),%rax
    5267:	48 89 ef             	mov    %rbp,%rdi
    526a:	ff 10                	callq  *(%rax)
    526c:	48 83 78 08 00       	cmpq   $0x0,0x8(%rax)
    5271:	74 1f                	je     5292 <_ZNK8simdjson8internal49detect_best_supported_implementation_on_first_use8set_bestEv+0xc2>
    5273:	48 83 c3 08          	add    $0x8,%rbx
    5277:	49 39 dd             	cmp    %rbx,%r13
    527a:	75 e4                	jne    5260 <_ZNK8simdjson8internal49detect_best_supported_implementation_on_first_use8set_bestEv+0x90>
    527c:	eb bf                	jmp    523d <_ZNK8simdjson8internal49detect_best_supported_implementation_on_first_use8set_bestEv+0x6d>
    527e:	66 90                	xchg   %ax,%ax
    5280:	48 8b 38             	mov    (%rax),%rdi
    5283:	4c 89 f2             	mov    %r14,%rdx
    5286:	4c 89 e6             	mov    %r12,%rsi
    5289:	e8 02 ee ff ff       	callq  4090 <memcmp@plt>
    528e:	85 c0                	test   %eax,%eax
    5290:	75 a2                	jne    5234 <_ZNK8simdjson8internal49detect_best_supported_implementation_on_first_use8set_bestEv+0x64>
    5292:	48 8b 05 df 4c 02 00 	mov    0x24cdf(%rip),%rax        # 29f78 <_ZN8simdjson8internal21active_implementationE@@Base-0x578>
    5299:	48 89 28             	mov    %rbp,(%rax)
    529c:	0f ae f0             	mfence 
    529f:	48 8b 00             	mov    (%rax),%rax
    52a2:	5b                   	pop    %rbx
    52a3:	5d                   	pop    %rbp
    52a4:	41 5c                	pop    %r12
    52a6:	41 5d                	pop    %r13
    52a8:	41 5e                	pop    %r14
    52aa:	c3                   	retq   
    52ab:	0f 1f 44 00 00       	nopl   0x0(%rax,%rax,1)
    52b0:	48 8b 3d 09 4d 02 00 	mov    0x24d09(%rip),%rdi        # 29fc0 <_ZN8simdjson25available_implementationsE@@Base-0x528>
    52b7:	e8 b4 ed ff ff       	callq  4070 <_ZNK8simdjson8internal29available_implementation_list21detect_best_supportedEv@plt>
    52bc:	48 8b 15 b5 4c 02 00 	mov    0x24cb5(%rip),%rdx        # 29f78 <_ZN8simdjson8internal21active_implementationE@@Base-0x578>
    52c3:	48 89 02             	mov    %rax,(%rdx)
    52c6:	0f ae f0             	mfence 
    52c9:	48 8b 02             	mov    (%rdx),%rax
    52cc:	5b                   	pop    %rbx
    52cd:	5d                   	pop    %rbp
    52ce:	41 5c                	pop    %r12
    52d0:	41 5d                	pop    %r13
    52d2:	41 5e                	pop    %r14
    52d4:	c3                   	retq   
    52d5:	90                   	nop
    52d6:	66 2e 0f 1f 84 00 00 	nopw   %cs:0x0(%rax,%rax,1)
    52dd:	00 00 00 

00000000000052e0 <_ZNK8simdjson7haswell14implementation6minifyEPKhmPhRm>:
    52e0:	48 89 f7             	mov    %rsi,%rdi
    52e3:	48 89 d6             	mov    %rdx,%rsi
    52e6:	48 89 ca             	mov    %rcx,%rdx
    52e9:	4c 89 c1             	mov    %r8,%rcx
    52ec:	e9 8f ef ff ff       	jmpq   4280 <_ZN8simdjson7haswell6stage113json_minifier6minifyILm128EEENS_10error_codeEPKhmPhRm@plt>
    52f1:	90                   	nop
    52f2:	66 66 2e 0f 1f 84 00 	data16 nopw %cs:0x0(%rax,%rax,1)
    52f9:	00 00 00 00 
    52fd:	0f 1f 00             	nopl   (%rax)

0000000000005300 <_ZNK8simdjson7haswell14implementation6stage1EPKhmRNS_3dom6parserEb>:
    5300:	48 89 f7             	mov    %rsi,%rdi
    5303:	48 89 d6             	mov    %rdx,%rsi
    5306:	48 89 ca             	mov    %rcx,%rdx
    5309:	41 0f b6 c8          	movzbl %r8b,%ecx
    530d:	e9 2e ef ff ff       	jmpq   4240 <_ZN8simdjson7haswell6stage123json_structural_indexer5indexILm128EEENS_10error_codeEPKhmRNS_3dom6parserEb@plt>
    5312:	66 66 2e 0f 1f 84 00 	data16 nopw %cs:0x0(%rax,%rax,1)
    5319:	00 00 00 00 
    531d:	0f 1f 00             	nopl   (%rax)

0000000000005320 <_ZNK8simdjson8westmere14implementation6minifyEPKhmPhRm>:
    5320:	48 89 f7             	mov    %rsi,%rdi
    5323:	48 89 d6             	mov    %rdx,%rsi
    5326:	48 89 ca             	mov    %rcx,%rdx
    5329:	4c 89 c1             	mov    %r8,%rcx
    532c:	e9 bf ed ff ff       	jmpq   40f0 <_ZN8simdjson8westmere6stage113json_minifier6minifyILm64EEENS_10error_codeEPKhmPhRm@plt>
    5331:	90                   	nop
    5332:	66 66 2e 0f 1f 84 00 	data16 nopw %cs:0x0(%rax,%rax,1)
    5339:	00 00 00 00 
    533d:	0f 1f 00             	nopl   (%rax)

0000000000005340 <_ZNK8simdjson8westmere14implementation6stage1EPKhmRNS_3dom6parserEb>:
    5340:	48 89 f7             	mov    %rsi,%rdi
    5343:	48 89 d6             	mov    %rdx,%rsi
    5346:	48 89 ca             	mov    %rcx,%rdx
    5349:	41 0f b6 c8          	movzbl %r8b,%ecx
    534d:	e9 be ee ff ff       	jmpq   4210 <_ZN8simdjson8westmere6stage123json_structural_indexer5indexILm64EEENS_10error_codeEPKhmRNS_3dom6parserEb@plt>
    5352:	66 66 2e 0f 1f 84 00 	data16 nopw %cs:0x0(%rax,%rax,1)
    5359:	00 00 00 00 
    535d:	0f 1f 00             	nopl   (%rax)

0000000000005360 <_ZNK8simdjson8fallback14implementation6stage2EPKhmRNS_3dom6parserE>:
    5360:	41 57                	push   %r15
    5362:	b8 02 00 00 00       	mov    $0x2,%eax
    5367:	41 56                	push   %r14
    5369:	41 55                	push   %r13
    536b:	41 54                	push   %r12
    536d:	55                   	push   %rbp
    536e:	53                   	push   %rbx
    536f:	48 83 ec 38          	sub    $0x38,%rsp
    5373:	4c 8b 69 08          	mov    0x8(%rcx),%r13
    5377:	4c 8b 71 30          	mov    0x30(%rcx),%r14
    537b:	c6 41 20 00          	movb   $0x0,0x20(%rcx)
    537f:	c7 01 00 00 00 00    	movl   $0x0,(%rcx)
    5385:	c7 41 24 0c 00 00 00 	movl   $0xc,0x24(%rcx)
    538c:	48 3b 51 40          	cmp    0x40(%rcx),%rdx
    5390:	0f 87 6b 01 00 00    	ja     5501 <_ZNK8simdjson8fallback14implementation6stage2EPKhmRNS_3dom6parserE+0x1a1>
    5396:	48 89 cb             	mov    %rcx,%rbx
    5399:	41 8b 4d 00          	mov    0x0(%r13),%ecx
    539d:	48 89 f5             	mov    %rsi,%rbp
    53a0:	49 89 d7             	mov    %rdx,%r15
    53a3:	48 bf 00 00 00 00 00 	movabs $0x7200000000000000,%rdi
    53aa:	00 00 72 
    53ad:	48 8b 43 10          	mov    0x10(%rbx),%rax
    53b1:	48 8d 34 0e          	lea    (%rsi,%rcx,1),%rsi
    53b5:	44 0f b6 26          	movzbl (%rsi),%r12d
    53b9:	48 c7 00 00 00 00 00 	movq   $0x0,(%rax)
    53c0:	48 8b 43 28          	mov    0x28(%rbx),%rax
    53c4:	c7 03 01 00 00 00    	movl   $0x1,(%rbx)
    53ca:	48 89 38             	mov    %rdi,(%rax)
    53cd:	48 8b 43 18          	mov    0x18(%rbx),%rax
    53d1:	48 8d 3d b2 00 00 00 	lea    0xb2(%rip),%rdi        # 548a <_ZNK8simdjson8fallback14implementation6stage2EPKhmRNS_3dom6parserE+0x12a>
    53d8:	48 83 7b 48 01       	cmpq   $0x1,0x48(%rbx)
    53dd:	48 89 38             	mov    %rdi,(%rax)
    53e0:	0f 86 84 01 00 00    	jbe    556a <_ZNK8simdjson8fallback14implementation6stage2EPKhmRNS_3dom6parserE+0x20a>
    53e6:	41 8d 44 24 de       	lea    -0x22(%r12),%eax
    53eb:	3c 59                	cmp    $0x59,%al
    53ed:	0f 87 6b 02 00 00    	ja     565e <_ZNK8simdjson8fallback14implementation6stage2EPKhmRNS_3dom6parserE+0x2fe>
    53f3:	48 8d 15 e6 a2 01 00 	lea    0x1a2e6(%rip),%rdx        # 1f6e0 <_fini+0x1050>
    53fa:	0f b6 c0             	movzbl %al,%eax
    53fd:	48 63 04 82          	movslq (%rdx,%rax,4),%rax
    5401:	48 01 d0             	add    %rdx,%rax
    5404:	ff e0                	jmpq   *%rax
    5406:	66 2e 0f 1f 84 00 00 	nopw   %cs:0x0(%rax,%rax,1)
    540d:	00 00 00 
    5410:	4c 89 f0             	mov    %r14,%rax
    5413:	48 2b 43 30          	sub    0x30(%rbx),%rax
    5417:	49 8d 7e 04          	lea    0x4(%r14),%rdi
    541b:	48 ba 00 00 00 00 00 	movabs $0x2200000000000000,%rdx
    5422:	00 00 22 
    5425:	48 09 d0             	or     %rdx,%rax
    5428:	48 8b 53 28          	mov    0x28(%rbx),%rdx
    542c:	c7 03 02 00 00 00    	movl   $0x2,(%rbx)
    5432:	4c 8d 0d 07 bd 01 00 	lea    0x1bd07(%rip),%r9        # 21140 <_ZN8simdjson7haswell13stringparsingL10escape_mapE>
    5439:	4c 8d 05 40 fa 01 00 	lea    0x1fa40(%rip),%r8        # 24e80 <_ZN8simdjsonL14digit_to_val32E>
    5440:	48 89 42 08          	mov    %rax,0x8(%rdx)
    5444:	48 8d 54 0d 01       	lea    0x1(%rbp,%rcx,1),%rdx
    5449:	48 89 f9             	mov    %rdi,%rcx
    544c:	0f b6 02             	movzbl (%rdx),%eax
    544f:	90                   	nop
    5450:	88 01                	mov    %al,(%rcx)
    5452:	3c 22                	cmp    $0x22,%al
    5454:	74 1c                	je     5472 <_ZNK8simdjson8fallback14implementation6stage2EPKhmRNS_3dom6parserE+0x112>
    5456:	0f b6 72 01          	movzbl 0x1(%rdx),%esi
    545a:	3c 5c                	cmp    $0x5c,%al
    545c:	0f 84 de 04 00 00    	je     5940 <_ZNK8simdjson8fallback14implementation6stage2EPKhmRNS_3dom6parserE+0x5e0>
    5462:	48 83 c1 01          	add    $0x1,%rcx
    5466:	89 f0                	mov    %esi,%eax
    5468:	48 83 c2 01          	add    $0x1,%rdx
    546c:	88 01                	mov    %al,(%rcx)
    546e:	3c 22                	cmp    $0x22,%al
    5470:	75 e4                	jne    5456 <_ZNK8simdjson8fallback14implementation6stage2EPKhmRNS_3dom6parserE+0xf6>
    5472:	48 89 c8             	mov    %rcx,%rax
    5475:	41 bf 01 00 00 00    	mov    $0x1,%r15d
    547b:	41 b8 01 00 00 00    	mov    $0x1,%r8d
    5481:	48 29 f8             	sub    %rdi,%rax
    5484:	41 89 06             	mov    %eax,(%r14)
    5487:	c6 01 00             	movb   $0x0,(%rcx)
    548a:	8b 43 04             	mov    0x4(%rbx),%eax
    548d:	49 83 c0 01          	add    $0x1,%r8
    5491:	49 39 c0             	cmp    %rax,%r8
    5494:	0f 85 fe 01 00 00    	jne    5698 <_ZNK8simdjson8fallback14implementation6stage2EPKhmRNS_3dom6parserE+0x338>
    549a:	4c 8b 4b 10          	mov    0x10(%rbx),%r9
    549e:	41 8d 47 ff          	lea    -0x1(%r15),%eax
    54a2:	48 8b 4b 28          	mov    0x28(%rbx),%rcx
    54a6:	49 b8 00 00 00 00 00 	movabs $0x7200000000000000,%r8
    54ad:	00 00 72 
    54b0:	49 89 c7             	mov    %rax,%r15
    54b3:	49 8d 3c c1          	lea    (%r9,%rax,8),%rdi
    54b7:	8b 03                	mov    (%rbx),%eax
    54b9:	8b 37                	mov    (%rdi),%esi
    54bb:	8d 50 01             	lea    0x1(%rax),%edx
    54be:	49 09 f0             	or     %rsi,%r8
    54c1:	89 13                	mov    %edx,(%rbx)
    54c3:	81 7f 04 ff ff ff 00 	cmpl   $0xffffff,0x4(%rdi)
    54ca:	4c 89 04 c1          	mov    %r8,(%rcx,%rax,8)
    54ce:	b8 ff ff ff 00       	mov    $0xffffff,%eax
    54d3:	0f 46 47 04          	cmovbe 0x4(%rdi),%eax
    54d7:	48 c1 e0 20          	shl    $0x20,%rax
    54db:	48 09 d0             	or     %rdx,%rax
    54de:	48 09 04 f1          	or     %rax,(%rcx,%rsi,8)
    54e2:	45 85 ff             	test   %r15d,%r15d
    54e5:	0f 85 ad 01 00 00    	jne    5698 <_ZNK8simdjson8fallback14implementation6stage2EPKhmRNS_3dom6parserE+0x338>
    54eb:	41 8b 01             	mov    (%r9),%eax
    54ee:	85 c0                	test   %eax,%eax
    54f0:	0f 85 a2 01 00 00    	jne    5698 <_ZNK8simdjson8fallback14implementation6stage2EPKhmRNS_3dom6parserE+0x338>
    54f6:	c7 43 24 00 00 00 00 	movl   $0x0,0x24(%rbx)
    54fd:	c6 43 20 01          	movb   $0x1,0x20(%rbx)
    5501:	48 83 c4 38          	add    $0x38,%rsp
    5505:	5b                   	pop    %rbx
    5506:	5d                   	pop    %rbp
    5507:	41 5c                	pop    %r12
    5509:	41 5d                	pop    %r13
    550b:	41 5e                	pop    %r14
    550d:	41 5f                	pop    %r15
    550f:	c3                   	retq   
    5510:	0f b6 72 03          	movzbl 0x3(%rdx),%esi
    5514:	0f b6 42 02          	movzbl 0x2(%rdx),%eax
    5518:	41 8b 84 80 d8 09 00 	mov    0x9d8(%r8,%rax,4),%eax
    551f:	00 
    5520:	41 0b 84 b0 90 06 00 	or     0x690(%r8,%rsi,4),%eax
    5527:	00 
    5528:	0f b6 72 05          	movzbl 0x5(%rdx),%esi
    552c:	41 0b 04 b0          	or     (%r8,%rsi,4),%eax
    5530:	0f b6 72 04          	movzbl 0x4(%rdx),%esi
    5534:	41 0b 84 b0 48 03 00 	or     0x348(%r8,%rsi,4),%eax
    553b:	00 
    553c:	44 8d 98 00 28 ff ff 	lea    -0xd800(%rax),%r11d
    5543:	41 81 fb ff 03 00 00 	cmp    $0x3ff,%r11d
    554a:	0f 87 e0 0c 00 00    	ja     6230 <_ZNK8simdjson8fallback14implementation6stage2EPKhmRNS_3dom6parserE+0xed0>
    5550:	80 7a 06 5c          	cmpb   $0x5c,0x6(%rdx)
    5554:	0f 84 46 04 00 00    	je     59a0 <_ZNK8simdjson8fallback14implementation6stage2EPKhmRNS_3dom6parserE+0x640>
    555a:	41 bf 01 00 00 00    	mov    $0x1,%r15d
    5560:	4c 39 7b 48          	cmp    %r15,0x48(%rbx)
    5564:	0f 87 06 05 00 00    	ja     5a70 <_ZNK8simdjson8fallback14implementation6stage2EPKhmRNS_3dom6parserE+0x710>
    556a:	c7 43 24 05 00 00 00 	movl   $0x5,0x24(%rbx)
    5571:	48 83 c4 38          	add    $0x38,%rsp
    5575:	b8 05 00 00 00       	mov    $0x5,%eax
    557a:	5b                   	pop    %rbx
    557b:	5d                   	pop    %rbp
    557c:	41 5c                	pop    %r12
    557e:	41 5d                	pop    %r13
    5580:	41 5e                	pop    %r14
    5582:	41 5f                	pop    %r15
    5584:	c3                   	retq   
    5585:	0f 1f 00             	nopl   (%rax)
    5588:	48 be 00 00 00 00 00 	movabs $0x7b00000000000000,%rsi
    558f:	00 00 7b 
    5592:	48 8b 43 10          	mov    0x10(%rbx),%rax
    5596:	48 c7 40 08 01 00 00 	movq   $0x1,0x8(%rax)
    559d:	00 
    559e:	48 8b 43 28          	mov    0x28(%rbx),%rax
    55a2:	c7 03 02 00 00 00    	movl   $0x2,(%rbx)
    55a8:	48 89 70 08          	mov    %rsi,0x8(%rax)
    55ac:	48 8b 43 18          	mov    0x18(%rbx),%rax
    55b0:	48 83 7b 48 02       	cmpq   $0x2,0x48(%rbx)
    55b5:	48 89 78 08          	mov    %rdi,0x8(%rax)
    55b9:	76 af                	jbe    556a <_ZNK8simdjson8fallback14implementation6stage2EPKhmRNS_3dom6parserE+0x20a>
    55bb:	41 8b 45 04          	mov    0x4(%r13),%eax
    55bf:	44 0f b6 64 05 00    	movzbl 0x0(%rbp,%rax,1),%r12d
    55c5:	41 80 fc 22          	cmp    $0x22,%r12b
    55c9:	0f 84 d5 0c 00 00    	je     62a4 <_ZNK8simdjson8fallback14implementation6stage2EPKhmRNS_3dom6parserE+0xf44>
    55cf:	41 80 fc 7d          	cmp    $0x7d,%r12b
    55d3:	0f 85 97 00 00 00    	jne    5670 <_ZNK8simdjson8fallback14implementation6stage2EPKhmRNS_3dom6parserE+0x310>
    55d9:	41 bf 02 00 00 00    	mov    $0x2,%r15d
    55df:	41 b8 02 00 00 00    	mov    $0x2,%r8d
    55e5:	41 83 ef 01          	sub    $0x1,%r15d
    55e9:	4c 8b 4b 10          	mov    0x10(%rbx),%r9
    55ed:	8b 13                	mov    (%rbx),%edx
    55ef:	41 bc 7d 00 00 00    	mov    $0x7d,%r12d
    55f5:	44 89 f8             	mov    %r15d,%eax
    55f8:	48 8b 73 28          	mov    0x28(%rbx),%rsi
    55fc:	49 ba 00 00 00 00 00 	movabs $0x7d00000000000000,%r10
    5603:	00 00 7d 
    5606:	48 c1 e0 03          	shl    $0x3,%rax
    560a:	8d 4a 01             	lea    0x1(%rdx),%ecx
    560d:	49 01 c1             	add    %rax,%r9
    5610:	41 8b 39             	mov    (%r9),%edi
    5613:	89 0b                	mov    %ecx,(%rbx)
    5615:	49 09 fa             	or     %rdi,%r10
    5618:	41 81 79 04 ff ff ff 	cmpl   $0xffffff,0x4(%r9)
    561f:	00 
    5620:	4c 89 14 d6          	mov    %r10,(%rsi,%rdx,8)
    5624:	ba ff ff ff 00       	mov    $0xffffff,%edx
    5629:	41 0f 46 51 04       	cmovbe 0x4(%r9),%edx
    562e:	48 c1 e2 20          	shl    $0x20,%rdx
    5632:	48 09 ca             	or     %rcx,%rdx
    5635:	48 09 14 fe          	or     %rdx,(%rsi,%rdi,8)
    5639:	48 8b 53 18          	mov    0x18(%rbx),%rdx
    563d:	ff 24 02             	jmpq   *(%rdx,%rax,1)
    5640:	41 80 fc 6e          	cmp    $0x6e,%r12b
    5644:	0f 84 26 05 00 00    	je     5b70 <_ZNK8simdjson8fallback14implementation6stage2EPKhmRNS_3dom6parserE+0x810>
    564a:	41 80 fc 74          	cmp    $0x74,%r12b
    564e:	0f 84 94 04 00 00    	je     5ae8 <_ZNK8simdjson8fallback14implementation6stage2EPKhmRNS_3dom6parserE+0x788>
    5654:	41 80 fc 66          	cmp    $0x66,%r12b
    5658:	0f 84 2a 04 00 00    	je     5a88 <_ZNK8simdjson8fallback14implementation6stage2EPKhmRNS_3dom6parserE+0x728>
    565e:	41 bf 01 00 00 00    	mov    $0x1,%r15d
    5664:	4c 3b 7b 48          	cmp    0x48(%rbx),%r15
    5668:	0f 83 fc fe ff ff    	jae    556a <_ZNK8simdjson8fallback14implementation6stage2EPKhmRNS_3dom6parserE+0x20a>
    566e:	66 90                	xchg   %ax,%ax
    5670:	41 80 fc 39          	cmp    $0x39,%r12b
    5674:	0f 86 ef 02 00 00    	jbe    5969 <_ZNK8simdjson8fallback14implementation6stage2EPKhmRNS_3dom6parserE+0x609>
    567a:	41 80 fc 6e          	cmp    $0x6e,%r12b
    567e:	0f 84 44 05 00 00    	je     5bc8 <_ZNK8simdjson8fallback14implementation6stage2EPKhmRNS_3dom6parserE+0x868>
    5684:	41 80 fc 74          	cmp    $0x74,%r12b
    5688:	0f 84 ca 04 00 00    	je     5b58 <_ZNK8simdjson8fallback14implementation6stage2EPKhmRNS_3dom6parserE+0x7f8>
    568e:	41 80 fc 66          	cmp    $0x66,%r12b
    5692:	0f 84 a8 04 00 00    	je     5b40 <_ZNK8simdjson8fallback14implementation6stage2EPKhmRNS_3dom6parserE+0x7e0>
    5698:	c7 43 24 04 00 00 00 	movl   $0x4,0x24(%rbx)
    569f:	48 83 c4 38          	add    $0x38,%rsp
    56a3:	b8 04 00 00 00       	mov    $0x4,%eax
    56a8:	5b                   	pop    %rbx
    56a9:	5d                   	pop    %rbp
    56aa:	41 5c                	pop    %r12
    56ac:	41 5d                	pop    %r13
    56ae:	41 5e                	pop    %r14
    56b0:	41 5f                	pop    %r15
    56b2:	c3                   	retq   
    56b3:	0f 1f 44 00 00       	nopl   0x0(%rax,%rax,1)
    56b8:	48 be 00 00 00 00 00 	movabs $0x5b00000000000000,%rsi
    56bf:	00 00 5b 
    56c2:	48 8b 43 10          	mov    0x10(%rbx),%rax
    56c6:	48 c7 40 08 01 00 00 	movq   $0x1,0x8(%rax)
    56cd:	00 
    56ce:	48 8b 43 28          	mov    0x28(%rbx),%rax
    56d2:	c7 03 02 00 00 00    	movl   $0x2,(%rbx)
    56d8:	48 89 70 08          	mov    %rsi,0x8(%rax)
    56dc:	48 8b 43 18          	mov    0x18(%rbx),%rax
    56e0:	48 83 7b 48 02       	cmpq   $0x2,0x48(%rbx)
    56e5:	48 89 78 08          	mov    %rdi,0x8(%rax)
    56e9:	0f 86 7b fe ff ff    	jbe    556a <_ZNK8simdjson8fallback14implementation6stage2EPKhmRNS_3dom6parserE+0x20a>
    56ef:	41 bf 02 00 00 00    	mov    $0x2,%r15d
    56f5:	41 b8 01 00 00 00    	mov    $0x1,%r8d
    56fb:	43 8b 4c 85 00       	mov    0x0(%r13,%r8,4),%ecx
    5700:	49 83 c0 01          	add    $0x1,%r8
    5704:	4c 8d 4c 0d 00       	lea    0x0(%rbp,%rcx,1),%r9
    5709:	45 0f b6 21          	movzbl (%r9),%r12d
    570d:	41 80 fc 5d          	cmp    $0x5d,%r12b
    5711:	0f 84 41 05 00 00    	je     5c58 <_ZNK8simdjson8fallback14implementation6stage2EPKhmRNS_3dom6parserE+0x8f8>
    5717:	48 8b 53 10          	mov    0x10(%rbx),%rdx
    571b:	41 8d 47 ff          	lea    -0x1(%r15),%eax
    571f:	83 44 c2 04 01       	addl   $0x1,0x4(%rdx,%rax,8)
    5724:	41 8d 44 24 de       	lea    -0x22(%r12),%eax
    5729:	3c 59                	cmp    $0x59,%al
    572b:	0f 87 33 ff ff ff    	ja     5664 <_ZNK8simdjson8fallback14implementation6stage2EPKhmRNS_3dom6parserE+0x304>
    5731:	48 8d 35 10 a1 01 00 	lea    0x1a110(%rip),%rsi        # 1f848 <_fini+0x11b8>
    5738:	0f b6 c0             	movzbl %al,%eax
    573b:	48 63 04 86          	movslq (%rsi,%rax,4),%rax
    573f:	48 01 f0             	add    %rsi,%rax
    5742:	ff e0                	jmpq   *%rax
    5744:	0f 1f 40 00          	nopl   0x0(%rax)
    5748:	49 8d 7f 20          	lea    0x20(%r15),%rdi
    574c:	48 89 0c 24          	mov    %rcx,(%rsp)
    5750:	e8 7b ea ff ff       	callq  41d0 <malloc@plt>
    5755:	49 89 c4             	mov    %rax,%r12
    5758:	48 85 c0             	test   %rax,%rax
    575b:	0f 84 27 02 00 00    	je     5988 <_ZNK8simdjson8fallback14implementation6stage2EPKhmRNS_3dom6parserE+0x628>
    5761:	4c 89 fa             	mov    %r15,%rdx
    5764:	48 89 ee             	mov    %rbp,%rsi
    5767:	48 89 c7             	mov    %rax,%rdi
    576a:	e8 b1 e9 ff ff       	callq  4120 <memcpy@plt>
    576f:	48 8b 0c 24          	mov    (%rsp),%rcx
    5773:	4b 8d 14 3c          	lea    (%r12,%r15,1),%rdx
    5777:	66 0f 6f 05 e1 18 02 	movdqa 0x218e1(%rip),%xmm0        # 27060 <_ZZN8simdjson7haswell15utf8_validation13is_incompleteENS0_4simd5simd8IhEEE9max_array+0x40>
    577e:	00 
    577f:	49 8d 2c 0c          	lea    (%r12,%rcx,1),%rbp
    5783:	0f 11 02             	movups %xmm0,(%rdx)
    5786:	0f 11 42 10          	movups %xmm0,0x10(%rdx)
    578a:	0f b6 7d 00          	movzbl 0x0(%rbp),%edi
    578e:	40 80 ff 30          	cmp    $0x30,%dil
    5792:	0f 84 e8 0a 00 00    	je     6280 <_ZNK8simdjson8fallback14implementation6stage2EPKhmRNS_3dom6parserE+0xf20>
    5798:	8d 57 d0             	lea    -0x30(%rdi),%edx
    579b:	80 fa 09             	cmp    $0x9,%dl
    579e:	0f 87 6c 0a 00 00    	ja     6210 <_ZNK8simdjson8fallback14implementation6stage2EPKhmRNS_3dom6parserE+0xeb0>
    57a4:	0f b6 75 01          	movzbl 0x1(%rbp),%esi
    57a8:	0f b6 d2             	movzbl %dl,%edx
    57ab:	48 8d 4d 01          	lea    0x1(%rbp),%rcx
    57af:	8d 46 d0             	lea    -0x30(%rsi),%eax
    57b2:	3c 09                	cmp    $0x9,%al
    57b4:	77 23                	ja     57d9 <_ZNK8simdjson8fallback14implementation6stage2EPKhmRNS_3dom6parserE+0x479>
    57b6:	66 2e 0f 1f 84 00 00 	nopw   %cs:0x0(%rax,%rax,1)
    57bd:	00 00 00 
    57c0:	48 83 c1 01          	add    $0x1,%rcx
    57c4:	0f b6 31             	movzbl (%rcx),%esi
    57c7:	0f b6 c0             	movzbl %al,%eax
    57ca:	48 8d 14 92          	lea    (%rdx,%rdx,4),%rdx
    57ce:	48 8d 14 50          	lea    (%rax,%rdx,2),%rdx
    57d2:	8d 46 d0             	lea    -0x30(%rsi),%eax
    57d5:	3c 09                	cmp    $0x9,%al
    57d7:	76 e7                	jbe    57c0 <_ZNK8simdjson8fallback14implementation6stage2EPKhmRNS_3dom6parserE+0x460>
    57d9:	40 80 fe 2e          	cmp    $0x2e,%sil
    57dd:	0f 84 73 10 00 00    	je     6856 <_ZNK8simdjson8fallback14implementation6stage2EPKhmRNS_3dom6parserE+0x14f6>
    57e3:	49 89 c8             	mov    %rcx,%r8
    57e6:	83 e6 df             	and    $0xffffffdf,%esi
    57e9:	49 29 e8             	sub    %rbp,%r8
    57ec:	41 83 e8 01          	sub    $0x1,%r8d
    57f0:	40 80 fe 45          	cmp    $0x45,%sil
    57f4:	0f 84 b6 12 00 00    	je     6ab0 <_ZNK8simdjson8fallback14implementation6stage2EPKhmRNS_3dom6parserE+0x1750>
    57fa:	41 83 f8 11          	cmp    $0x11,%r8d
    57fe:	0f 8f 53 1a 00 00    	jg     7257 <_ZNK8simdjson8fallback14implementation6stage2EPKhmRNS_3dom6parserE+0x1ef7>
    5804:	49 bb 00 00 00 00 00 	movabs $0x6c00000000000000,%r11
    580b:	00 00 6c 
    580e:	8b 33                	mov    (%rbx),%esi
    5810:	48 8b 7b 28          	mov    0x28(%rbx),%rdi
    5814:	8d 46 01             	lea    0x1(%rsi),%eax
    5817:	89 03                	mov    %eax,(%rbx)
    5819:	4c 89 1c f7          	mov    %r11,(%rdi,%rsi,8)
    581d:	48 89 14 c7          	mov    %rdx,(%rdi,%rax,8)
    5821:	48 8d 05 38 04 02 00 	lea    0x20438(%rip),%rax        # 25c60 <_ZN8simdjsonL24structural_or_whitespaceE>
    5828:	83 03 01             	addl   $0x1,(%rbx)
    582b:	0f b6 11             	movzbl (%rcx),%edx
    582e:	8b 04 90             	mov    (%rax,%rdx,4),%eax
    5831:	85 c0                	test   %eax,%eax
    5833:	40 0f 95 c5          	setne  %bpl
    5837:	4c 89 e7             	mov    %r12,%rdi
    583a:	e8 61 e9 ff ff       	callq  41a0 <free@plt>
    583f:	40 84 ed             	test   %bpl,%bpl
    5842:	0f 84 d0 09 00 00    	je     6218 <_ZNK8simdjson8fallback14implementation6stage2EPKhmRNS_3dom6parserE+0xeb8>
    5848:	41 bf 01 00 00 00    	mov    $0x1,%r15d
    584e:	41 b8 01 00 00 00    	mov    $0x1,%r8d
    5854:	e9 31 fc ff ff       	jmpq   548a <_ZNK8simdjson8fallback14implementation6stage2EPKhmRNS_3dom6parserE+0x12a>
    5859:	0f 1f 80 00 00 00 00 	nopl   0x0(%rax)
    5860:	49 8d 7f 20          	lea    0x20(%r15),%rdi
    5864:	48 89 0c 24          	mov    %rcx,(%rsp)
    5868:	e8 63 e9 ff ff       	callq  41d0 <malloc@plt>
    586d:	49 89 c4             	mov    %rax,%r12
    5870:	48 85 c0             	test   %rax,%rax
    5873:	0f 84 0f 01 00 00    	je     5988 <_ZNK8simdjson8fallback14implementation6stage2EPKhmRNS_3dom6parserE+0x628>
    5879:	4c 89 fa             	mov    %r15,%rdx
    587c:	48 89 ee             	mov    %rbp,%rsi
    587f:	48 89 c7             	mov    %rax,%rdi
    5882:	e8 99 e8 ff ff       	callq  4120 <memcpy@plt>
    5887:	48 8b 0c 24          	mov    (%rsp),%rcx
    588b:	4b 8d 14 3c          	lea    (%r12,%r15,1),%rdx
    588f:	66 0f 6f 05 c9 17 02 	movdqa 0x217c9(%rip),%xmm0        # 27060 <_ZZN8simdjson7haswell15utf8_validation13is_incompleteENS0_4simd5simd8IhEEE9max_array+0x40>
    5896:	00 
    5897:	49 8d 2c 0c          	lea    (%r12,%rcx,1),%rbp
    589b:	0f 11 02             	movups %xmm0,(%rdx)
    589e:	0f 11 42 10          	movups %xmm0,0x10(%rdx)
    58a2:	0f b6 7d 01          	movzbl 0x1(%rbp),%edi
    58a6:	8d 57 d0             	lea    -0x30(%rdi),%edx
    58a9:	80 fa 09             	cmp    $0x9,%dl
    58ac:	0f 87 5e 09 00 00    	ja     6210 <_ZNK8simdjson8fallback14implementation6stage2EPKhmRNS_3dom6parserE+0xeb0>
    58b2:	0f b6 75 02          	movzbl 0x2(%rbp),%esi
    58b6:	48 8d 4d 02          	lea    0x2(%rbp),%rcx
    58ba:	40 80 ff 30          	cmp    $0x30,%dil
    58be:	0f 84 cf 11 00 00    	je     6a93 <_ZNK8simdjson8fallback14implementation6stage2EPKhmRNS_3dom6parserE+0x1733>
    58c4:	8d 46 d0             	lea    -0x30(%rsi),%eax
    58c7:	0f b6 d2             	movzbl %dl,%edx
    58ca:	3c 09                	cmp    $0x9,%al
    58cc:	77 1b                	ja     58e9 <_ZNK8simdjson8fallback14implementation6stage2EPKhmRNS_3dom6parserE+0x589>
    58ce:	66 90                	xchg   %ax,%ax
    58d0:	48 83 c1 01          	add    $0x1,%rcx
    58d4:	0f b6 31             	movzbl (%rcx),%esi
    58d7:	0f b6 c0             	movzbl %al,%eax
    58da:	48 8d 14 92          	lea    (%rdx,%rdx,4),%rdx
    58de:	48 8d 14 50          	lea    (%rax,%rdx,2),%rdx
    58e2:	8d 46 d0             	lea    -0x30(%rsi),%eax
    58e5:	3c 09                	cmp    $0x9,%al
    58e7:	76 e7                	jbe    58d0 <_ZNK8simdjson8fallback14implementation6stage2EPKhmRNS_3dom6parserE+0x570>
    58e9:	4c 8d 45 01          	lea    0x1(%rbp),%r8
    58ed:	40 80 fe 2e          	cmp    $0x2e,%sil
    58f1:	0f 84 df 11 00 00    	je     6ad6 <_ZNK8simdjson8fallback14implementation6stage2EPKhmRNS_3dom6parserE+0x1776>
    58f7:	49 89 c9             	mov    %rcx,%r9
    58fa:	83 e6 df             	and    $0xffffffdf,%esi
    58fd:	4d 29 c1             	sub    %r8,%r9
    5900:	41 83 e9 01          	sub    $0x1,%r9d
    5904:	40 80 fe 45          	cmp    $0x45,%sil
    5908:	0f 84 aa 14 00 00    	je     6db8 <_ZNK8simdjson8fallback14implementation6stage2EPKhmRNS_3dom6parserE+0x1a58>
    590e:	41 83 f9 11          	cmp    $0x11,%r9d
    5912:	0f 8f 2a 1b 00 00    	jg     7442 <_ZNK8simdjson8fallback14implementation6stage2EPKhmRNS_3dom6parserE+0x20e2>
    5918:	8b 33                	mov    (%rbx),%esi
    591a:	48 8b 7b 28          	mov    0x28(%rbx),%rdi
    591e:	48 f7 da             	neg    %rdx
    5921:	49 bb 00 00 00 00 00 	movabs $0x6c00000000000000,%r11
    5928:	00 00 6c 
    592b:	8d 46 01             	lea    0x1(%rsi),%eax
    592e:	89 03                	mov    %eax,(%rbx)
    5930:	4c 89 1c f7          	mov    %r11,(%rdi,%rsi,8)
    5934:	e9 e4 fe ff ff       	jmpq   581d <_ZNK8simdjson8fallback14implementation6stage2EPKhmRNS_3dom6parserE+0x4bd>
    5939:	0f 1f 80 00 00 00 00 	nopl   0x0(%rax)
    5940:	40 80 fe 75          	cmp    $0x75,%sil
    5944:	0f 84 c6 fb ff ff    	je     5510 <_ZNK8simdjson8fallback14implementation6stage2EPKhmRNS_3dom6parserE+0x1b0>
    594a:	41 0f b6 04 31       	movzbl (%r9,%rsi,1),%eax
    594f:	84 c0                	test   %al,%al
    5951:	0f 84 03 fc ff ff    	je     555a <_ZNK8simdjson8fallback14implementation6stage2EPKhmRNS_3dom6parserE+0x1fa>
    5957:	88 01                	mov    %al,(%rcx)
    5959:	48 83 c2 02          	add    $0x2,%rdx
    595d:	0f b6 02             	movzbl (%rdx),%eax
    5960:	48 83 c1 01          	add    $0x1,%rcx
    5964:	e9 e7 fa ff ff       	jmpq   5450 <_ZNK8simdjson8fallback14implementation6stage2EPKhmRNS_3dom6parserE+0xf0>
    5969:	41 80 fc 30          	cmp    $0x30,%r12b
    596d:	73 19                	jae    5988 <_ZNK8simdjson8fallback14implementation6stage2EPKhmRNS_3dom6parserE+0x628>
    596f:	41 80 fc 22          	cmp    $0x22,%r12b
    5973:	0f 84 f7 00 00 00    	je     5a70 <_ZNK8simdjson8fallback14implementation6stage2EPKhmRNS_3dom6parserE+0x710>
    5979:	41 80 fc 2d          	cmp    $0x2d,%r12b
    597d:	0f 85 15 fd ff ff    	jne    5698 <_ZNK8simdjson8fallback14implementation6stage2EPKhmRNS_3dom6parserE+0x338>
    5983:	0f 1f 44 00 00       	nopl   0x0(%rax,%rax,1)
    5988:	c7 43 24 0a 00 00 00 	movl   $0xa,0x24(%rbx)
    598f:	b8 0a 00 00 00       	mov    $0xa,%eax
    5994:	e9 68 fb ff ff       	jmpq   5501 <_ZNK8simdjson8fallback14implementation6stage2EPKhmRNS_3dom6parserE+0x1a1>
    5999:	0f 1f 80 00 00 00 00 	nopl   0x0(%rax)
    59a0:	80 7a 07 75          	cmpb   $0x75,0x7(%rdx)
    59a4:	0f 85 b0 fb ff ff    	jne    555a <_ZNK8simdjson8fallback14implementation6stage2EPKhmRNS_3dom6parserE+0x1fa>
    59aa:	44 0f b6 52 09       	movzbl 0x9(%rdx),%r10d
    59af:	0f b6 72 08          	movzbl 0x8(%rdx),%esi
    59b3:	41 8b b4 b0 d8 09 00 	mov    0x9d8(%r8,%rsi,4),%esi
    59ba:	00 
    59bb:	43 0b b4 90 90 06 00 	or     0x690(%r8,%r10,4),%esi
    59c2:	00 
    59c3:	44 0f b6 52 0b       	movzbl 0xb(%rdx),%r10d
    59c8:	43 0b 34 90          	or     (%r8,%r10,4),%esi
    59cc:	44 0f b6 52 0a       	movzbl 0xa(%rdx),%r10d
    59d1:	43 0b b4 90 48 03 00 	or     0x348(%r8,%r10,4),%esi
    59d8:	00 
    59d9:	09 f0                	or     %esi,%eax
    59db:	41 89 c2             	mov    %eax,%r10d
    59de:	41 c1 ea 10          	shr    $0x10,%r10d
    59e2:	0f 85 72 fb ff ff    	jne    555a <_ZNK8simdjson8fallback14implementation6stage2EPKhmRNS_3dom6parserE+0x1fa>
    59e8:	44 89 d8             	mov    %r11d,%eax
    59eb:	81 ee 00 dc 00 00    	sub    $0xdc00,%esi
    59f1:	48 83 c2 0c          	add    $0xc,%rdx
    59f5:	c1 e0 0a             	shl    $0xa,%eax
    59f8:	09 f0                	or     %esi,%eax
    59fa:	05 00 00 01 00       	add    $0x10000,%eax
    59ff:	83 f8 7f             	cmp    $0x7f,%eax
    5a02:	0f 86 38 08 00 00    	jbe    6240 <_ZNK8simdjson8fallback14implementation6stage2EPKhmRNS_3dom6parserE+0xee0>
    5a08:	3d ff 07 00 00       	cmp    $0x7ff,%eax
    5a0d:	0f 86 a5 10 00 00    	jbe    6ab8 <_ZNK8simdjson8fallback14implementation6stage2EPKhmRNS_3dom6parserE+0x1758>
    5a13:	3d ff ff 00 00       	cmp    $0xffff,%eax
    5a18:	0f 86 df 13 00 00    	jbe    6dfd <_ZNK8simdjson8fallback14implementation6stage2EPKhmRNS_3dom6parserE+0x1a9d>
    5a1e:	3d ff ff 10 00       	cmp    $0x10ffff,%eax
    5a23:	0f 87 31 fb ff ff    	ja     555a <_ZNK8simdjson8fallback14implementation6stage2EPKhmRNS_3dom6parserE+0x1fa>
    5a29:	89 c6                	mov    %eax,%esi
    5a2b:	c1 ee 12             	shr    $0x12,%esi
    5a2e:	83 ee 10             	sub    $0x10,%esi
    5a31:	40 88 31             	mov    %sil,(%rcx)
    5a34:	89 c6                	mov    %eax,%esi
    5a36:	c1 ee 0c             	shr    $0xc,%esi
    5a39:	83 e6 3f             	and    $0x3f,%esi
    5a3c:	83 c6 80             	add    $0xffffff80,%esi
    5a3f:	40 88 71 01          	mov    %sil,0x1(%rcx)
    5a43:	89 c6                	mov    %eax,%esi
    5a45:	83 e0 3f             	and    $0x3f,%eax
    5a48:	c1 ee 06             	shr    $0x6,%esi
    5a4b:	83 c0 80             	add    $0xffffff80,%eax
    5a4e:	83 e6 3f             	and    $0x3f,%esi
    5a51:	88 41 03             	mov    %al,0x3(%rcx)
    5a54:	b8 04 00 00 00       	mov    $0x4,%eax
    5a59:	83 c6 80             	add    $0xffffff80,%esi
    5a5c:	40 88 71 02          	mov    %sil,0x2(%rcx)
    5a60:	48 01 c1             	add    %rax,%rcx
    5a63:	0f b6 02             	movzbl (%rdx),%eax
    5a66:	e9 e5 f9 ff ff       	jmpq   5450 <_ZNK8simdjson8fallback14implementation6stage2EPKhmRNS_3dom6parserE+0xf0>
    5a6b:	0f 1f 44 00 00       	nopl   0x0(%rax,%rax,1)
    5a70:	c7 43 24 06 00 00 00 	movl   $0x6,0x24(%rbx)
    5a77:	b8 06 00 00 00       	mov    $0x6,%eax
    5a7c:	e9 80 fa ff ff       	jmpq   5501 <_ZNK8simdjson8fallback14implementation6stage2EPKhmRNS_3dom6parserE+0x1a1>
    5a81:	0f 1f 80 00 00 00 00 	nopl   0x0(%rax)
    5a88:	4c 89 fa             	mov    %r15,%rdx
    5a8b:	48 29 ca             	sub    %rcx,%rdx
    5a8e:	48 83 fa 05          	cmp    $0x5,%rdx
    5a92:	0f 86 28 13 00 00    	jbe    6dc0 <_ZNK8simdjson8fallback14implementation6stage2EPKhmRNS_3dom6parserE+0x1a60>
    5a98:	8b 46 01             	mov    0x1(%rsi),%eax
    5a9b:	0f b6 4e 05          	movzbl 0x5(%rsi),%ecx
    5a9f:	48 8d 15 ba 05 02 00 	lea    0x205ba(%rip),%rdx        # 26060 <_ZN8simdjsonL32structural_or_whitespace_negatedE>
    5aa6:	35 61 6c 73 65       	xor    $0x65736c61,%eax
    5aab:	0b 04 8a             	or     (%rdx,%rcx,4),%eax
    5aae:	0f 94 c0             	sete   %al
    5ab1:	84 c0                	test   %al,%al
    5ab3:	0f 84 87 00 00 00    	je     5b40 <_ZNK8simdjson8fallback14implementation6stage2EPKhmRNS_3dom6parserE+0x7e0>
    5ab9:	48 8b 43 28          	mov    0x28(%rbx),%rax
    5abd:	c7 03 02 00 00 00    	movl   $0x2,(%rbx)
    5ac3:	48 bf 00 00 00 00 00 	movabs $0x6600000000000000,%rdi
    5aca:	00 00 66 
    5acd:	41 bf 01 00 00 00    	mov    $0x1,%r15d
    5ad3:	41 b8 01 00 00 00    	mov    $0x1,%r8d
    5ad9:	48 89 78 08          	mov    %rdi,0x8(%rax)
    5add:	e9 a8 f9 ff ff       	jmpq   548a <_ZNK8simdjson8fallback14implementation6stage2EPKhmRNS_3dom6parserE+0x12a>
    5ae2:	66 0f 1f 44 00 00    	nopw   0x0(%rax,%rax,1)
    5ae8:	4c 89 fa             	mov    %r15,%rdx
    5aeb:	48 29 ca             	sub    %rcx,%rdx
    5aee:	48 83 fa 04          	cmp    $0x4,%rdx
    5af2:	0f 86 dd 12 00 00    	jbe    6dd5 <_ZNK8simdjson8fallback14implementation6stage2EPKhmRNS_3dom6parserE+0x1a75>
    5af8:	8b 06                	mov    (%rsi),%eax
    5afa:	0f b6 4e 04          	movzbl 0x4(%rsi),%ecx
    5afe:	48 8d 15 5b 05 02 00 	lea    0x2055b(%rip),%rdx        # 26060 <_ZN8simdjsonL32structural_or_whitespace_negatedE>
    5b05:	35 74 72 75 65       	xor    $0x65757274,%eax
    5b0a:	0b 04 8a             	or     (%rdx,%rcx,4),%eax
    5b0d:	0f 94 c0             	sete   %al
    5b10:	84 c0                	test   %al,%al
    5b12:	74 44                	je     5b58 <_ZNK8simdjson8fallback14implementation6stage2EPKhmRNS_3dom6parserE+0x7f8>
    5b14:	48 8b 43 28          	mov    0x28(%rbx),%rax
    5b18:	c7 03 02 00 00 00    	movl   $0x2,(%rbx)
    5b1e:	48 bf 00 00 00 00 00 	movabs $0x7400000000000000,%rdi
    5b25:	00 00 74 
    5b28:	41 bf 01 00 00 00    	mov    $0x1,%r15d
    5b2e:	41 b8 01 00 00 00    	mov    $0x1,%r8d
    5b34:	48 89 78 08          	mov    %rdi,0x8(%rax)
    5b38:	e9 4d f9 ff ff       	jmpq   548a <_ZNK8simdjson8fallback14implementation6stage2EPKhmRNS_3dom6parserE+0x12a>
    5b3d:	0f 1f 00             	nopl   (%rax)
    5b40:	c7 43 24 08 00 00 00 	movl   $0x8,0x24(%rbx)
    5b47:	b8 08 00 00 00       	mov    $0x8,%eax
    5b4c:	e9 b0 f9 ff ff       	jmpq   5501 <_ZNK8simdjson8fallback14implementation6stage2EPKhmRNS_3dom6parserE+0x1a1>
    5b51:	0f 1f 80 00 00 00 00 	nopl   0x0(%rax)
    5b58:	c7 43 24 07 00 00 00 	movl   $0x7,0x24(%rbx)
    5b5f:	b8 07 00 00 00       	mov    $0x7,%eax
    5b64:	e9 98 f9 ff ff       	jmpq   5501 <_ZNK8simdjson8fallback14implementation6stage2EPKhmRNS_3dom6parserE+0x1a1>
    5b69:	0f 1f 80 00 00 00 00 	nopl   0x0(%rax)
    5b70:	4c 89 fa             	mov    %r15,%rdx
    5b73:	48 29 ca             	sub    %rcx,%rdx
    5b76:	48 83 fa 04          	cmp    $0x4,%rdx
    5b7a:	0f 86 69 12 00 00    	jbe    6de9 <_ZNK8simdjson8fallback14implementation6stage2EPKhmRNS_3dom6parserE+0x1a89>
    5b80:	8b 06                	mov    (%rsi),%eax
    5b82:	0f b6 4e 04          	movzbl 0x4(%rsi),%ecx
    5b86:	48 8d 15 d3 04 02 00 	lea    0x204d3(%rip),%rdx        # 26060 <_ZN8simdjsonL32structural_or_whitespace_negatedE>
    5b8d:	35 6e 75 6c 6c       	xor    $0x6c6c756e,%eax
    5b92:	0b 04 8a             	or     (%rdx,%rcx,4),%eax
    5b95:	0f 94 c0             	sete   %al
    5b98:	84 c0                	test   %al,%al
    5b9a:	74 2c                	je     5bc8 <_ZNK8simdjson8fallback14implementation6stage2EPKhmRNS_3dom6parserE+0x868>
    5b9c:	48 8b 43 28          	mov    0x28(%rbx),%rax
    5ba0:	c7 03 02 00 00 00    	movl   $0x2,(%rbx)
    5ba6:	48 bf 00 00 00 00 00 	movabs $0x6e00000000000000,%rdi
    5bad:	00 00 6e 
    5bb0:	41 bf 01 00 00 00    	mov    $0x1,%r15d
    5bb6:	41 b8 01 00 00 00    	mov    $0x1,%r8d
    5bbc:	48 89 78 08          	mov    %rdi,0x8(%rax)
    5bc0:	e9 c5 f8 ff ff       	jmpq   548a <_ZNK8simdjson8fallback14implementation6stage2EPKhmRNS_3dom6parserE+0x12a>
    5bc5:	0f 1f 00             	nopl   (%rax)
    5bc8:	c7 43 24 09 00 00 00 	movl   $0x9,0x24(%rbx)
    5bcf:	b8 09 00 00 00       	mov    $0x9,%eax
    5bd4:	e9 28 f9 ff ff       	jmpq   5501 <_ZNK8simdjson8fallback14implementation6stage2EPKhmRNS_3dom6parserE+0x1a1>
    5bd9:	41 80 fc 6e          	cmp    $0x6e,%r12b
    5bdd:	0f 84 c2 16 00 00    	je     72a5 <_ZNK8simdjson8fallback14implementation6stage2EPKhmRNS_3dom6parserE+0x1f45>
    5be3:	41 80 fc 74          	cmp    $0x74,%r12b
    5be7:	0f 84 7e 16 00 00    	je     726b <_ZNK8simdjson8fallback14implementation6stage2EPKhmRNS_3dom6parserE+0x1f0b>
    5bed:	41 80 fc 66          	cmp    $0x66,%r12b
    5bf1:	0f 85 6d fa ff ff    	jne    5664 <_ZNK8simdjson8fallback14implementation6stage2EPKhmRNS_3dom6parserE+0x304>
    5bf7:	41 8b 41 01          	mov    0x1(%r9),%eax
    5bfb:	41 0f b6 49 05       	movzbl 0x5(%r9),%ecx
    5c00:	48 8d 15 59 04 02 00 	lea    0x20459(%rip),%rdx        # 26060 <_ZN8simdjsonL32structural_or_whitespace_negatedE>
    5c07:	35 61 6c 73 65       	xor    $0x65736c61,%eax
    5c0c:	0b 04 8a             	or     (%rdx,%rcx,4),%eax
    5c0f:	0f 85 4f fa ff ff    	jne    5664 <_ZNK8simdjson8fallback14implementation6stage2EPKhmRNS_3dom6parserE+0x304>
    5c15:	8b 03                	mov    (%rbx),%eax
    5c17:	bf 33 00 00 00       	mov    $0x33,%edi
    5c1c:	48 c1 e7 39          	shl    $0x39,%rdi
    5c20:	8d 50 01             	lea    0x1(%rax),%edx
    5c23:	89 13                	mov    %edx,(%rbx)
    5c25:	48 8b 53 28          	mov    0x28(%rbx),%rdx
    5c29:	48 89 3c c2          	mov    %rdi,(%rdx,%rax,8)
    5c2d:	4a 8d 04 85 00 00 00 	lea    0x0(,%r8,4),%rax
    5c34:	00 
    5c35:	49 83 c0 01          	add    $0x1,%r8
    5c39:	41 8b 54 05 00       	mov    0x0(%r13,%rax,1),%edx
    5c3e:	44 0f b6 64 15 00    	movzbl 0x0(%rbp,%rdx,1),%r12d
    5c44:	41 80 fc 2c          	cmp    $0x2c,%r12b
    5c48:	0f 84 d0 17 00 00    	je     741e <_ZNK8simdjson8fallback14implementation6stage2EPKhmRNS_3dom6parserE+0x20be>
    5c4e:	41 80 fc 5d          	cmp    $0x5d,%r12b
    5c52:	0f 85 0c fa ff ff    	jne    5664 <_ZNK8simdjson8fallback14implementation6stage2EPKhmRNS_3dom6parserE+0x304>
    5c58:	41 83 ef 01          	sub    $0x1,%r15d
    5c5c:	8b 13                	mov    (%rbx),%edx
    5c5e:	4c 8b 4b 10          	mov    0x10(%rbx),%r9
    5c62:	49 ba 00 00 00 00 00 	movabs $0x5d00000000000000,%r10
    5c69:	00 00 5d 
    5c6c:	44 89 f8             	mov    %r15d,%eax
    5c6f:	48 8b 73 28          	mov    0x28(%rbx),%rsi
    5c73:	48 c1 e0 03          	shl    $0x3,%rax
    5c77:	8d 4a 01             	lea    0x1(%rdx),%ecx
    5c7a:	49 01 c1             	add    %rax,%r9
    5c7d:	41 8b 39             	mov    (%r9),%edi
    5c80:	89 0b                	mov    %ecx,(%rbx)
    5c82:	49 09 fa             	or     %rdi,%r10
    5c85:	41 81 79 04 ff ff ff 	cmpl   $0xffffff,0x4(%r9)
    5c8c:	00 
    5c8d:	4c 89 14 d6          	mov    %r10,(%rsi,%rdx,8)
    5c91:	ba ff ff ff 00       	mov    $0xffffff,%edx
    5c96:	41 0f 46 51 04       	cmovbe 0x4(%r9),%edx
    5c9b:	48 c1 e2 20          	shl    $0x20,%rdx
    5c9f:	48 09 ca             	or     %rcx,%rdx
    5ca2:	48 09 14 fe          	or     %rdx,(%rsi,%rdi,8)
    5ca6:	48 8b 53 18          	mov    0x18(%rbx),%rdx
    5caa:	ff 24 02             	jmpq   *(%rdx,%rax,1)
    5cad:	41 0f b6 01          	movzbl (%r9),%eax
    5cb1:	3c 30                	cmp    $0x30,%al
    5cb3:	0f 84 3e 15 00 00    	je     71f7 <_ZNK8simdjson8fallback14implementation6stage2EPKhmRNS_3dom6parserE+0x1e97>
    5cb9:	83 e8 30             	sub    $0x30,%eax
    5cbc:	3c 09                	cmp    $0x9,%al
    5cbe:	0f 87 a0 f9 ff ff    	ja     5664 <_ZNK8simdjson8fallback14implementation6stage2EPKhmRNS_3dom6parserE+0x304>
    5cc4:	41 0f b6 71 01       	movzbl 0x1(%r9),%esi
    5cc9:	0f b6 c0             	movzbl %al,%eax
    5ccc:	49 8d 51 01          	lea    0x1(%r9),%rdx
    5cd0:	8d 4e d0             	lea    -0x30(%rsi),%ecx
    5cd3:	80 f9 09             	cmp    $0x9,%cl
    5cd6:	77 1a                	ja     5cf2 <_ZNK8simdjson8fallback14implementation6stage2EPKhmRNS_3dom6parserE+0x992>
    5cd8:	48 83 c2 01          	add    $0x1,%rdx
    5cdc:	0f b6 32             	movzbl (%rdx),%esi
    5cdf:	0f b6 c9             	movzbl %cl,%ecx
    5ce2:	48 8d 04 80          	lea    (%rax,%rax,4),%rax
    5ce6:	48 8d 04 41          	lea    (%rcx,%rax,2),%rax
    5cea:	8d 4e d0             	lea    -0x30(%rsi),%ecx
    5ced:	80 f9 09             	cmp    $0x9,%cl
    5cf0:	76 e6                	jbe    5cd8 <_ZNK8simdjson8fallback14implementation6stage2EPKhmRNS_3dom6parserE+0x978>
    5cf2:	40 80 fe 2e          	cmp    $0x2e,%sil
    5cf6:	0f 84 66 19 00 00    	je     7662 <_ZNK8simdjson8fallback14implementation6stage2EPKhmRNS_3dom6parserE+0x2302>
    5cfc:	49 89 d2             	mov    %rdx,%r10
    5cff:	83 e6 df             	and    $0xffffffdf,%esi
    5d02:	4d 29 ca             	sub    %r9,%r10
    5d05:	41 83 ea 01          	sub    $0x1,%r10d
    5d09:	40 80 fe 45          	cmp    $0x45,%sil
    5d0d:	0f 84 62 17 00 00    	je     7475 <_ZNK8simdjson8fallback14implementation6stage2EPKhmRNS_3dom6parserE+0x2115>
    5d13:	41 83 fa 11          	cmp    $0x11,%r10d
    5d17:	0f 8f 73 26 00 00    	jg     8390 <_ZNK8simdjson8fallback14implementation6stage2EPKhmRNS_3dom6parserE+0x3030>
    5d1d:	49 bb 00 00 00 00 00 	movabs $0x6c00000000000000,%r11
    5d24:	00 00 6c 
    5d27:	8b 33                	mov    (%rbx),%esi
    5d29:	48 8b 7b 28          	mov    0x28(%rbx),%rdi
    5d2d:	8d 4e 01             	lea    0x1(%rsi),%ecx
    5d30:	89 0b                	mov    %ecx,(%rbx)
    5d32:	4c 89 1c f7          	mov    %r11,(%rdi,%rsi,8)
    5d36:	48 89 04 cf          	mov    %rax,(%rdi,%rcx,8)
    5d3a:	48 8d 05 1f ff 01 00 	lea    0x1ff1f(%rip),%rax        # 25c60 <_ZN8simdjsonL24structural_or_whitespaceE>
    5d41:	83 03 01             	addl   $0x1,(%rbx)
    5d44:	0f b6 12             	movzbl (%rdx),%edx
    5d47:	83 3c 90 00          	cmpl   $0x0,(%rax,%rdx,4)
    5d4b:	0f 95 c0             	setne  %al
    5d4e:	84 c0                	test   %al,%al
    5d50:	0f 85 d7 fe ff ff    	jne    5c2d <_ZNK8simdjson8fallback14implementation6stage2EPKhmRNS_3dom6parserE+0x8cd>
    5d56:	e9 09 f9 ff ff       	jmpq   5664 <_ZNK8simdjson8fallback14implementation6stage2EPKhmRNS_3dom6parserE+0x304>
    5d5b:	0f 1f 44 00 00       	nopl   0x0(%rax,%rax,1)
    5d60:	48 b8 00 00 00 00 00 	movabs $0x2200000000000000,%rax
    5d67:	00 00 22 
    5d6a:	4c 89 f2             	mov    %r14,%rdx
    5d6d:	48 2b 53 30          	sub    0x30(%rbx),%rdx
    5d71:	48 09 c2             	or     %rax,%rdx
    5d74:	8b 03                	mov    (%rbx),%eax
    5d76:	4c 8d 0d c3 b3 01 00 	lea    0x1b3c3(%rip),%r9        # 21140 <_ZN8simdjson7haswell13stringparsingL10escape_mapE>
    5d7d:	8d 70 01             	lea    0x1(%rax),%esi
    5d80:	89 33                	mov    %esi,(%rbx)
    5d82:	48 8b 73 28          	mov    0x28(%rbx),%rsi
    5d86:	48 89 14 c6          	mov    %rdx,(%rsi,%rax,8)
    5d8a:	49 8d 56 04          	lea    0x4(%r14),%rdx
    5d8e:	48 8d 44 0d 01       	lea    0x1(%rbp,%rcx,1),%rax
    5d93:	48 89 14 24          	mov    %rdx,(%rsp)
    5d97:	0f b6 08             	movzbl (%rax),%ecx
    5d9a:	48 8d 35 df f0 01 00 	lea    0x1f0df(%rip),%rsi        # 24e80 <_ZN8simdjsonL14digit_to_val32E>
    5da1:	0f 1f 80 00 00 00 00 	nopl   0x0(%rax)
    5da8:	88 0a                	mov    %cl,(%rdx)
    5daa:	80 f9 22             	cmp    $0x22,%cl
    5dad:	74 1e                	je     5dcd <_ZNK8simdjson8fallback14implementation6stage2EPKhmRNS_3dom6parserE+0xa6d>
    5daf:	0f b6 78 01          	movzbl 0x1(%rax),%edi
    5db3:	80 f9 5c             	cmp    $0x5c,%cl
    5db6:	0f 84 94 04 00 00    	je     6250 <_ZNK8simdjson8fallback14implementation6stage2EPKhmRNS_3dom6parserE+0xef0>
    5dbc:	48 83 c2 01          	add    $0x1,%rdx
    5dc0:	89 f9                	mov    %edi,%ecx
    5dc2:	48 83 c0 01          	add    $0x1,%rax
    5dc6:	88 0a                	mov    %cl,(%rdx)
    5dc8:	80 f9 22             	cmp    $0x22,%cl
    5dcb:	75 e2                	jne    5daf <_ZNK8simdjson8fallback14implementation6stage2EPKhmRNS_3dom6parserE+0xa4f>
    5dcd:	48 89 d0             	mov    %rdx,%rax
    5dd0:	48 2b 04 24          	sub    (%rsp),%rax
    5dd4:	41 89 06             	mov    %eax,(%r14)
    5dd7:	4c 8d 72 01          	lea    0x1(%rdx),%r14
    5ddb:	c6 02 00             	movb   $0x0,(%rdx)
    5dde:	e9 4a fe ff ff       	jmpq   5c2d <_ZNK8simdjson8fallback14implementation6stage2EPKhmRNS_3dom6parserE+0x8cd>
    5de3:	41 0f b6 49 01       	movzbl 0x1(%r9),%ecx
    5de8:	8d 41 d0             	lea    -0x30(%rcx),%eax
    5deb:	3c 09                	cmp    $0x9,%al
    5ded:	0f 87 71 f8 ff ff    	ja     5664 <_ZNK8simdjson8fallback14implementation6stage2EPKhmRNS_3dom6parserE+0x304>
    5df3:	49 8d 51 02          	lea    0x2(%r9),%rdx
    5df7:	41 0f b6 79 02       	movzbl 0x2(%r9),%edi
    5dfc:	80 f9 30             	cmp    $0x30,%cl
    5dff:	0f 84 54 16 00 00    	je     7459 <_ZNK8simdjson8fallback14implementation6stage2EPKhmRNS_3dom6parserE+0x20f9>
    5e05:	8d 4f d0             	lea    -0x30(%rdi),%ecx
    5e08:	0f b6 c0             	movzbl %al,%eax
    5e0b:	80 f9 09             	cmp    $0x9,%cl
    5e0e:	77 1a                	ja     5e2a <_ZNK8simdjson8fallback14implementation6stage2EPKhmRNS_3dom6parserE+0xaca>
    5e10:	48 83 c2 01          	add    $0x1,%rdx
    5e14:	0f b6 3a             	movzbl (%rdx),%edi
    5e17:	0f b6 c9             	movzbl %cl,%ecx
    5e1a:	48 8d 04 80          	lea    (%rax,%rax,4),%rax
    5e1e:	48 8d 04 41          	lea    (%rcx,%rax,2),%rax
    5e22:	8d 4f d0             	lea    -0x30(%rdi),%ecx
    5e25:	80 f9 09             	cmp    $0x9,%cl
    5e28:	76 e6                	jbe    5e10 <_ZNK8simdjson8fallback14implementation6stage2EPKhmRNS_3dom6parserE+0xab0>
    5e2a:	4d 8d 51 01          	lea    0x1(%r9),%r10
    5e2e:	40 80 ff 2e          	cmp    $0x2e,%dil
    5e32:	0f 84 a7 14 00 00    	je     72df <_ZNK8simdjson8fallback14implementation6stage2EPKhmRNS_3dom6parserE+0x1f7f>
    5e38:	83 e7 df             	and    $0xffffffdf,%edi
    5e3b:	48 89 d6             	mov    %rdx,%rsi
    5e3e:	48 89 d1             	mov    %rdx,%rcx
    5e41:	4c 29 d6             	sub    %r10,%rsi
    5e44:	41 89 fb             	mov    %edi,%r11d
    5e47:	31 ff                	xor    %edi,%edi
    5e49:	83 ee 01             	sub    $0x1,%esi
    5e4c:	41 80 fb 45          	cmp    $0x45,%r11b
    5e50:	0f 85 87 1b 00 00    	jne    79dd <_ZNK8simdjson8fallback14implementation6stage2EPKhmRNS_3dom6parserE+0x267d>
    5e56:	0f b6 51 01          	movzbl 0x1(%rcx),%edx
    5e5a:	80 fa 2d             	cmp    $0x2d,%dl
    5e5d:	0f 84 19 1c 00 00    	je     7a7c <_ZNK8simdjson8fallback14implementation6stage2EPKhmRNS_3dom6parserE+0x271c>
    5e63:	80 fa 2b             	cmp    $0x2b,%dl
    5e66:	0f 84 7e 1d 00 00    	je     7bea <_ZNK8simdjson8fallback14implementation6stage2EPKhmRNS_3dom6parserE+0x288a>
    5e6c:	c6 04 24 00          	movb   $0x0,(%rsp)
    5e70:	48 83 c1 01          	add    $0x1,%rcx
    5e74:	0f b6 11             	movzbl (%rcx),%edx
    5e77:	83 ea 30             	sub    $0x30,%edx
    5e7a:	80 fa 09             	cmp    $0x9,%dl
    5e7d:	0f 87 e1 f7 ff ff    	ja     5664 <_ZNK8simdjson8fallback14implementation6stage2EPKhmRNS_3dom6parserE+0x304>
    5e83:	44 0f b6 59 01       	movzbl 0x1(%rcx),%r11d
    5e88:	0f b6 d2             	movzbl %dl,%edx
    5e8b:	41 83 eb 30          	sub    $0x30,%r11d
    5e8f:	41 80 fb 09          	cmp    $0x9,%r11b
    5e93:	0f 86 1a 1d 00 00    	jbe    7bb3 <_ZNK8simdjson8fallback14implementation6stage2EPKhmRNS_3dom6parserE+0x2853>
    5e99:	48 83 c1 01          	add    $0x1,%rcx
    5e9d:	44 0f b6 19          	movzbl (%rcx),%r11d
    5ea1:	41 83 eb 30          	sub    $0x30,%r11d
    5ea5:	41 80 fb 09          	cmp    $0x9,%r11b
    5ea9:	0f 86 d0 1a 00 00    	jbe    797f <_ZNK8simdjson8fallback14implementation6stage2EPKhmRNS_3dom6parserE+0x261f>
    5eaf:	80 3c 24 00          	cmpb   $0x0,(%rsp)
    5eb3:	74 03                	je     5eb8 <_ZNK8simdjson8fallback14implementation6stage2EPKhmRNS_3dom6parserE+0xb58>
    5eb5:	48 f7 da             	neg    %rdx
    5eb8:	48 01 d7             	add    %rdx,%rdi
    5ebb:	83 fe 12             	cmp    $0x12,%esi
    5ebe:	0f 8f cc 25 00 00    	jg     8490 <_ZNK8simdjson8fallback14implementation6stage2EPKhmRNS_3dom6parserE+0x3130>
    5ec4:	48 8d b7 45 01 00 00 	lea    0x145(%rdi),%rsi
    5ecb:	48 81 fe 79 02 00 00 	cmp    $0x279,%rsi
    5ed2:	0f 86 d3 1b 00 00    	jbe    7aab <_ZNK8simdjson8fallback14implementation6stage2EPKhmRNS_3dom6parserE+0x274b>
    5ed8:	48 89 de             	mov    %rbx,%rsi
    5edb:	4c 89 cf             	mov    %r9,%rdi
    5ede:	4c 89 04 24          	mov    %r8,(%rsp)
    5ee2:	e8 79 e1 ff ff       	callq  4060 <_ZN8simdjson8fallback13numberparsing18slow_float_parsingINS0_6stage213number_writerEEEbPKcT_@plt>
    5ee7:	4c 8b 04 24          	mov    (%rsp),%r8
    5eeb:	e9 5e fe ff ff       	jmpq   5d4e <_ZNK8simdjson8fallback14implementation6stage2EPKhmRNS_3dom6parserE+0x9ee>
    5ef0:	48 bf 00 00 00 00 00 	movabs $0x7b00000000000000,%rdi
    5ef7:	00 00 7b 
    5efa:	8b 03                	mov    (%rbx),%eax
    5efc:	44 89 f9             	mov    %r15d,%ecx
    5eff:	41 83 c7 01          	add    $0x1,%r15d
    5f03:	48 8d 14 ca          	lea    (%rdx,%rcx,8),%rdx
    5f07:	89 02                	mov    %eax,(%rdx)
    5f09:	c7 42 04 00 00 00 00 	movl   $0x0,0x4(%rdx)
    5f10:	8d 50 01             	lea    0x1(%rax),%edx
    5f13:	89 13                	mov    %edx,(%rbx)
    5f15:	48 8b 53 28          	mov    0x28(%rbx),%rdx
    5f19:	48 89 3c c2          	mov    %rdi,(%rdx,%rax,8)
    5f1d:	48 8b 43 18          	mov    0x18(%rbx),%rax
    5f21:	48 8d 3d 05 fd ff ff 	lea    -0x2fb(%rip),%rdi        # 5c2d <_ZNK8simdjson8fallback14implementation6stage2EPKhmRNS_3dom6parserE+0x8cd>
    5f28:	48 89 3c c8          	mov    %rdi,(%rax,%rcx,8)
    5f2c:	44 89 f8             	mov    %r15d,%eax
    5f2f:	48 3b 43 48          	cmp    0x48(%rbx),%rax
    5f33:	0f 83 2b f7 ff ff    	jae    5664 <_ZNK8simdjson8fallback14implementation6stage2EPKhmRNS_3dom6parserE+0x304>
    5f39:	43 8b 44 85 00       	mov    0x0(%r13,%r8,4),%eax
    5f3e:	49 83 c0 01          	add    $0x1,%r8
    5f42:	44 0f b6 64 05 00    	movzbl 0x0(%rbp,%rax,1),%r12d
    5f48:	41 80 fc 22          	cmp    $0x22,%r12b
    5f4c:	0f 84 5e 03 00 00    	je     62b0 <_ZNK8simdjson8fallback14implementation6stage2EPKhmRNS_3dom6parserE+0xf50>
    5f52:	41 80 fc 7d          	cmp    $0x7d,%r12b
    5f56:	0f 84 89 f6 ff ff    	je     55e5 <_ZNK8simdjson8fallback14implementation6stage2EPKhmRNS_3dom6parserE+0x285>
    5f5c:	e9 03 f7 ff ff       	jmpq   5664 <_ZNK8simdjson8fallback14implementation6stage2EPKhmRNS_3dom6parserE+0x304>
    5f61:	48 bf 00 00 00 00 00 	movabs $0x5b00000000000000,%rdi
    5f68:	00 00 5b 
    5f6b:	8b 03                	mov    (%rbx),%eax
    5f6d:	44 89 f9             	mov    %r15d,%ecx
    5f70:	48 8d 14 ca          	lea    (%rdx,%rcx,8),%rdx
    5f74:	89 02                	mov    %eax,(%rdx)
    5f76:	c7 42 04 00 00 00 00 	movl   $0x0,0x4(%rdx)
    5f7d:	8d 50 01             	lea    0x1(%rax),%edx
    5f80:	89 13                	mov    %edx,(%rbx)
    5f82:	48 8b 53 28          	mov    0x28(%rbx),%rdx
    5f86:	48 89 3c c2          	mov    %rdi,(%rdx,%rax,8)
    5f8a:	48 8b 43 18          	mov    0x18(%rbx),%rax
    5f8e:	48 8d 3d 98 fc ff ff 	lea    -0x368(%rip),%rdi        # 5c2d <_ZNK8simdjson8fallback14implementation6stage2EPKhmRNS_3dom6parserE+0x8cd>
    5f95:	48 89 3c c8          	mov    %rdi,(%rax,%rcx,8)
    5f99:	41 8d 47 01          	lea    0x1(%r15),%eax
    5f9d:	49 89 c7             	mov    %rax,%r15
    5fa0:	48 3b 43 48          	cmp    0x48(%rbx),%rax
    5fa4:	0f 82 51 f7 ff ff    	jb     56fb <_ZNK8simdjson8fallback14implementation6stage2EPKhmRNS_3dom6parserE+0x39b>
    5faa:	e9 b5 f6 ff ff       	jmpq   5664 <_ZNK8simdjson8fallback14implementation6stage2EPKhmRNS_3dom6parserE+0x304>
    5faf:	0f b6 7a 01          	movzbl 0x1(%rdx),%edi
    5fb3:	8d 77 d0             	lea    -0x30(%rdi),%esi
    5fb6:	40 80 fe 09          	cmp    $0x9,%sil
    5fba:	0f 87 a4 f6 ff ff    	ja     5664 <_ZNK8simdjson8fallback14implementation6stage2EPKhmRNS_3dom6parserE+0x304>
    5fc0:	48 6b c0 0a          	imul   $0xa,%rax,%rax
    5fc4:	40 0f b6 f6          	movzbl %sil,%esi
    5fc8:	48 8b 7a 02          	mov    0x2(%rdx),%rdi
    5fcc:	48 8d 4a 02          	lea    0x2(%rdx),%rcx
    5fd0:	49 ba 0f 0f 0f 0f 0f 	movabs $0xf0f0f0f0f0f0f0f,%r10
    5fd7:	0f 0f 0f 
    5fda:	48 01 f0             	add    %rsi,%rax
    5fdd:	48 be 06 06 06 06 06 	movabs $0x606060606060606,%rsi
    5fe4:	06 06 06 
    5fe7:	48 01 fe             	add    %rdi,%rsi
    5fea:	48 c1 ee 04          	shr    $0x4,%rsi
    5fee:	4c 21 d6             	and    %r10,%rsi
    5ff1:	49 ba f0 f0 f0 f0 f0 	movabs $0xf0f0f0f0f0f0f0f0,%r10
    5ff8:	f0 f0 f0 
    5ffb:	4c 21 d7             	and    %r10,%rdi
    5ffe:	48 09 f7             	or     %rsi,%rdi
    6001:	48 be 33 33 33 33 33 	movabs $0x3333333333333333,%rsi
    6008:	33 33 33 
    600b:	48 39 f7             	cmp    %rsi,%rdi
    600e:	75 14                	jne    6024 <_ZNK8simdjson8fallback14implementation6stage2EPKhmRNS_3dom6parserE+0xcc4>
    6010:	e9 bd 23 00 00       	jmpq   83d2 <_ZNK8simdjson8fallback14implementation6stage2EPKhmRNS_3dom6parserE+0x3072>
    6015:	48 6b c0 0a          	imul   $0xa,%rax,%rax
    6019:	40 0f b6 ff          	movzbl %dil,%edi
    601d:	48 83 c1 01          	add    $0x1,%rcx
    6021:	48 01 f8             	add    %rdi,%rax
    6024:	0f b6 31             	movzbl (%rcx),%esi
    6027:	8d 7e d0             	lea    -0x30(%rsi),%edi
    602a:	40 80 ff 09          	cmp    $0x9,%dil
    602e:	76 e5                	jbe    6015 <_ZNK8simdjson8fallback14implementation6stage2EPKhmRNS_3dom6parserE+0xcb5>
    6030:	48 89 cf             	mov    %rcx,%rdi
    6033:	48 83 c2 01          	add    $0x1,%rdx
    6037:	83 e6 df             	and    $0xffffffdf,%esi
    603a:	4c 29 cf             	sub    %r9,%rdi
    603d:	48 29 ca             	sub    %rcx,%rdx
    6040:	83 ef 01             	sub    $0x1,%edi
    6043:	40 80 fe 45          	cmp    $0x45,%sil
    6047:	0f 84 ac 05 00 00    	je     65f9 <_ZNK8simdjson8fallback14implementation6stage2EPKhmRNS_3dom6parserE+0x1299>
    604d:	83 ff 12             	cmp    $0x12,%edi
    6050:	0f 8f 54 23 00 00    	jg     83aa <_ZNK8simdjson8fallback14implementation6stage2EPKhmRNS_3dom6parserE+0x304a>
    6056:	48 8d ba 45 01 00 00 	lea    0x145(%rdx),%rdi
    605d:	48 81 ff 79 02 00 00 	cmp    $0x279,%rdi
    6064:	0f 87 71 1d 00 00    	ja     7ddb <_ZNK8simdjson8fallback14implementation6stage2EPKhmRNS_3dom6parserE+0x2a7b>
    606a:	48 8d 4a 16          	lea    0x16(%rdx),%rcx
    606e:	48 83 f9 2c          	cmp    $0x2c,%rcx
    6072:	0f 87 c0 22 00 00    	ja     8338 <_ZNK8simdjson8fallback14implementation6stage2EPKhmRNS_3dom6parserE+0x2fd8>
    6078:	48 b9 ff ff ff ff ff 	movabs $0x1fffffffffffff,%rcx
    607f:	ff 1f 00 
    6082:	48 39 c8             	cmp    %rcx,%rax
    6085:	0f 86 81 22 00 00    	jbe    830c <_ZNK8simdjson8fallback14implementation6stage2EPKhmRNS_3dom6parserE+0x2fac>
    608b:	48 89 f9             	mov    %rdi,%rcx
    608e:	48 8d 15 8b c5 01 00 	lea    0x1c58b(%rip),%rdx        # 22620 <_ZN8simdjsonL23power_of_ten_componentsE>
    6095:	48 c1 e1 04          	shl    $0x4,%rcx
    6099:	4c 8d 14 0a          	lea    (%rdx,%rcx,1),%r10
    609d:	48 0f bd c8          	bsr    %rax,%rcx
    60a1:	48 83 f1 3f          	xor    $0x3f,%rcx
    60a5:	41 8b 72 08          	mov    0x8(%r10),%esi
    60a9:	48 d3 e0             	shl    %cl,%rax
    60ac:	48 89 04 24          	mov    %rax,(%rsp)
    60b0:	49 f7 22             	mulq   (%r10)
    60b3:	89 74 24 08          	mov    %esi,0x8(%rsp)
    60b7:	89 ce                	mov    %ecx,%esi
    60b9:	49 89 c1             	mov    %rax,%r9
    60bc:	48 89 d0             	mov    %rdx,%rax
    60bf:	49 89 d2             	mov    %rdx,%r10
    60c2:	25 ff 01 00 00       	and    $0x1ff,%eax
    60c7:	48 3d ff 01 00 00    	cmp    $0x1ff,%rax
    60cd:	0f 84 05 22 00 00    	je     82d8 <_ZNK8simdjson8fallback14implementation6stage2EPKhmRNS_3dom6parserE+0x2f78>
    60d3:	4c 89 d2             	mov    %r10,%rdx
    60d6:	4c 89 d0             	mov    %r10,%rax
    60d9:	41 81 e2 ff 01 00 00 	and    $0x1ff,%r10d
    60e0:	48 c1 ea 3f          	shr    $0x3f,%rdx
    60e4:	8d 4a 09             	lea    0x9(%rdx),%ecx
    60e7:	83 f2 01             	xor    $0x1,%edx
    60ea:	48 d3 e8             	shr    %cl,%rax
    60ed:	01 d6                	add    %edx,%esi
    60ef:	4d 09 ca             	or     %r9,%r10
    60f2:	0f 84 7d 21 00 00    	je     8275 <_ZNK8simdjson8fallback14implementation6stage2EPKhmRNS_3dom6parserE+0x2f15>
    60f8:	48 ba ff ff ff ff ff 	movabs $0x1fffffffffffff,%rdx
    60ff:	ff 1f 00 
    6102:	48 83 c0 01          	add    $0x1,%rax
    6106:	48 d1 e8             	shr    %rax
    6109:	48 39 d0             	cmp    %rdx,%rax
    610c:	76 0c                	jbe    611a <_ZNK8simdjson8fallback14implementation6stage2EPKhmRNS_3dom6parserE+0xdba>
    610e:	b8 01 00 00 00       	mov    $0x1,%eax
    6113:	83 ee 01             	sub    $0x1,%esi
    6116:	48 c1 e0 34          	shl    $0x34,%rax
    611a:	48 0f ba f0 34       	btr    $0x34,%rax
    611f:	48 89 c2             	mov    %rax,%rdx
    6122:	8b 44 24 08          	mov    0x8(%rsp),%eax
    6126:	29 f0                	sub    %esi,%eax
    6128:	48 98                	cltq   
    612a:	48 8d 48 ff          	lea    -0x1(%rax),%rcx
    612e:	48 81 f9 fd 07 00 00 	cmp    $0x7fd,%rcx
    6135:	0f 87 4a 21 00 00    	ja     8285 <_ZNK8simdjson8fallback14implementation6stage2EPKhmRNS_3dom6parserE+0x2f25>
    613b:	48 c1 e0 34          	shl    $0x34,%rax
    613f:	48 09 d0             	or     %rdx,%rax
    6142:	48 0f ba e8 3f       	bts    $0x3f,%rax
    6147:	8b 33                	mov    (%rbx),%esi
    6149:	48 8b 4b 28          	mov    0x28(%rbx),%rcx
    614d:	bf 19 00 00 00       	mov    $0x19,%edi
    6152:	48 c1 e7 3a          	shl    $0x3a,%rdi
    6156:	48 89 f2             	mov    %rsi,%rdx
    6159:	48 89 3c f1          	mov    %rdi,(%rcx,%rsi,8)
    615d:	8d 76 02             	lea    0x2(%rsi),%esi
    6160:	83 c2 01             	add    $0x1,%edx
    6163:	89 33                	mov    %esi,(%rbx)
    6165:	48 89 04 d1          	mov    %rax,(%rcx,%rdx,8)
    6169:	4a 8d 14 85 00 00 00 	lea    0x0(,%r8,4),%rdx
    6170:	00 
    6171:	49 83 c0 01          	add    $0x1,%r8
    6175:	41 8b 44 15 00       	mov    0x0(%r13,%rdx,1),%eax
    617a:	44 0f b6 64 05 00    	movzbl 0x0(%rbp,%rax,1),%r12d
    6180:	41 80 fc 2c          	cmp    $0x2c,%r12b
    6184:	0f 84 e5 15 00 00    	je     776f <_ZNK8simdjson8fallback14implementation6stage2EPKhmRNS_3dom6parserE+0x240f>
    618a:	41 80 fc 7d          	cmp    $0x7d,%r12b
    618e:	0f 85 d0 f4 ff ff    	jne    5664 <_ZNK8simdjson8fallback14implementation6stage2EPKhmRNS_3dom6parserE+0x304>
    6194:	41 83 ef 01          	sub    $0x1,%r15d
    6198:	8b 13                	mov    (%rbx),%edx
    619a:	4c 8b 4b 10          	mov    0x10(%rbx),%r9
    619e:	49 ba 00 00 00 00 00 	movabs $0x7d00000000000000,%r10
    61a5:	00 00 7d 
    61a8:	44 89 f8             	mov    %r15d,%eax
    61ab:	48 8b 73 28          	mov    0x28(%rbx),%rsi
    61af:	48 c1 e0 03          	shl    $0x3,%rax
    61b3:	8d 4a 01             	lea    0x1(%rdx),%ecx
    61b6:	49 01 c1             	add    %rax,%r9
    61b9:	41 8b 39             	mov    (%r9),%edi
    61bc:	89 0b                	mov    %ecx,(%rbx)
    61be:	e9 bf fa ff ff       	jmpq   5c82 <_ZNK8simdjson8fallback14implementation6stage2EPKhmRNS_3dom6parserE+0x922>
    61c3:	49 83 c1 01          	add    $0x1,%r9
    61c7:	0f 85 ee 1c 00 00    	jne    7ebb <_ZNK8simdjson8fallback14implementation6stage2EPKhmRNS_3dom6parserE+0x2b5b>
    61cd:	48 01 c1             	add    %rax,%rcx
    61d0:	0f 83 e5 1c 00 00    	jae    7ebb <_ZNK8simdjson8fallback14implementation6stage2EPKhmRNS_3dom6parserE+0x2b5b>
    61d6:	48 8d 74 24 28       	lea    0x28(%rsp),%rsi
    61db:	48 89 ef             	mov    %rbp,%rdi
    61de:	e8 2d df ff ff       	callq  4110 <strtod@plt>
    61e3:	48 3b 6c 24 28       	cmp    0x28(%rsp),%rbp
    61e8:	74 26                	je     6210 <_ZNK8simdjson8fallback14implementation6stage2EPKhmRNS_3dom6parserE+0xeb0>
    61ea:	66 0f 28 c8          	movapd %xmm0,%xmm1
    61ee:	f2 0f 10 15 0a 12 02 	movsd  0x2120a(%rip),%xmm2        # 27400 <_ZZN8simdjson7haswell15utf8_validation13is_incompleteENS0_4simd5simd8IhEEE9max_array+0x3e0>
    61f5:	00 
    61f6:	66 48 0f 7e c2       	movq   %xmm0,%rdx
    61fb:	66 0f 54 0d 7d 0f 02 	andpd  0x20f7d(%rip),%xmm1        # 27180 <_ZZN8simdjson7haswell15utf8_validation13is_incompleteENS0_4simd5simd8IhEEE9max_array+0x160>
    6202:	00 
    6203:	66 0f 2e d1          	ucomisd %xmm1,%xmm2
    6207:	0f 83 66 0b 00 00    	jae    6d73 <_ZNK8simdjson8fallback14implementation6stage2EPKhmRNS_3dom6parserE+0x1a13>
    620d:	0f 1f 00             	nopl   (%rax)
    6210:	4c 89 e7             	mov    %r12,%rdi
    6213:	e8 88 df ff ff       	callq  41a0 <free@plt>
    6218:	48 83 7b 48 01       	cmpq   $0x1,0x48(%rbx)
    621d:	0f 86 47 f3 ff ff    	jbe    556a <_ZNK8simdjson8fallback14implementation6stage2EPKhmRNS_3dom6parserE+0x20a>
    6223:	e9 60 f7 ff ff       	jmpq   5988 <_ZNK8simdjson8fallback14implementation6stage2EPKhmRNS_3dom6parserE+0x628>
    6228:	0f 1f 84 00 00 00 00 	nopl   0x0(%rax,%rax,1)
    622f:	00 
    6230:	48 83 c2 06          	add    $0x6,%rdx
    6234:	e9 c6 f7 ff ff       	jmpq   59ff <_ZNK8simdjson8fallback14implementation6stage2EPKhmRNS_3dom6parserE+0x69f>
    6239:	0f 1f 80 00 00 00 00 	nopl   0x0(%rax)
    6240:	88 01                	mov    %al,(%rcx)
    6242:	b8 01 00 00 00       	mov    $0x1,%eax
    6247:	e9 14 f8 ff ff       	jmpq   5a60 <_ZNK8simdjson8fallback14implementation6stage2EPKhmRNS_3dom6parserE+0x700>
    624c:	0f 1f 40 00          	nopl   0x0(%rax)
    6250:	40 80 ff 75          	cmp    $0x75,%dil
    6254:	0f 84 d0 0b 00 00    	je     6e2a <_ZNK8simdjson8fallback14implementation6stage2EPKhmRNS_3dom6parserE+0x1aca>
    625a:	41 0f b6 0c 39       	movzbl (%r9,%rdi,1),%ecx
    625f:	84 c9                	test   %cl,%cl
    6261:	0f 84 fd f3 ff ff    	je     5664 <_ZNK8simdjson8fallback14implementation6stage2EPKhmRNS_3dom6parserE+0x304>
    6267:	88 0a                	mov    %cl,(%rdx)
    6269:	48 83 c0 02          	add    $0x2,%rax
    626d:	0f b6 08             	movzbl (%rax),%ecx
    6270:	48 83 c2 01          	add    $0x1,%rdx
    6274:	e9 2f fb ff ff       	jmpq   5da8 <_ZNK8simdjson8fallback14implementation6stage2EPKhmRNS_3dom6parserE+0xa48>
    6279:	0f 1f 80 00 00 00 00 	nopl   0x0(%rax)
    6280:	0f b6 45 01          	movzbl 0x1(%rbp),%eax
    6284:	4c 8d 05 b5 ad 01 00 	lea    0x1adb5(%rip),%r8        # 21040 <_ZN8simdjson7haswell13numberparsingL55structural_or_whitespace_or_exponent_or_decimal_negatedE>
    628b:	31 d2                	xor    %edx,%edx
    628d:	48 8d 4d 01          	lea    0x1(%rbp),%rcx
    6291:	41 80 3c 00 00       	cmpb   $0x0,(%r8,%rax,1)
    6296:	48 89 c6             	mov    %rax,%rsi
    6299:	0f 84 3a f5 ff ff    	je     57d9 <_ZNK8simdjson8fallback14implementation6stage2EPKhmRNS_3dom6parserE+0x479>
    629f:	e9 6c ff ff ff       	jmpq   6210 <_ZNK8simdjson8fallback14implementation6stage2EPKhmRNS_3dom6parserE+0xeb0>
    62a4:	41 bf 02 00 00 00    	mov    $0x2,%r15d
    62aa:	41 b8 02 00 00 00    	mov    $0x2,%r8d
    62b0:	48 8b 4b 10          	mov    0x10(%rbx),%rcx
    62b4:	41 8d 57 ff          	lea    -0x1(%r15),%edx
    62b8:	4d 8d 56 04          	lea    0x4(%r14),%r10
    62bc:	4c 8d 0d 7d ae 01 00 	lea    0x1ae7d(%rip),%r9        # 21140 <_ZN8simdjson7haswell13stringparsingL10escape_mapE>
    62c3:	48 8d 3d b6 eb 01 00 	lea    0x1ebb6(%rip),%rdi        # 24e80 <_ZN8simdjsonL14digit_to_val32E>
    62ca:	83 44 d1 04 01       	addl   $0x1,0x4(%rcx,%rdx,8)
    62cf:	4c 89 f1             	mov    %r14,%rcx
    62d2:	48 2b 4b 30          	sub    0x30(%rbx),%rcx
    62d6:	48 ba 00 00 00 00 00 	movabs $0x2200000000000000,%rdx
    62dd:	00 00 22 
    62e0:	48 09 d1             	or     %rdx,%rcx
    62e3:	8b 13                	mov    (%rbx),%edx
    62e5:	8d 72 01             	lea    0x1(%rdx),%esi
    62e8:	89 33                	mov    %esi,(%rbx)
    62ea:	48 8b 73 28          	mov    0x28(%rbx),%rsi
    62ee:	48 89 0c d6          	mov    %rcx,(%rsi,%rdx,8)
    62f2:	48 8d 54 05 01       	lea    0x1(%rbp,%rax,1),%rdx
    62f7:	4c 89 d1             	mov    %r10,%rcx
    62fa:	0f b6 02             	movzbl (%rdx),%eax
    62fd:	0f 1f 00             	nopl   (%rax)
    6300:	88 01                	mov    %al,(%rcx)
    6302:	3c 22                	cmp    $0x22,%al
    6304:	74 1c                	je     6322 <_ZNK8simdjson8fallback14implementation6stage2EPKhmRNS_3dom6parserE+0xfc2>
    6306:	0f b6 72 01          	movzbl 0x1(%rdx),%esi
    630a:	3c 5c                	cmp    $0x5c,%al
    630c:	0f 84 0e 04 00 00    	je     6720 <_ZNK8simdjson8fallback14implementation6stage2EPKhmRNS_3dom6parserE+0x13c0>
    6312:	48 83 c1 01          	add    $0x1,%rcx
    6316:	89 f0                	mov    %esi,%eax
    6318:	48 83 c2 01          	add    $0x1,%rdx
    631c:	88 01                	mov    %al,(%rcx)
    631e:	3c 22                	cmp    $0x22,%al
    6320:	75 e4                	jne    6306 <_ZNK8simdjson8fallback14implementation6stage2EPKhmRNS_3dom6parserE+0xfa6>
    6322:	48 89 c8             	mov    %rcx,%rax
    6325:	4c 29 d0             	sub    %r10,%rax
    6328:	41 89 06             	mov    %eax,(%r14)
    632b:	4c 8d 71 01          	lea    0x1(%rcx),%r14
    632f:	c6 01 00             	movb   $0x0,(%rcx)
    6332:	43 8b 44 85 00       	mov    0x0(%r13,%r8,4),%eax
    6337:	4a 8d 14 85 00 00 00 	lea    0x0(,%r8,4),%rdx
    633e:	00 
    633f:	44 0f b6 64 05 00    	movzbl 0x0(%rbp,%rax,1),%r12d
    6345:	41 80 fc 3a          	cmp    $0x3a,%r12b
    6349:	0f 85 15 f3 ff ff    	jne    5664 <_ZNK8simdjson8fallback14implementation6stage2EPKhmRNS_3dom6parserE+0x304>
    634f:	41 8b 4c 15 04       	mov    0x4(%r13,%rdx,1),%ecx
    6354:	49 83 c0 02          	add    $0x2,%r8
    6358:	4c 8d 5c 0d 00       	lea    0x0(%rbp,%rcx,1),%r11
    635d:	45 0f b6 23          	movzbl (%r11),%r12d
    6361:	41 8d 44 24 de       	lea    -0x22(%r12),%eax
    6366:	3c 59                	cmp    $0x59,%al
    6368:	0f 87 f6 f2 ff ff    	ja     5664 <_ZNK8simdjson8fallback14implementation6stage2EPKhmRNS_3dom6parserE+0x304>
    636e:	48 8d 15 3b 96 01 00 	lea    0x1963b(%rip),%rdx        # 1f9b0 <_fini+0x1320>
    6375:	0f b6 c0             	movzbl %al,%eax
    6378:	48 63 04 82          	movslq (%rdx,%rax,4),%rax
    637c:	48 01 d0             	add    %rdx,%rax
    637f:	ff e0                	jmpq   *%rax
    6381:	48 8b 4b 10          	mov    0x10(%rbx),%rcx
    6385:	8b 03                	mov    (%rbx),%eax
    6387:	44 89 fa             	mov    %r15d,%edx
    638a:	bf 7b 00 00 00       	mov    $0x7b,%edi
    638f:	48 c1 e7 38          	shl    $0x38,%rdi
    6393:	41 83 c7 01          	add    $0x1,%r15d
    6397:	48 8d 0c d1          	lea    (%rcx,%rdx,8),%rcx
    639b:	89 01                	mov    %eax,(%rcx)
    639d:	c7 41 04 00 00 00 00 	movl   $0x0,0x4(%rcx)
    63a4:	8d 48 01             	lea    0x1(%rax),%ecx
    63a7:	89 0b                	mov    %ecx,(%rbx)
    63a9:	48 8b 4b 28          	mov    0x28(%rbx),%rcx
    63ad:	48 89 3c c1          	mov    %rdi,(%rcx,%rax,8)
    63b1:	48 8b 43 18          	mov    0x18(%rbx),%rax
    63b5:	48 8d 3d ad fd ff ff 	lea    -0x253(%rip),%rdi        # 6169 <_ZNK8simdjson8fallback14implementation6stage2EPKhmRNS_3dom6parserE+0xe09>
    63bc:	48 89 3c d0          	mov    %rdi,(%rax,%rdx,8)
    63c0:	44 89 f8             	mov    %r15d,%eax
    63c3:	48 3b 43 48          	cmp    0x48(%rbx),%rax
    63c7:	0f 82 6c fb ff ff    	jb     5f39 <_ZNK8simdjson8fallback14implementation6stage2EPKhmRNS_3dom6parserE+0xbd9>
    63cd:	e9 92 f2 ff ff       	jmpq   5664 <_ZNK8simdjson8fallback14implementation6stage2EPKhmRNS_3dom6parserE+0x304>
    63d2:	41 80 fc 6e          	cmp    $0x6e,%r12b
    63d6:	0f 84 63 1a 00 00    	je     7e3f <_ZNK8simdjson8fallback14implementation6stage2EPKhmRNS_3dom6parserE+0x2adf>
    63dc:	41 80 fc 74          	cmp    $0x74,%r12b
    63e0:	0f 84 1f 1a 00 00    	je     7e05 <_ZNK8simdjson8fallback14implementation6stage2EPKhmRNS_3dom6parserE+0x2aa5>
    63e6:	41 80 fc 66          	cmp    $0x66,%r12b
    63ea:	0f 85 74 f2 ff ff    	jne    5664 <_ZNK8simdjson8fallback14implementation6stage2EPKhmRNS_3dom6parserE+0x304>
    63f0:	41 8b 43 01          	mov    0x1(%r11),%eax
    63f4:	41 0f b6 4b 05       	movzbl 0x5(%r11),%ecx
    63f9:	48 8d 15 60 fc 01 00 	lea    0x1fc60(%rip),%rdx        # 26060 <_ZN8simdjsonL32structural_or_whitespace_negatedE>
    6400:	35 61 6c 73 65       	xor    $0x65736c61,%eax
    6405:	0b 04 8a             	or     (%rdx,%rcx,4),%eax
    6408:	0f 85 56 f2 ff ff    	jne    5664 <_ZNK8simdjson8fallback14implementation6stage2EPKhmRNS_3dom6parserE+0x304>
    640e:	8b 03                	mov    (%rbx),%eax
    6410:	bf 33 00 00 00       	mov    $0x33,%edi
    6415:	48 c1 e7 39          	shl    $0x39,%rdi
    6419:	8d 50 01             	lea    0x1(%rax),%edx
    641c:	89 13                	mov    %edx,(%rbx)
    641e:	48 8b 53 28          	mov    0x28(%rbx),%rdx
    6422:	48 89 3c c2          	mov    %rdi,(%rdx,%rax,8)
    6426:	e9 3e fd ff ff       	jmpq   6169 <_ZNK8simdjson8fallback14implementation6stage2EPKhmRNS_3dom6parserE+0xe09>
    642b:	48 8b 4b 10          	mov    0x10(%rbx),%rcx
    642f:	8b 03                	mov    (%rbx),%eax
    6431:	44 89 fa             	mov    %r15d,%edx
    6434:	bf 5b 00 00 00       	mov    $0x5b,%edi
    6439:	48 c1 e7 38          	shl    $0x38,%rdi
    643d:	48 8d 0c d1          	lea    (%rcx,%rdx,8),%rcx
    6441:	89 01                	mov    %eax,(%rcx)
    6443:	c7 41 04 00 00 00 00 	movl   $0x0,0x4(%rcx)
    644a:	8d 48 01             	lea    0x1(%rax),%ecx
    644d:	89 0b                	mov    %ecx,(%rbx)
    644f:	48 8b 4b 28          	mov    0x28(%rbx),%rcx
    6453:	48 89 3c c1          	mov    %rdi,(%rcx,%rax,8)
    6457:	48 8b 43 18          	mov    0x18(%rbx),%rax
    645b:	48 8d 3d 07 fd ff ff 	lea    -0x2f9(%rip),%rdi        # 6169 <_ZNK8simdjson8fallback14implementation6stage2EPKhmRNS_3dom6parserE+0xe09>
    6462:	48 89 3c d0          	mov    %rdi,(%rax,%rdx,8)
    6466:	41 8d 47 01          	lea    0x1(%r15),%eax
    646a:	49 89 c7             	mov    %rax,%r15
    646d:	48 3b 43 48          	cmp    0x48(%rbx),%rax
    6471:	0f 82 84 f2 ff ff    	jb     56fb <_ZNK8simdjson8fallback14implementation6stage2EPKhmRNS_3dom6parserE+0x39b>
    6477:	e9 e8 f1 ff ff       	jmpq   5664 <_ZNK8simdjson8fallback14implementation6stage2EPKhmRNS_3dom6parserE+0x304>
    647c:	49 8d 73 01          	lea    0x1(%r11),%rsi
    6480:	41 0f b6 53 01       	movzbl 0x1(%r11),%edx
    6485:	41 80 fc 30          	cmp    $0x30,%r12b
    6489:	0f 84 ea 19 00 00    	je     7e79 <_ZNK8simdjson8fallback14implementation6stage2EPKhmRNS_3dom6parserE+0x2b19>
    648f:	41 8d 44 24 d0       	lea    -0x30(%r12),%eax
    6494:	83 ea 30             	sub    $0x30,%edx
    6497:	0f b6 c0             	movzbl %al,%eax
    649a:	80 fa 09             	cmp    $0x9,%dl
    649d:	77 1a                	ja     64b9 <_ZNK8simdjson8fallback14implementation6stage2EPKhmRNS_3dom6parserE+0x1159>
    649f:	48 83 c6 01          	add    $0x1,%rsi
    64a3:	0f b6 3e             	movzbl (%rsi),%edi
    64a6:	0f b6 d2             	movzbl %dl,%edx
    64a9:	48 8d 04 80          	lea    (%rax,%rax,4),%rax
    64ad:	48 8d 04 42          	lea    (%rdx,%rax,2),%rax
    64b1:	8d 57 d0             	lea    -0x30(%rdi),%edx
    64b4:	80 fa 09             	cmp    $0x9,%dl
    64b7:	76 e6                	jbe    649f <_ZNK8simdjson8fallback14implementation6stage2EPKhmRNS_3dom6parserE+0x113f>
    64b9:	0f b6 16             	movzbl (%rsi),%edx
    64bc:	80 fa 2e             	cmp    $0x2e,%dl
    64bf:	0f 84 5d 18 00 00    	je     7d22 <_ZNK8simdjson8fallback14implementation6stage2EPKhmRNS_3dom6parserE+0x29c2>
    64c5:	49 89 f1             	mov    %rsi,%r9
    64c8:	83 e2 df             	and    $0xffffffdf,%edx
    64cb:	4d 29 d9             	sub    %r11,%r9
    64ce:	41 83 e9 01          	sub    $0x1,%r9d
    64d2:	80 fa 45             	cmp    $0x45,%dl
    64d5:	0f 85 0a 18 00 00    	jne    7ce5 <_ZNK8simdjson8fallback14implementation6stage2EPKhmRNS_3dom6parserE+0x2985>
    64db:	48 89 f7             	mov    %rsi,%rdi
    64de:	31 d2                	xor    %edx,%edx
    64e0:	0f b6 4f 01          	movzbl 0x1(%rdi),%ecx
    64e4:	80 f9 2d             	cmp    $0x2d,%cl
    64e7:	0f 84 54 20 00 00    	je     8541 <_ZNK8simdjson8fallback14implementation6stage2EPKhmRNS_3dom6parserE+0x31e1>
    64ed:	80 f9 2b             	cmp    $0x2b,%cl
    64f0:	0f 84 6d 20 00 00    	je     8563 <_ZNK8simdjson8fallback14implementation6stage2EPKhmRNS_3dom6parserE+0x3203>
    64f6:	48 83 c7 01          	add    $0x1,%rdi
    64fa:	45 31 d2             	xor    %r10d,%r10d
    64fd:	0f b6 37             	movzbl (%rdi),%esi
    6500:	83 ee 30             	sub    $0x30,%esi
    6503:	40 80 fe 09          	cmp    $0x9,%sil
    6507:	0f 87 57 f1 ff ff    	ja     5664 <_ZNK8simdjson8fallback14implementation6stage2EPKhmRNS_3dom6parserE+0x304>
    650d:	0f b6 4f 01          	movzbl 0x1(%rdi),%ecx
    6511:	40 0f b6 f6          	movzbl %sil,%esi
    6515:	83 e9 30             	sub    $0x30,%ecx
    6518:	80 f9 09             	cmp    $0x9,%cl
    651b:	0f 86 2f 20 00 00    	jbe    8550 <_ZNK8simdjson8fallback14implementation6stage2EPKhmRNS_3dom6parserE+0x31f0>
    6521:	48 8d 4f 01          	lea    0x1(%rdi),%rcx
    6525:	0f b6 39             	movzbl (%rcx),%edi
    6528:	83 ef 30             	sub    $0x30,%edi
    652b:	40 80 ff 09          	cmp    $0x9,%dil
    652f:	77 0f                	ja     6540 <_ZNK8simdjson8fallback14implementation6stage2EPKhmRNS_3dom6parserE+0x11e0>
    6531:	48 6b f6 0a          	imul   $0xa,%rsi,%rsi
    6535:	40 0f b6 ff          	movzbl %dil,%edi
    6539:	48 83 c1 01          	add    $0x1,%rcx
    653d:	48 01 fe             	add    %rdi,%rsi
    6540:	48 89 04 24          	mov    %rax,(%rsp)
    6544:	eb 21                	jmp    6567 <_ZNK8simdjson8fallback14implementation6stage2EPKhmRNS_3dom6parserE+0x1207>
    6546:	b8 01 00 00 00       	mov    $0x1,%eax
    654b:	48 c1 e0 20          	shl    $0x20,%rax
    654f:	48 39 c6             	cmp    %rax,%rsi
    6552:	0f 8f 0c f1 ff ff    	jg     5664 <_ZNK8simdjson8fallback14implementation6stage2EPKhmRNS_3dom6parserE+0x304>
    6558:	48 6b f6 0a          	imul   $0xa,%rsi,%rsi
    655c:	40 0f b6 ff          	movzbl %dil,%edi
    6560:	48 83 c1 01          	add    $0x1,%rcx
    6564:	48 01 fe             	add    %rdi,%rsi
    6567:	0f b6 39             	movzbl (%rcx),%edi
    656a:	83 ef 30             	sub    $0x30,%edi
    656d:	40 80 ff 09          	cmp    $0x9,%dil
    6571:	76 d3                	jbe    6546 <_ZNK8simdjson8fallback14implementation6stage2EPKhmRNS_3dom6parserE+0x11e6>
    6573:	48 8b 04 24          	mov    (%rsp),%rax
    6577:	45 84 d2             	test   %r10b,%r10b
    657a:	74 03                	je     657f <_ZNK8simdjson8fallback14implementation6stage2EPKhmRNS_3dom6parserE+0x121f>
    657c:	48 f7 de             	neg    %rsi
    657f:	48 01 f2             	add    %rsi,%rdx
    6582:	e9 36 18 00 00       	jmpq   7dbd <_ZNK8simdjson8fallback14implementation6stage2EPKhmRNS_3dom6parserE+0x2a5d>
    6587:	41 0f b6 73 01       	movzbl 0x1(%r11),%esi
    658c:	8d 46 d0             	lea    -0x30(%rsi),%eax
    658f:	3c 09                	cmp    $0x9,%al
    6591:	0f 87 cd f0 ff ff    	ja     5664 <_ZNK8simdjson8fallback14implementation6stage2EPKhmRNS_3dom6parserE+0x304>
    6597:	49 8d 53 02          	lea    0x2(%r11),%rdx
    659b:	41 0f b6 4b 02       	movzbl 0x2(%r11),%ecx
    65a0:	40 80 fe 30          	cmp    $0x30,%sil
    65a4:	0f 84 23 17 00 00    	je     7ccd <_ZNK8simdjson8fallback14implementation6stage2EPKhmRNS_3dom6parserE+0x296d>
    65aa:	83 e9 30             	sub    $0x30,%ecx
    65ad:	0f b6 c0             	movzbl %al,%eax
    65b0:	80 f9 09             	cmp    $0x9,%cl
    65b3:	77 1a                	ja     65cf <_ZNK8simdjson8fallback14implementation6stage2EPKhmRNS_3dom6parserE+0x126f>
    65b5:	48 83 c2 01          	add    $0x1,%rdx
    65b9:	0f b6 3a             	movzbl (%rdx),%edi
    65bc:	0f b6 c9             	movzbl %cl,%ecx
    65bf:	48 8d 04 80          	lea    (%rax,%rax,4),%rax
    65c3:	48 8d 04 41          	lea    (%rcx,%rax,2),%rax
    65c7:	8d 4f d0             	lea    -0x30(%rdi),%ecx
    65ca:	80 f9 09             	cmp    $0x9,%cl
    65cd:	76 e6                	jbe    65b5 <_ZNK8simdjson8fallback14implementation6stage2EPKhmRNS_3dom6parserE+0x1255>
    65cf:	0f b6 0a             	movzbl (%rdx),%ecx
    65d2:	4d 8d 4b 01          	lea    0x1(%r11),%r9
    65d6:	80 f9 2e             	cmp    $0x2e,%cl
    65d9:	0f 84 d0 f9 ff ff    	je     5faf <_ZNK8simdjson8fallback14implementation6stage2EPKhmRNS_3dom6parserE+0xc4f>
    65df:	48 89 d7             	mov    %rdx,%rdi
    65e2:	83 e1 df             	and    $0xffffffdf,%ecx
    65e5:	4c 29 cf             	sub    %r9,%rdi
    65e8:	83 ef 01             	sub    $0x1,%edi
    65eb:	80 f9 45             	cmp    $0x45,%cl
    65ee:	0f 85 8f 16 00 00    	jne    7c83 <_ZNK8simdjson8fallback14implementation6stage2EPKhmRNS_3dom6parserE+0x2923>
    65f4:	48 89 d1             	mov    %rdx,%rcx
    65f7:	31 d2                	xor    %edx,%edx
    65f9:	0f b6 71 01          	movzbl 0x1(%rcx),%esi
    65fd:	40 80 fe 2d          	cmp    $0x2d,%sil
    6601:	0f 84 75 1f 00 00    	je     857c <_ZNK8simdjson8fallback14implementation6stage2EPKhmRNS_3dom6parserE+0x321c>
    6607:	40 80 fe 2b          	cmp    $0x2b,%sil
    660b:	0f 84 5e 1f 00 00    	je     856f <_ZNK8simdjson8fallback14implementation6stage2EPKhmRNS_3dom6parserE+0x320f>
    6611:	c6 04 24 00          	movb   $0x0,(%rsp)
    6615:	48 83 c1 01          	add    $0x1,%rcx
    6619:	0f b6 31             	movzbl (%rcx),%esi
    661c:	83 ee 30             	sub    $0x30,%esi
    661f:	40 80 fe 09          	cmp    $0x9,%sil
    6623:	0f 87 3b f0 ff ff    	ja     5664 <_ZNK8simdjson8fallback14implementation6stage2EPKhmRNS_3dom6parserE+0x304>
    6629:	44 0f b6 51 01       	movzbl 0x1(%rcx),%r10d
    662e:	40 0f b6 f6          	movzbl %sil,%esi
    6632:	41 83 ea 30          	sub    $0x30,%r10d
    6636:	41 80 fa 09          	cmp    $0x9,%r10b
    663a:	0f 86 49 1f 00 00    	jbe    8589 <_ZNK8simdjson8fallback14implementation6stage2EPKhmRNS_3dom6parserE+0x3229>
    6640:	48 83 c1 01          	add    $0x1,%rcx
    6644:	44 0f b6 11          	movzbl (%rcx),%r10d
    6648:	41 83 ea 30          	sub    $0x30,%r10d
    664c:	41 80 fa 09          	cmp    $0x9,%r10b
    6650:	77 0f                	ja     6661 <_ZNK8simdjson8fallback14implementation6stage2EPKhmRNS_3dom6parserE+0x1301>
    6652:	48 6b f6 0a          	imul   $0xa,%rsi,%rsi
    6656:	45 0f b6 d2          	movzbl %r10b,%r10d
    665a:	48 83 c1 01          	add    $0x1,%rcx
    665e:	4c 01 d6             	add    %r10,%rsi
    6661:	48 89 44 24 08       	mov    %rax,0x8(%rsp)
    6666:	eb 21                	jmp    6689 <_ZNK8simdjson8fallback14implementation6stage2EPKhmRNS_3dom6parserE+0x1329>
    6668:	b8 01 00 00 00       	mov    $0x1,%eax
    666d:	48 c1 e0 20          	shl    $0x20,%rax
    6671:	48 39 c6             	cmp    %rax,%rsi
    6674:	0f 8f ea ef ff ff    	jg     5664 <_ZNK8simdjson8fallback14implementation6stage2EPKhmRNS_3dom6parserE+0x304>
    667a:	48 6b f6 0a          	imul   $0xa,%rsi,%rsi
    667e:	45 0f b6 d2          	movzbl %r10b,%r10d
    6682:	48 83 c1 01          	add    $0x1,%rcx
    6686:	4c 01 d6             	add    %r10,%rsi
    6689:	44 0f b6 11          	movzbl (%rcx),%r10d
    668d:	41 83 ea 30          	sub    $0x30,%r10d
    6691:	41 80 fa 09          	cmp    $0x9,%r10b
    6695:	76 d1                	jbe    6668 <_ZNK8simdjson8fallback14implementation6stage2EPKhmRNS_3dom6parserE+0x1308>
    6697:	80 3c 24 00          	cmpb   $0x0,(%rsp)
    669b:	48 8b 44 24 08       	mov    0x8(%rsp),%rax
    66a0:	74 03                	je     66a5 <_ZNK8simdjson8fallback14implementation6stage2EPKhmRNS_3dom6parserE+0x1345>
    66a2:	48 f7 de             	neg    %rsi
    66a5:	48 01 f2             	add    %rsi,%rdx
    66a8:	e9 a0 f9 ff ff       	jmpq   604d <_ZNK8simdjson8fallback14implementation6stage2EPKhmRNS_3dom6parserE+0xced>
    66ad:	b8 11 00 00 00       	mov    $0x11,%eax
    66b2:	4c 89 f2             	mov    %r14,%rdx
    66b5:	48 2b 53 30          	sub    0x30(%rbx),%rdx
    66b9:	48 c1 e0 39          	shl    $0x39,%rax
    66bd:	4d 8d 56 04          	lea    0x4(%r14),%r10
    66c1:	4c 8d 0d b8 e7 01 00 	lea    0x1e7b8(%rip),%r9        # 24e80 <_ZN8simdjsonL14digit_to_val32E>
    66c8:	48 09 c2             	or     %rax,%rdx
    66cb:	8b 03                	mov    (%rbx),%eax
    66cd:	8d 70 01             	lea    0x1(%rax),%esi
    66d0:	89 33                	mov    %esi,(%rbx)
    66d2:	48 8b 73 28          	mov    0x28(%rbx),%rsi
    66d6:	48 89 14 c6          	mov    %rdx,(%rsi,%rax,8)
    66da:	48 8d 54 0d 01       	lea    0x1(%rbp,%rcx,1),%rdx
    66df:	4c 89 d1             	mov    %r10,%rcx
    66e2:	0f b6 02             	movzbl (%rdx),%eax
    66e5:	88 01                	mov    %al,(%rcx)
    66e7:	3c 22                	cmp    $0x22,%al
    66e9:	74 1c                	je     6707 <_ZNK8simdjson8fallback14implementation6stage2EPKhmRNS_3dom6parserE+0x13a7>
    66eb:	0f b6 72 01          	movzbl 0x1(%rdx),%esi
    66ef:	3c 5c                	cmp    $0x5c,%al
    66f1:	0f 84 5a 09 00 00    	je     7051 <_ZNK8simdjson8fallback14implementation6stage2EPKhmRNS_3dom6parserE+0x1cf1>
    66f7:	48 83 c1 01          	add    $0x1,%rcx
    66fb:	89 f0                	mov    %esi,%eax
    66fd:	48 83 c2 01          	add    $0x1,%rdx
    6701:	88 01                	mov    %al,(%rcx)
    6703:	3c 22                	cmp    $0x22,%al
    6705:	75 e4                	jne    66eb <_ZNK8simdjson8fallback14implementation6stage2EPKhmRNS_3dom6parserE+0x138b>
    6707:	48 89 c8             	mov    %rcx,%rax
    670a:	4c 29 d0             	sub    %r10,%rax
    670d:	41 89 06             	mov    %eax,(%r14)
    6710:	4c 8d 71 01          	lea    0x1(%rcx),%r14
    6714:	c6 01 00             	movb   $0x0,(%rcx)
    6717:	e9 4d fa ff ff       	jmpq   6169 <_ZNK8simdjson8fallback14implementation6stage2EPKhmRNS_3dom6parserE+0xe09>
    671c:	0f 1f 40 00          	nopl   0x0(%rax)
    6720:	40 80 fe 75          	cmp    $0x75,%sil
    6724:	74 22                	je     6748 <_ZNK8simdjson8fallback14implementation6stage2EPKhmRNS_3dom6parserE+0x13e8>
    6726:	41 0f b6 04 31       	movzbl (%r9,%rsi,1),%eax
    672b:	84 c0                	test   %al,%al
    672d:	0f 84 2d ee ff ff    	je     5560 <_ZNK8simdjson8fallback14implementation6stage2EPKhmRNS_3dom6parserE+0x200>
    6733:	88 01                	mov    %al,(%rcx)
    6735:	48 83 c2 02          	add    $0x2,%rdx
    6739:	0f b6 02             	movzbl (%rdx),%eax
    673c:	48 83 c1 01          	add    $0x1,%rcx
    6740:	e9 bb fb ff ff       	jmpq   6300 <_ZNK8simdjson8fallback14implementation6stage2EPKhmRNS_3dom6parserE+0xfa0>
    6745:	0f 1f 00             	nopl   (%rax)
    6748:	0f b6 72 03          	movzbl 0x3(%rdx),%esi
    674c:	0f b6 42 02          	movzbl 0x2(%rdx),%eax
    6750:	8b 84 87 d8 09 00 00 	mov    0x9d8(%rdi,%rax,4),%eax
    6757:	0b 84 b7 90 06 00 00 	or     0x690(%rdi,%rsi,4),%eax
    675e:	0f b6 72 05          	movzbl 0x5(%rdx),%esi
    6762:	0b 04 b7             	or     (%rdi,%rsi,4),%eax
    6765:	0f b6 72 04          	movzbl 0x4(%rdx),%esi
    6769:	0b 84 b7 48 03 00 00 	or     0x348(%rdi,%rsi,4),%eax
    6770:	8d b0 00 28 ff ff    	lea    -0xd800(%rax),%esi
    6776:	81 fe ff 03 00 00    	cmp    $0x3ff,%esi
    677c:	0f 87 2d 06 00 00    	ja     6daf <_ZNK8simdjson8fallback14implementation6stage2EPKhmRNS_3dom6parserE+0x1a4f>
    6782:	80 7a 06 5c          	cmpb   $0x5c,0x6(%rdx)
    6786:	0f 85 d4 ed ff ff    	jne    5560 <_ZNK8simdjson8fallback14implementation6stage2EPKhmRNS_3dom6parserE+0x200>
    678c:	80 7a 07 75          	cmpb   $0x75,0x7(%rdx)
    6790:	0f 85 ca ed ff ff    	jne    5560 <_ZNK8simdjson8fallback14implementation6stage2EPKhmRNS_3dom6parserE+0x200>
    6796:	44 0f b6 62 09       	movzbl 0x9(%rdx),%r12d
    679b:	44 0f b6 5a 08       	movzbl 0x8(%rdx),%r11d
    67a0:	46 8b 9c 9f d8 09 00 	mov    0x9d8(%rdi,%r11,4),%r11d
    67a7:	00 
    67a8:	46 0b 9c a7 90 06 00 	or     0x690(%rdi,%r12,4),%r11d
    67af:	00 
    67b0:	44 0f b6 62 0b       	movzbl 0xb(%rdx),%r12d
    67b5:	46 0b 1c a7          	or     (%rdi,%r12,4),%r11d
    67b9:	44 0f b6 62 0a       	movzbl 0xa(%rdx),%r12d
    67be:	46 0b 9c a7 48 03 00 	or     0x348(%rdi,%r12,4),%r11d
    67c5:	00 
    67c6:	44 09 d8             	or     %r11d,%eax
    67c9:	c1 e8 10             	shr    $0x10,%eax
    67cc:	0f 85 8e ed ff ff    	jne    5560 <_ZNK8simdjson8fallback14implementation6stage2EPKhmRNS_3dom6parserE+0x200>
    67d2:	89 f0                	mov    %esi,%eax
    67d4:	41 81 eb 00 dc 00 00 	sub    $0xdc00,%r11d
    67db:	48 83 c2 0c          	add    $0xc,%rdx
    67df:	c1 e0 0a             	shl    $0xa,%eax
    67e2:	44 09 d8             	or     %r11d,%eax
    67e5:	05 00 00 01 00       	add    $0x10000,%eax
    67ea:	83 f8 7f             	cmp    $0x7f,%eax
    67ed:	0f 86 6e 07 00 00    	jbe    6f61 <_ZNK8simdjson8fallback14implementation6stage2EPKhmRNS_3dom6parserE+0x1c01>
    67f3:	3d ff 07 00 00       	cmp    $0x7ff,%eax
    67f8:	0f 86 a9 08 00 00    	jbe    70a7 <_ZNK8simdjson8fallback14implementation6stage2EPKhmRNS_3dom6parserE+0x1d47>
    67fe:	3d ff ff 00 00       	cmp    $0xffff,%eax
    6803:	0f 86 ca 08 00 00    	jbe    70d3 <_ZNK8simdjson8fallback14implementation6stage2EPKhmRNS_3dom6parserE+0x1d73>
    6809:	3d ff ff 10 00       	cmp    $0x10ffff,%eax
    680e:	0f 87 4c ed ff ff    	ja     5560 <_ZNK8simdjson8fallback14implementation6stage2EPKhmRNS_3dom6parserE+0x200>
    6814:	89 c6                	mov    %eax,%esi
    6816:	c1 ee 12             	shr    $0x12,%esi
    6819:	83 ee 10             	sub    $0x10,%esi
    681c:	40 88 31             	mov    %sil,(%rcx)
    681f:	89 c6                	mov    %eax,%esi
    6821:	c1 ee 0c             	shr    $0xc,%esi
    6824:	83 e6 3f             	and    $0x3f,%esi
    6827:	83 c6 80             	add    $0xffffff80,%esi
    682a:	40 88 71 01          	mov    %sil,0x1(%rcx)
    682e:	89 c6                	mov    %eax,%esi
    6830:	83 e0 3f             	and    $0x3f,%eax
    6833:	c1 ee 06             	shr    $0x6,%esi
    6836:	83 c0 80             	add    $0xffffff80,%eax
    6839:	83 e6 3f             	and    $0x3f,%esi
    683c:	88 41 03             	mov    %al,0x3(%rcx)
    683f:	b8 04 00 00 00       	mov    $0x4,%eax
    6844:	83 c6 80             	add    $0xffffff80,%esi
    6847:	40 88 71 02          	mov    %sil,0x2(%rcx)
    684b:	48 01 c1             	add    %rax,%rcx
    684e:	0f b6 02             	movzbl (%rdx),%eax
    6851:	e9 aa fa ff ff       	jmpq   6300 <_ZNK8simdjson8fallback14implementation6stage2EPKhmRNS_3dom6parserE+0xfa0>
    6856:	0f b6 41 01          	movzbl 0x1(%rcx),%eax
    685a:	83 e8 30             	sub    $0x30,%eax
    685d:	3c 09                	cmp    $0x9,%al
    685f:	0f 87 ab f9 ff ff    	ja     6210 <_ZNK8simdjson8fallback14implementation6stage2EPKhmRNS_3dom6parserE+0xeb0>
    6865:	0f b6 c0             	movzbl %al,%eax
    6868:	48 8b 71 02          	mov    0x2(%rcx),%rsi
    686c:	48 8d 14 92          	lea    (%rdx,%rdx,4),%rdx
    6870:	4c 8d 51 02          	lea    0x2(%rcx),%r10
    6874:	49 b8 0f 0f 0f 0f 0f 	movabs $0xf0f0f0f0f0f0f0f,%r8
    687b:	0f 0f 0f 
    687e:	48 8d 14 50          	lea    (%rax,%rdx,2),%rdx
    6882:	48 b8 06 06 06 06 06 	movabs $0x606060606060606,%rax
    6889:	06 06 06 
    688c:	48 01 f0             	add    %rsi,%rax
    688f:	48 c1 e8 04          	shr    $0x4,%rax
    6893:	4c 21 c0             	and    %r8,%rax
    6896:	49 b8 f0 f0 f0 f0 f0 	movabs $0xf0f0f0f0f0f0f0f0,%r8
    689d:	f0 f0 f0 
    68a0:	4c 21 c6             	and    %r8,%rsi
    68a3:	48 09 f0             	or     %rsi,%rax
    68a6:	48 be 33 33 33 33 33 	movabs $0x3333333333333333,%rsi
    68ad:	33 33 33 
    68b0:	48 39 f0             	cmp    %rsi,%rax
    68b3:	75 7a                	jne    692f <_ZNK8simdjson8fallback14implementation6stage2EPKhmRNS_3dom6parserE+0x15cf>
    68b5:	0f be 41 02          	movsbl 0x2(%rcx),%eax
    68b9:	48 69 d2 00 e1 f5 05 	imul   $0x5f5e100,%rdx,%rdx
    68c0:	4c 8d 51 0a          	lea    0xa(%rcx),%r10
    68c4:	8d b4 80 10 ff ff ff 	lea    -0xf0(%rax,%rax,4),%esi
    68cb:	0f be 41 03          	movsbl 0x3(%rcx),%eax
    68cf:	8d 44 70 d0          	lea    -0x30(%rax,%rsi,2),%eax
    68d3:	8d 34 80             	lea    (%rax,%rax,4),%esi
    68d6:	0f be 41 04          	movsbl 0x4(%rcx),%eax
    68da:	8d 44 70 d0          	lea    -0x30(%rax,%rsi,2),%eax
    68de:	8d 34 80             	lea    (%rax,%rax,4),%esi
    68e1:	0f be 41 05          	movsbl 0x5(%rcx),%eax
    68e5:	8d 44 70 d0          	lea    -0x30(%rax,%rsi,2),%eax
    68e9:	8d 34 80             	lea    (%rax,%rax,4),%esi
    68ec:	0f be 41 06          	movsbl 0x6(%rcx),%eax
    68f0:	8d 44 70 d0          	lea    -0x30(%rax,%rsi,2),%eax
    68f4:	8d 34 80             	lea    (%rax,%rax,4),%esi
    68f7:	0f be 41 07          	movsbl 0x7(%rcx),%eax
    68fb:	8d 44 70 d0          	lea    -0x30(%rax,%rsi,2),%eax
    68ff:	8d 34 80             	lea    (%rax,%rax,4),%esi
    6902:	0f be 41 08          	movsbl 0x8(%rcx),%eax
    6906:	8d 44 70 d0          	lea    -0x30(%rax,%rsi,2),%eax
    690a:	8d 34 80             	lea    (%rax,%rax,4),%esi
    690d:	0f be 41 09          	movsbl 0x9(%rcx),%eax
    6911:	8d 44 70 d0          	lea    -0x30(%rax,%rsi,2),%eax
    6915:	48 01 c2             	add    %rax,%rdx
    6918:	eb 15                	jmp    692f <_ZNK8simdjson8fallback14implementation6stage2EPKhmRNS_3dom6parserE+0x15cf>
    691a:	66 0f 1f 44 00 00    	nopw   0x0(%rax,%rax,1)
    6920:	48 8d 14 92          	lea    (%rdx,%rdx,4),%rdx
    6924:	0f b6 c0             	movzbl %al,%eax
    6927:	49 83 c2 01          	add    $0x1,%r10
    692b:	48 8d 14 50          	lea    (%rax,%rdx,2),%rdx
    692f:	41 0f b6 32          	movzbl (%r10),%esi
    6933:	8d 46 d0             	lea    -0x30(%rsi),%eax
    6936:	3c 09                	cmp    $0x9,%al
    6938:	76 e6                	jbe    6920 <_ZNK8simdjson8fallback14implementation6stage2EPKhmRNS_3dom6parserE+0x15c0>
    693a:	4d 89 d0             	mov    %r10,%r8
    693d:	4c 8d 49 01          	lea    0x1(%rcx),%r9
    6941:	83 e6 df             	and    $0xffffffdf,%esi
    6944:	49 29 e8             	sub    %rbp,%r8
    6947:	4d 29 d1             	sub    %r10,%r9
    694a:	41 83 e8 01          	sub    $0x1,%r8d
    694e:	40 80 fe 45          	cmp    $0x45,%sil
    6952:	0f 85 aa 00 00 00    	jne    6a02 <_ZNK8simdjson8fallback14implementation6stage2EPKhmRNS_3dom6parserE+0x16a2>
    6958:	4c 89 d1             	mov    %r10,%rcx
    695b:	0f b6 41 01          	movzbl 0x1(%rcx),%eax
    695f:	3c 2d                	cmp    $0x2d,%al
    6961:	0f 84 d5 05 00 00    	je     6f3c <_ZNK8simdjson8fallback14implementation6stage2EPKhmRNS_3dom6parserE+0x1bdc>
    6967:	3c 2b                	cmp    $0x2b,%al
    6969:	0f 84 d3 06 00 00    	je     7042 <_ZNK8simdjson8fallback14implementation6stage2EPKhmRNS_3dom6parserE+0x1ce2>
    696f:	4c 8d 51 01          	lea    0x1(%rcx),%r10
    6973:	31 c9                	xor    %ecx,%ecx
    6975:	83 e8 30             	sub    $0x30,%eax
    6978:	3c 09                	cmp    $0x9,%al
    697a:	0f 87 90 f8 ff ff    	ja     6210 <_ZNK8simdjson8fallback14implementation6stage2EPKhmRNS_3dom6parserE+0xeb0>
    6980:	0f b6 f0             	movzbl %al,%esi
    6983:	41 0f b6 42 01       	movzbl 0x1(%r10),%eax
    6988:	83 e8 30             	sub    $0x30,%eax
    698b:	3c 09                	cmp    $0x9,%al
    698d:	77 64                	ja     69f3 <_ZNK8simdjson8fallback14implementation6stage2EPKhmRNS_3dom6parserE+0x1693>
    698f:	0f b6 c0             	movzbl %al,%eax
    6992:	48 8d 34 b6          	lea    (%rsi,%rsi,4),%rsi
    6996:	48 8d 34 70          	lea    (%rax,%rsi,2),%rsi
    699a:	41 0f b6 42 02       	movzbl 0x2(%r10),%eax
    699f:	83 e8 30             	sub    $0x30,%eax
    69a2:	3c 09                	cmp    $0x9,%al
    69a4:	77 4d                	ja     69f3 <_ZNK8simdjson8fallback14implementation6stage2EPKhmRNS_3dom6parserE+0x1693>
    69a6:	0f b6 c0             	movzbl %al,%eax
    69a9:	48 8d 34 b6          	lea    (%rsi,%rsi,4),%rsi
    69ad:	4d 8d 5a 03          	lea    0x3(%r10),%r11
    69b1:	48 8d 34 70          	lea    (%rax,%rsi,2),%rsi
    69b5:	41 0f b6 42 03       	movzbl 0x3(%r10),%eax
    69ba:	83 e8 30             	sub    $0x30,%eax
    69bd:	3c 09                	cmp    $0x9,%al
    69bf:	77 32                	ja     69f3 <_ZNK8simdjson8fallback14implementation6stage2EPKhmRNS_3dom6parserE+0x1693>
    69c1:	49 ba 00 00 00 00 01 	movabs $0x100000000,%r10
    69c8:	00 00 00 
    69cb:	eb 0c                	jmp    69d9 <_ZNK8simdjson8fallback14implementation6stage2EPKhmRNS_3dom6parserE+0x1679>
    69cd:	0f 1f 00             	nopl   (%rax)
    69d0:	4c 39 d6             	cmp    %r10,%rsi
    69d3:	0f 8f 37 f8 ff ff    	jg     6210 <_ZNK8simdjson8fallback14implementation6stage2EPKhmRNS_3dom6parserE+0xeb0>
    69d9:	0f b6 c0             	movzbl %al,%eax
    69dc:	48 8d 34 b6          	lea    (%rsi,%rsi,4),%rsi
    69e0:	49 83 c3 01          	add    $0x1,%r11
    69e4:	48 8d 34 70          	lea    (%rax,%rsi,2),%rsi
    69e8:	41 0f b6 03          	movzbl (%r11),%eax
    69ec:	83 e8 30             	sub    $0x30,%eax
    69ef:	3c 09                	cmp    $0x9,%al
    69f1:	76 dd                	jbe    69d0 <_ZNK8simdjson8fallback14implementation6stage2EPKhmRNS_3dom6parserE+0x1670>
    69f3:	48 89 f0             	mov    %rsi,%rax
    69f6:	48 f7 d8             	neg    %rax
    69f9:	84 c9                	test   %cl,%cl
    69fb:	48 0f 45 f0          	cmovne %rax,%rsi
    69ff:	49 01 f1             	add    %rsi,%r9
    6a02:	41 83 f8 12          	cmp    $0x12,%r8d
    6a06:	0f 8f 0f 08 00 00    	jg     721b <_ZNK8simdjson8fallback14implementation6stage2EPKhmRNS_3dom6parserE+0x1ebb>
    6a0c:	4d 8d 91 45 01 00 00 	lea    0x145(%r9),%r10
    6a13:	49 81 fa 79 02 00 00 	cmp    $0x279,%r10
    6a1a:	0f 86 4d 05 00 00    	jbe    6f6d <_ZNK8simdjson8fallback14implementation6stage2EPKhmRNS_3dom6parserE+0x1c0d>
    6a20:	48 8d 74 24 28       	lea    0x28(%rsp),%rsi
    6a25:	48 89 ef             	mov    %rbp,%rdi
    6a28:	e8 e3 d6 ff ff       	callq  4110 <strtod@plt>
    6a2d:	48 3b 6c 24 28       	cmp    0x28(%rsp),%rbp
    6a32:	0f 84 d8 f7 ff ff    	je     6210 <_ZNK8simdjson8fallback14implementation6stage2EPKhmRNS_3dom6parserE+0xeb0>
    6a38:	66 0f 28 c8          	movapd %xmm0,%xmm1
    6a3c:	f2 0f 10 15 bc 09 02 	movsd  0x209bc(%rip),%xmm2        # 27400 <_ZZN8simdjson7haswell15utf8_validation13is_incompleteENS0_4simd5simd8IhEEE9max_array+0x3e0>
    6a43:	00 
    6a44:	66 0f 54 0d 34 07 02 	andpd  0x20734(%rip),%xmm1        # 27180 <_ZZN8simdjson7haswell15utf8_validation13is_incompleteENS0_4simd5simd8IhEEE9max_array+0x160>
    6a4b:	00 
    6a4c:	66 0f 2e d1          	ucomisd %xmm1,%xmm2
    6a50:	0f 82 ba f7 ff ff    	jb     6210 <_ZNK8simdjson8fallback14implementation6stage2EPKhmRNS_3dom6parserE+0xeb0>
    6a56:	8b 0b                	mov    (%rbx),%ecx
    6a58:	48 8b 53 28          	mov    0x28(%rbx),%rdx
    6a5c:	41 bf 01 00 00 00    	mov    $0x1,%r15d
    6a62:	48 bf 00 00 00 00 00 	movabs $0x6400000000000000,%rdi
    6a69:	00 00 64 
    6a6c:	48 89 3c ca          	mov    %rdi,(%rdx,%rcx,8)
    6a70:	48 89 c8             	mov    %rcx,%rax
    6a73:	8d 49 02             	lea    0x2(%rcx),%ecx
    6a76:	4c 89 e7             	mov    %r12,%rdi
    6a79:	89 0b                	mov    %ecx,(%rbx)
    6a7b:	83 c0 01             	add    $0x1,%eax
    6a7e:	66 0f d6 04 c2       	movq   %xmm0,(%rdx,%rax,8)
    6a83:	e8 18 d7 ff ff       	callq  41a0 <free@plt>
    6a88:	41 b8 01 00 00 00    	mov    $0x1,%r8d
    6a8e:	e9 f7 e9 ff ff       	jmpq   548a <_ZNK8simdjson8fallback14implementation6stage2EPKhmRNS_3dom6parserE+0x12a>
    6a93:	40 0f b6 c6          	movzbl %sil,%eax
    6a97:	4c 8d 05 a2 a5 01 00 	lea    0x1a5a2(%rip),%r8        # 21040 <_ZN8simdjson7haswell13numberparsingL55structural_or_whitespace_or_exponent_or_decimal_negatedE>
    6a9e:	31 d2                	xor    %edx,%edx
    6aa0:	41 80 3c 00 00       	cmpb   $0x0,(%r8,%rax,1)
    6aa5:	0f 84 3e ee ff ff    	je     58e9 <_ZNK8simdjson8fallback14implementation6stage2EPKhmRNS_3dom6parserE+0x589>
    6aab:	e9 60 f7 ff ff       	jmpq   6210 <_ZNK8simdjson8fallback14implementation6stage2EPKhmRNS_3dom6parserE+0xeb0>
    6ab0:	45 31 c9             	xor    %r9d,%r9d
    6ab3:	e9 a3 fe ff ff       	jmpq   695b <_ZNK8simdjson8fallback14implementation6stage2EPKhmRNS_3dom6parserE+0x15fb>
    6ab8:	89 c6                	mov    %eax,%esi
    6aba:	83 e0 3f             	and    $0x3f,%eax
    6abd:	c1 ee 06             	shr    $0x6,%esi
    6ac0:	83 c0 80             	add    $0xffffff80,%eax
    6ac3:	83 ee 40             	sub    $0x40,%esi
    6ac6:	88 41 01             	mov    %al,0x1(%rcx)
    6ac9:	b8 02 00 00 00       	mov    $0x2,%eax
    6ace:	40 88 31             	mov    %sil,(%rcx)
    6ad1:	e9 8a ef ff ff       	jmpq   5a60 <_ZNK8simdjson8fallback14implementation6stage2EPKhmRNS_3dom6parserE+0x700>
    6ad6:	0f b6 41 01          	movzbl 0x1(%rcx),%eax
    6ada:	83 e8 30             	sub    $0x30,%eax
    6add:	3c 09                	cmp    $0x9,%al
    6adf:	0f 87 2b f7 ff ff    	ja     6210 <_ZNK8simdjson8fallback14implementation6stage2EPKhmRNS_3dom6parserE+0xeb0>
    6ae5:	0f b6 c0             	movzbl %al,%eax
    6ae8:	48 8b 71 02          	mov    0x2(%rcx),%rsi
    6aec:	48 8d 14 92          	lea    (%rdx,%rdx,4),%rdx
    6af0:	4c 8d 59 02          	lea    0x2(%rcx),%r11
    6af4:	49 b9 0f 0f 0f 0f 0f 	movabs $0xf0f0f0f0f0f0f0f,%r9
    6afb:	0f 0f 0f 
    6afe:	48 8d 14 50          	lea    (%rax,%rdx,2),%rdx
    6b02:	48 b8 06 06 06 06 06 	movabs $0x606060606060606,%rax
    6b09:	06 06 06 
    6b0c:	48 01 f0             	add    %rsi,%rax
    6b0f:	48 c1 e8 04          	shr    $0x4,%rax
    6b13:	4c 21 c8             	and    %r9,%rax
    6b16:	49 b9 f0 f0 f0 f0 f0 	movabs $0xf0f0f0f0f0f0f0f0,%r9
    6b1d:	f0 f0 f0 
    6b20:	4c 21 ce             	and    %r9,%rsi
    6b23:	48 09 f0             	or     %rsi,%rax
    6b26:	48 be 33 33 33 33 33 	movabs $0x3333333333333333,%rsi
    6b2d:	33 33 33 
    6b30:	48 39 f0             	cmp    %rsi,%rax
    6b33:	75 7a                	jne    6baf <_ZNK8simdjson8fallback14implementation6stage2EPKhmRNS_3dom6parserE+0x184f>
    6b35:	0f be 41 02          	movsbl 0x2(%rcx),%eax
    6b39:	48 69 d2 00 e1 f5 05 	imul   $0x5f5e100,%rdx,%rdx
    6b40:	4c 8d 59 0a          	lea    0xa(%rcx),%r11
    6b44:	8d b4 80 10 ff ff ff 	lea    -0xf0(%rax,%rax,4),%esi
    6b4b:	0f be 41 03          	movsbl 0x3(%rcx),%eax
    6b4f:	8d 44 70 d0          	lea    -0x30(%rax,%rsi,2),%eax
    6b53:	8d 34 80             	lea    (%rax,%rax,4),%esi
    6b56:	0f be 41 04          	movsbl 0x4(%rcx),%eax
    6b5a:	8d 44 70 d0          	lea    -0x30(%rax,%rsi,2),%eax
    6b5e:	8d 34 80             	lea    (%rax,%rax,4),%esi
    6b61:	0f be 41 05          	movsbl 0x5(%rcx),%eax
    6b65:	8d 44 70 d0          	lea    -0x30(%rax,%rsi,2),%eax
    6b69:	8d 34 80             	lea    (%rax,%rax,4),%esi
    6b6c:	0f be 41 06          	movsbl 0x6(%rcx),%eax
    6b70:	8d 44 70 d0          	lea    -0x30(%rax,%rsi,2),%eax
    6b74:	8d 34 80             	lea    (%rax,%rax,4),%esi
    6b77:	0f be 41 07          	movsbl 0x7(%rcx),%eax
    6b7b:	8d 44 70 d0          	lea    -0x30(%rax,%rsi,2),%eax
    6b7f:	8d 34 80             	lea    (%rax,%rax,4),%esi
    6b82:	0f be 41 08          	movsbl 0x8(%rcx),%eax
    6b86:	8d 44 70 d0          	lea    -0x30(%rax,%rsi,2),%eax
    6b8a:	8d 34 80             	lea    (%rax,%rax,4),%esi
    6b8d:	0f be 41 09          	movsbl 0x9(%rcx),%eax
    6b91:	8d 44 70 d0          	lea    -0x30(%rax,%rsi,2),%eax
    6b95:	48 01 c2             	add    %rax,%rdx
    6b98:	eb 15                	jmp    6baf <_ZNK8simdjson8fallback14implementation6stage2EPKhmRNS_3dom6parserE+0x184f>
    6b9a:	66 0f 1f 44 00 00    	nopw   0x0(%rax,%rax,1)
    6ba0:	48 8d 14 92          	lea    (%rdx,%rdx,4),%rdx
    6ba4:	0f b6 c0             	movzbl %al,%eax
    6ba7:	49 83 c3 01          	add    $0x1,%r11
    6bab:	48 8d 14 50          	lea    (%rax,%rdx,2),%rdx
    6baf:	41 0f b6 33          	movzbl (%r11),%esi
    6bb3:	8d 46 d0             	lea    -0x30(%rsi),%eax
    6bb6:	3c 09                	cmp    $0x9,%al
    6bb8:	76 e6                	jbe    6ba0 <_ZNK8simdjson8fallback14implementation6stage2EPKhmRNS_3dom6parserE+0x1840>
    6bba:	4d 89 d9             	mov    %r11,%r9
    6bbd:	4c 8d 51 01          	lea    0x1(%rcx),%r10
    6bc1:	83 e6 df             	and    $0xffffffdf,%esi
    6bc4:	4d 29 c1             	sub    %r8,%r9
    6bc7:	4d 29 da             	sub    %r11,%r10
    6bca:	41 83 e9 01          	sub    $0x1,%r9d
    6bce:	40 80 fe 45          	cmp    $0x45,%sil
    6bd2:	0f 85 ac 00 00 00    	jne    6c84 <_ZNK8simdjson8fallback14implementation6stage2EPKhmRNS_3dom6parserE+0x1924>
    6bd8:	4c 89 d9             	mov    %r11,%rcx
    6bdb:	0f b6 41 01          	movzbl 0x1(%rcx),%eax
    6bdf:	3c 2d                	cmp    $0x2d,%al
    6be1:	0f 84 67 03 00 00    	je     6f4e <_ZNK8simdjson8fallback14implementation6stage2EPKhmRNS_3dom6parserE+0x1bee>
    6be7:	3c 2b                	cmp    $0x2b,%al
    6be9:	0f 84 91 04 00 00    	je     7080 <_ZNK8simdjson8fallback14implementation6stage2EPKhmRNS_3dom6parserE+0x1d20>
    6bef:	48 8d 71 01          	lea    0x1(%rcx),%rsi
    6bf3:	45 31 db             	xor    %r11d,%r11d
    6bf6:	83 e8 30             	sub    $0x30,%eax
    6bf9:	3c 09                	cmp    $0x9,%al
    6bfb:	0f 87 0f f6 ff ff    	ja     6210 <_ZNK8simdjson8fallback14implementation6stage2EPKhmRNS_3dom6parserE+0xeb0>
    6c01:	0f b6 c8             	movzbl %al,%ecx
    6c04:	0f b6 46 01          	movzbl 0x1(%rsi),%eax
    6c08:	83 e8 30             	sub    $0x30,%eax
    6c0b:	3c 09                	cmp    $0x9,%al
    6c0d:	77 65                	ja     6c74 <_ZNK8simdjson8fallback14implementation6stage2EPKhmRNS_3dom6parserE+0x1914>
    6c0f:	0f b6 c0             	movzbl %al,%eax
    6c12:	48 8d 0c 89          	lea    (%rcx,%rcx,4),%rcx
    6c16:	48 8d 0c 48          	lea    (%rax,%rcx,2),%rcx
    6c1a:	0f b6 46 02          	movzbl 0x2(%rsi),%eax
    6c1e:	83 e8 30             	sub    $0x30,%eax
    6c21:	3c 09                	cmp    $0x9,%al
    6c23:	77 4f                	ja     6c74 <_ZNK8simdjson8fallback14implementation6stage2EPKhmRNS_3dom6parserE+0x1914>
    6c25:	0f b6 c0             	movzbl %al,%eax
    6c28:	48 8d 0c 89          	lea    (%rcx,%rcx,4),%rcx
    6c2c:	4c 8d 6e 03          	lea    0x3(%rsi),%r13
    6c30:	48 8d 0c 48          	lea    (%rax,%rcx,2),%rcx
    6c34:	0f b6 46 03          	movzbl 0x3(%rsi),%eax
    6c38:	83 e8 30             	sub    $0x30,%eax
    6c3b:	3c 09                	cmp    $0x9,%al
    6c3d:	77 35                	ja     6c74 <_ZNK8simdjson8fallback14implementation6stage2EPKhmRNS_3dom6parserE+0x1914>
    6c3f:	49 be 00 00 00 00 01 	movabs $0x100000000,%r14
    6c46:	00 00 00 
    6c49:	eb 0e                	jmp    6c59 <_ZNK8simdjson8fallback14implementation6stage2EPKhmRNS_3dom6parserE+0x18f9>
    6c4b:	0f 1f 44 00 00       	nopl   0x0(%rax,%rax,1)
    6c50:	4c 39 f1             	cmp    %r14,%rcx
    6c53:	0f 8f b7 f5 ff ff    	jg     6210 <_ZNK8simdjson8fallback14implementation6stage2EPKhmRNS_3dom6parserE+0xeb0>
    6c59:	0f b6 c0             	movzbl %al,%eax
    6c5c:	48 8d 0c 89          	lea    (%rcx,%rcx,4),%rcx
    6c60:	49 83 c5 01          	add    $0x1,%r13
    6c64:	48 8d 0c 48          	lea    (%rax,%rcx,2),%rcx
    6c68:	41 0f b6 45 00       	movzbl 0x0(%r13),%eax
    6c6d:	83 e8 30             	sub    $0x30,%eax
    6c70:	3c 09                	cmp    $0x9,%al
    6c72:	76 dc                	jbe    6c50 <_ZNK8simdjson8fallback14implementation6stage2EPKhmRNS_3dom6parserE+0x18f0>
    6c74:	48 89 c8             	mov    %rcx,%rax
    6c77:	48 f7 d8             	neg    %rax
    6c7a:	45 84 db             	test   %r11b,%r11b
    6c7d:	48 0f 45 c8          	cmovne %rax,%rcx
    6c81:	49 01 ca             	add    %rcx,%r10
    6c84:	41 83 f9 12          	cmp    $0x12,%r9d
    6c88:	0f 8f 5d 07 00 00    	jg     73eb <_ZNK8simdjson8fallback14implementation6stage2EPKhmRNS_3dom6parserE+0x208b>
    6c8e:	4d 8d 8a 45 01 00 00 	lea    0x145(%r10),%r9
    6c95:	49 81 f9 79 02 00 00 	cmp    $0x279,%r9
    6c9c:	0f 87 7e fd ff ff    	ja     6a20 <_ZNK8simdjson8fallback14implementation6stage2EPKhmRNS_3dom6parserE+0x16c0>
    6ca2:	49 8d 42 16          	lea    0x16(%r10),%rax
    6ca6:	48 83 f8 2c          	cmp    $0x2c,%rax
    6caa:	0f 87 15 04 00 00    	ja     70c5 <_ZNK8simdjson8fallback14implementation6stage2EPKhmRNS_3dom6parserE+0x1d65>
    6cb0:	48 b8 ff ff ff ff ff 	movabs $0x1fffffffffffff,%rax
    6cb7:	ff 1f 00 
    6cba:	48 39 c2             	cmp    %rax,%rdx
    6cbd:	0f 86 8b 0c 00 00    	jbe    794e <_ZNK8simdjson8fallback14implementation6stage2EPKhmRNS_3dom6parserE+0x25ee>
    6cc3:	4c 89 c8             	mov    %r9,%rax
    6cc6:	48 8d 0d 53 b9 01 00 	lea    0x1b953(%rip),%rcx        # 22620 <_ZN8simdjsonL23power_of_ten_componentsE>
    6ccd:	48 c1 e0 04          	shl    $0x4,%rax
    6cd1:	48 8d 34 08          	lea    (%rax,%rcx,1),%rsi
    6cd5:	48 0f bd ca          	bsr    %rdx,%rcx
    6cd9:	48 83 f1 3f          	xor    $0x3f,%rcx
    6cdd:	44 8b 46 08          	mov    0x8(%rsi),%r8d
    6ce1:	48 d3 e2             	shl    %cl,%rdx
    6ce4:	89 cf                	mov    %ecx,%edi
    6ce6:	48 89 d0             	mov    %rdx,%rax
    6ce9:	48 89 d1             	mov    %rdx,%rcx
    6cec:	48 f7 26             	mulq   (%rsi)
    6cef:	48 89 d6             	mov    %rdx,%rsi
    6cf2:	81 e2 ff 01 00 00    	and    $0x1ff,%edx
    6cf8:	49 89 c2             	mov    %rax,%r10
    6cfb:	48 81 fa ff 01 00 00 	cmp    $0x1ff,%rdx
    6d02:	0f 84 ef 0e 00 00    	je     7bf7 <_ZNK8simdjson8fallback14implementation6stage2EPKhmRNS_3dom6parserE+0x2897>
    6d08:	48 89 f0             	mov    %rsi,%rax
    6d0b:	48 c1 e8 3f          	shr    $0x3f,%rax
    6d0f:	8d 48 09             	lea    0x9(%rax),%ecx
    6d12:	83 f0 01             	xor    $0x1,%eax
    6d15:	48 d3 ee             	shr    %cl,%rsi
    6d18:	01 f8                	add    %edi,%eax
    6d1a:	49 09 d2             	or     %rdx,%r10
    6d1d:	0f 84 09 18 00 00    	je     852c <_ZNK8simdjson8fallback14implementation6stage2EPKhmRNS_3dom6parserE+0x31cc>
    6d23:	48 b9 ff ff ff ff ff 	movabs $0x1fffffffffffff,%rcx
    6d2a:	ff 1f 00 
    6d2d:	48 8d 56 01          	lea    0x1(%rsi),%rdx
    6d31:	48 d1 ea             	shr    %rdx
    6d34:	48 39 ca             	cmp    %rcx,%rdx
    6d37:	76 0c                	jbe    6d45 <_ZNK8simdjson8fallback14implementation6stage2EPKhmRNS_3dom6parserE+0x19e5>
    6d39:	ba 01 00 00 00       	mov    $0x1,%edx
    6d3e:	83 e8 01             	sub    $0x1,%eax
    6d41:	48 c1 e2 34          	shl    $0x34,%rdx
    6d45:	41 29 c0             	sub    %eax,%r8d
    6d48:	48 0f ba f2 34       	btr    $0x34,%rdx
    6d4d:	49 63 c0             	movslq %r8d,%rax
    6d50:	48 89 d1             	mov    %rdx,%rcx
    6d53:	48 8d 50 ff          	lea    -0x1(%rax),%rdx
    6d57:	48 81 fa fd 07 00 00 	cmp    $0x7fd,%rdx
    6d5e:	0f 87 72 f4 ff ff    	ja     61d6 <_ZNK8simdjson8fallback14implementation6stage2EPKhmRNS_3dom6parserE+0xe76>
    6d64:	48 c1 e0 34          	shl    $0x34,%rax
    6d68:	48 89 c2             	mov    %rax,%rdx
    6d6b:	48 09 ca             	or     %rcx,%rdx
    6d6e:	48 0f ba ea 3f       	bts    $0x3f,%rdx
    6d73:	8b 33                	mov    (%rbx),%esi
    6d75:	48 8b 4b 28          	mov    0x28(%rbx),%rcx
    6d79:	41 bf 01 00 00 00    	mov    $0x1,%r15d
    6d7f:	48 bf 00 00 00 00 00 	movabs $0x6400000000000000,%rdi
    6d86:	00 00 64 
    6d89:	48 89 f0             	mov    %rsi,%rax
    6d8c:	48 89 3c f1          	mov    %rdi,(%rcx,%rsi,8)
    6d90:	8d 76 02             	lea    0x2(%rsi),%esi
    6d93:	4c 89 e7             	mov    %r12,%rdi
    6d96:	83 c0 01             	add    $0x1,%eax
    6d99:	89 33                	mov    %esi,(%rbx)
    6d9b:	48 89 14 c1          	mov    %rdx,(%rcx,%rax,8)
    6d9f:	e8 fc d3 ff ff       	callq  41a0 <free@plt>
    6da4:	41 b8 01 00 00 00    	mov    $0x1,%r8d
    6daa:	e9 db e6 ff ff       	jmpq   548a <_ZNK8simdjson8fallback14implementation6stage2EPKhmRNS_3dom6parserE+0x12a>
    6daf:	48 83 c2 06          	add    $0x6,%rdx
    6db3:	e9 32 fa ff ff       	jmpq   67ea <_ZNK8simdjson8fallback14implementation6stage2EPKhmRNS_3dom6parserE+0x148a>
    6db8:	45 31 d2             	xor    %r10d,%r10d
    6dbb:	e9 1b fe ff ff       	jmpq   6bdb <_ZNK8simdjson8fallback14implementation6stage2EPKhmRNS_3dom6parserE+0x187b>
    6dc0:	0f 85 7a ed ff ff    	jne    5b40 <_ZNK8simdjson8fallback14implementation6stage2EPKhmRNS_3dom6parserE+0x7e0>
    6dc6:	81 7e 01 61 6c 73 65 	cmpl   $0x65736c61,0x1(%rsi)
    6dcd:	0f 94 c0             	sete   %al
    6dd0:	e9 dc ec ff ff       	jmpq   5ab1 <_ZNK8simdjson8fallback14implementation6stage2EPKhmRNS_3dom6parserE+0x751>
    6dd5:	0f 85 7d ed ff ff    	jne    5b58 <_ZNK8simdjson8fallback14implementation6stage2EPKhmRNS_3dom6parserE+0x7f8>
    6ddb:	81 3e 74 72 75 65    	cmpl   $0x65757274,(%rsi)
    6de1:	0f 94 c0             	sete   %al
    6de4:	e9 27 ed ff ff       	jmpq   5b10 <_ZNK8simdjson8fallback14implementation6stage2EPKhmRNS_3dom6parserE+0x7b0>
    6de9:	0f 85 d9 ed ff ff    	jne    5bc8 <_ZNK8simdjson8fallback14implementation6stage2EPKhmRNS_3dom6parserE+0x868>
    6def:	81 3e 6e 75 6c 6c    	cmpl   $0x6c6c756e,(%rsi)
    6df5:	0f 94 c0             	sete   %al
    6df8:	e9 9b ed ff ff       	jmpq   5b98 <_ZNK8simdjson8fallback14implementation6stage2EPKhmRNS_3dom6parserE+0x838>
    6dfd:	89 c6                	mov    %eax,%esi
    6dff:	c1 ee 0c             	shr    $0xc,%esi
    6e02:	83 ee 20             	sub    $0x20,%esi
    6e05:	40 88 31             	mov    %sil,(%rcx)
    6e08:	89 c6                	mov    %eax,%esi
    6e0a:	83 e0 3f             	and    $0x3f,%eax
    6e0d:	c1 ee 06             	shr    $0x6,%esi
    6e10:	83 c0 80             	add    $0xffffff80,%eax
    6e13:	83 e6 3f             	and    $0x3f,%esi
    6e16:	88 41 02             	mov    %al,0x2(%rcx)
    6e19:	b8 03 00 00 00       	mov    $0x3,%eax
    6e1e:	83 c6 80             	add    $0xffffff80,%esi
    6e21:	40 88 71 01          	mov    %sil,0x1(%rcx)
    6e25:	e9 36 ec ff ff       	jmpq   5a60 <_ZNK8simdjson8fallback14implementation6stage2EPKhmRNS_3dom6parserE+0x700>
    6e2a:	0f b6 78 03          	movzbl 0x3(%rax),%edi
    6e2e:	0f b6 48 02          	movzbl 0x2(%rax),%ecx
    6e32:	8b 8c 8e d8 09 00 00 	mov    0x9d8(%rsi,%rcx,4),%ecx
    6e39:	0b 8c be 90 06 00 00 	or     0x690(%rsi,%rdi,4),%ecx
    6e40:	0f b6 78 05          	movzbl 0x5(%rax),%edi
    6e44:	0b 0c be             	or     (%rsi,%rdi,4),%ecx
    6e47:	0f b6 78 04          	movzbl 0x4(%rax),%edi
    6e4b:	0b 8c be 48 03 00 00 	or     0x348(%rsi,%rdi,4),%ecx
    6e52:	8d b9 00 28 ff ff    	lea    -0xd800(%rcx),%edi
    6e58:	81 ff ff 03 00 00    	cmp    $0x3ff,%edi
    6e5e:	0f 87 2c 02 00 00    	ja     7090 <_ZNK8simdjson8fallback14implementation6stage2EPKhmRNS_3dom6parserE+0x1d30>
    6e64:	80 78 06 5c          	cmpb   $0x5c,0x6(%rax)
    6e68:	0f 85 f6 e7 ff ff    	jne    5664 <_ZNK8simdjson8fallback14implementation6stage2EPKhmRNS_3dom6parserE+0x304>
    6e6e:	80 78 07 75          	cmpb   $0x75,0x7(%rax)
    6e72:	0f 85 ec e7 ff ff    	jne    5664 <_ZNK8simdjson8fallback14implementation6stage2EPKhmRNS_3dom6parserE+0x304>
    6e78:	44 0f b6 58 09       	movzbl 0x9(%rax),%r11d
    6e7d:	44 0f b6 50 08       	movzbl 0x8(%rax),%r10d
    6e82:	46 8b 94 96 d8 09 00 	mov    0x9d8(%rsi,%r10,4),%r10d
    6e89:	00 
    6e8a:	46 0b 94 9e 90 06 00 	or     0x690(%rsi,%r11,4),%r10d
    6e91:	00 
    6e92:	44 0f b6 58 0b       	movzbl 0xb(%rax),%r11d
    6e97:	46 0b 14 9e          	or     (%rsi,%r11,4),%r10d
    6e9b:	44 0f b6 58 0a       	movzbl 0xa(%rax),%r11d
    6ea0:	46 0b 94 9e 48 03 00 	or     0x348(%rsi,%r11,4),%r10d
    6ea7:	00 
    6ea8:	44 09 d1             	or     %r10d,%ecx
    6eab:	c1 e9 10             	shr    $0x10,%ecx
    6eae:	0f 85 b0 e7 ff ff    	jne    5664 <_ZNK8simdjson8fallback14implementation6stage2EPKhmRNS_3dom6parserE+0x304>
    6eb4:	c1 e7 0a             	shl    $0xa,%edi
    6eb7:	41 81 ea 00 dc 00 00 	sub    $0xdc00,%r10d
    6ebe:	48 83 c0 0c          	add    $0xc,%rax
    6ec2:	89 f9                	mov    %edi,%ecx
    6ec4:	44 09 d1             	or     %r10d,%ecx
    6ec7:	81 c1 00 00 01 00    	add    $0x10000,%ecx
    6ecd:	83 f9 7f             	cmp    $0x7f,%ecx
    6ed0:	0f 86 15 03 00 00    	jbe    71eb <_ZNK8simdjson8fallback14implementation6stage2EPKhmRNS_3dom6parserE+0x1e8b>
    6ed6:	81 f9 ff 07 00 00    	cmp    $0x7ff,%ecx
    6edc:	0f 86 73 0b 00 00    	jbe    7a55 <_ZNK8simdjson8fallback14implementation6stage2EPKhmRNS_3dom6parserE+0x26f5>
    6ee2:	81 f9 ff ff 00 00    	cmp    $0xffff,%ecx
    6ee8:	0f 86 3a 0b 00 00    	jbe    7a28 <_ZNK8simdjson8fallback14implementation6stage2EPKhmRNS_3dom6parserE+0x26c8>
    6eee:	81 f9 ff ff 10 00    	cmp    $0x10ffff,%ecx
    6ef4:	0f 87 6a e7 ff ff    	ja     5664 <_ZNK8simdjson8fallback14implementation6stage2EPKhmRNS_3dom6parserE+0x304>
    6efa:	89 cf                	mov    %ecx,%edi
    6efc:	c1 ef 12             	shr    $0x12,%edi
    6eff:	83 ef 10             	sub    $0x10,%edi
    6f02:	40 88 3a             	mov    %dil,(%rdx)
    6f05:	89 cf                	mov    %ecx,%edi
    6f07:	c1 ef 0c             	shr    $0xc,%edi
    6f0a:	83 e7 3f             	and    $0x3f,%edi
    6f0d:	83 c7 80             	add    $0xffffff80,%edi
    6f10:	40 88 7a 01          	mov    %dil,0x1(%rdx)
    6f14:	89 cf                	mov    %ecx,%edi
    6f16:	83 e1 3f             	and    $0x3f,%ecx
    6f19:	c1 ef 06             	shr    $0x6,%edi
    6f1c:	83 c1 80             	add    $0xffffff80,%ecx
    6f1f:	83 e7 3f             	and    $0x3f,%edi
    6f22:	88 4a 03             	mov    %cl,0x3(%rdx)
    6f25:	b9 04 00 00 00       	mov    $0x4,%ecx
    6f2a:	83 c7 80             	add    $0xffffff80,%edi
    6f2d:	40 88 7a 02          	mov    %dil,0x2(%rdx)
    6f31:	48 01 ca             	add    %rcx,%rdx
    6f34:	0f b6 08             	movzbl (%rax),%ecx
    6f37:	e9 6c ee ff ff       	jmpq   5da8 <_ZNK8simdjson8fallback14implementation6stage2EPKhmRNS_3dom6parserE+0xa48>
    6f3c:	4c 8d 51 02          	lea    0x2(%rcx),%r10
    6f40:	0f b6 41 02          	movzbl 0x2(%rcx),%eax
    6f44:	b9 01 00 00 00       	mov    $0x1,%ecx
    6f49:	e9 27 fa ff ff       	jmpq   6975 <_ZNK8simdjson8fallback14implementation6stage2EPKhmRNS_3dom6parserE+0x1615>
    6f4e:	48 8d 71 02          	lea    0x2(%rcx),%rsi
    6f52:	0f b6 41 02          	movzbl 0x2(%rcx),%eax
    6f56:	41 bb 01 00 00 00    	mov    $0x1,%r11d
    6f5c:	e9 95 fc ff ff       	jmpq   6bf6 <_ZNK8simdjson8fallback14implementation6stage2EPKhmRNS_3dom6parserE+0x1896>
    6f61:	88 01                	mov    %al,(%rcx)
    6f63:	b8 01 00 00 00       	mov    $0x1,%eax
    6f68:	e9 de f8 ff ff       	jmpq   684b <_ZNK8simdjson8fallback14implementation6stage2EPKhmRNS_3dom6parserE+0x14eb>
    6f6d:	49 8d 41 16          	lea    0x16(%r9),%rax
    6f71:	48 83 f8 2c          	cmp    $0x2c,%rax
    6f75:	0f 87 1e 01 00 00    	ja     7099 <_ZNK8simdjson8fallback14implementation6stage2EPKhmRNS_3dom6parserE+0x1d39>
    6f7b:	48 b8 ff ff ff ff ff 	movabs $0x1fffffffffffff,%rax
    6f82:	ff 1f 00 
    6f85:	48 39 c2             	cmp    %rax,%rdx
    6f88:	0f 86 a1 08 00 00    	jbe    782f <_ZNK8simdjson8fallback14implementation6stage2EPKhmRNS_3dom6parserE+0x24cf>
    6f8e:	4c 89 d0             	mov    %r10,%rax
    6f91:	48 8d 0d 88 b6 01 00 	lea    0x1b688(%rip),%rcx        # 22620 <_ZN8simdjsonL23power_of_ten_componentsE>
    6f98:	48 c1 e0 04          	shl    $0x4,%rax
    6f9c:	48 8d 34 08          	lea    (%rax,%rcx,1),%rsi
    6fa0:	48 0f bd ca          	bsr    %rdx,%rcx
    6fa4:	48 83 f1 3f          	xor    $0x3f,%rcx
    6fa8:	44 8b 46 08          	mov    0x8(%rsi),%r8d
    6fac:	48 d3 e2             	shl    %cl,%rdx
    6faf:	89 cf                	mov    %ecx,%edi
    6fb1:	48 89 d0             	mov    %rdx,%rax
    6fb4:	48 89 d1             	mov    %rdx,%rcx
    6fb7:	48 f7 26             	mulq   (%rsi)
    6fba:	49 89 d3             	mov    %rdx,%r11
    6fbd:	49 89 c1             	mov    %rax,%r9
    6fc0:	48 89 d6             	mov    %rdx,%rsi
    6fc3:	41 81 e3 ff 01 00 00 	and    $0x1ff,%r11d
    6fca:	49 81 fb ff 01 00 00 	cmp    $0x1ff,%r11
    6fd1:	0f 84 70 0c 00 00    	je     7c47 <_ZNK8simdjson8fallback14implementation6stage2EPKhmRNS_3dom6parserE+0x28e7>
    6fd7:	48 89 f2             	mov    %rsi,%rdx
    6fda:	48 89 f0             	mov    %rsi,%rax
    6fdd:	48 c1 ea 3f          	shr    $0x3f,%rdx
    6fe1:	8d 4a 09             	lea    0x9(%rdx),%ecx
    6fe4:	83 f2 01             	xor    $0x1,%edx
    6fe7:	48 d3 e8             	shr    %cl,%rax
    6fea:	4d 09 d9             	or     %r11,%r9
    6fed:	8d 0c 3a             	lea    (%rdx,%rdi,1),%ecx
    6ff0:	0f 84 68 13 00 00    	je     835e <_ZNK8simdjson8fallback14implementation6stage2EPKhmRNS_3dom6parserE+0x2ffe>
    6ff6:	48 ba ff ff ff ff ff 	movabs $0x1fffffffffffff,%rdx
    6ffd:	ff 1f 00 
    7000:	48 83 c0 01          	add    $0x1,%rax
    7004:	48 d1 e8             	shr    %rax
    7007:	48 39 d0             	cmp    %rdx,%rax
    700a:	76 0c                	jbe    7018 <_ZNK8simdjson8fallback14implementation6stage2EPKhmRNS_3dom6parserE+0x1cb8>
    700c:	b8 01 00 00 00       	mov    $0x1,%eax
    7011:	83 e9 01             	sub    $0x1,%ecx
    7014:	48 c1 e0 34          	shl    $0x34,%rax
    7018:	44 89 c2             	mov    %r8d,%edx
    701b:	48 0f ba f0 34       	btr    $0x34,%rax
    7020:	29 ca                	sub    %ecx,%edx
    7022:	48 63 d2             	movslq %edx,%rdx
    7025:	48 8d 4a ff          	lea    -0x1(%rdx),%rcx
    7029:	48 81 f9 fd 07 00 00 	cmp    $0x7fd,%rcx
    7030:	0f 87 a0 f1 ff ff    	ja     61d6 <_ZNK8simdjson8fallback14implementation6stage2EPKhmRNS_3dom6parserE+0xe76>
    7036:	48 c1 e2 34          	shl    $0x34,%rdx
    703a:	48 09 c2             	or     %rax,%rdx
    703d:	e9 31 fd ff ff       	jmpq   6d73 <_ZNK8simdjson8fallback14implementation6stage2EPKhmRNS_3dom6parserE+0x1a13>
    7042:	4c 8d 51 02          	lea    0x2(%rcx),%r10
    7046:	0f b6 41 02          	movzbl 0x2(%rcx),%eax
    704a:	31 c9                	xor    %ecx,%ecx
    704c:	e9 24 f9 ff ff       	jmpq   6975 <_ZNK8simdjson8fallback14implementation6stage2EPKhmRNS_3dom6parserE+0x1615>
    7051:	40 80 fe 75          	cmp    $0x75,%sil
    7055:	0f 84 a5 00 00 00    	je     7100 <_ZNK8simdjson8fallback14implementation6stage2EPKhmRNS_3dom6parserE+0x1da0>
    705b:	48 8d 05 de a0 01 00 	lea    0x1a0de(%rip),%rax        # 21140 <_ZN8simdjson7haswell13stringparsingL10escape_mapE>
    7062:	0f b6 04 30          	movzbl (%rax,%rsi,1),%eax
    7066:	84 c0                	test   %al,%al
    7068:	0f 84 f6 e5 ff ff    	je     5664 <_ZNK8simdjson8fallback14implementation6stage2EPKhmRNS_3dom6parserE+0x304>
    706e:	88 01                	mov    %al,(%rcx)
    7070:	48 83 c2 02          	add    $0x2,%rdx
    7074:	0f b6 02             	movzbl (%rdx),%eax
    7077:	48 83 c1 01          	add    $0x1,%rcx
    707b:	e9 65 f6 ff ff       	jmpq   66e5 <_ZNK8simdjson8fallback14implementation6stage2EPKhmRNS_3dom6parserE+0x1385>
    7080:	48 8d 71 02          	lea    0x2(%rcx),%rsi
    7084:	0f b6 41 02          	movzbl 0x2(%rcx),%eax
    7088:	45 31 db             	xor    %r11d,%r11d
    708b:	e9 66 fb ff ff       	jmpq   6bf6 <_ZNK8simdjson8fallback14implementation6stage2EPKhmRNS_3dom6parserE+0x1896>
    7090:	48 83 c0 06          	add    $0x6,%rax
    7094:	e9 34 fe ff ff       	jmpq   6ecd <_ZNK8simdjson8fallback14implementation6stage2EPKhmRNS_3dom6parserE+0x1b6d>
    7099:	48 85 d2             	test   %rdx,%rdx
    709c:	0f 84 d1 fc ff ff    	je     6d73 <_ZNK8simdjson8fallback14implementation6stage2EPKhmRNS_3dom6parserE+0x1a13>
    70a2:	e9 e7 fe ff ff       	jmpq   6f8e <_ZNK8simdjson8fallback14implementation6stage2EPKhmRNS_3dom6parserE+0x1c2e>
    70a7:	89 c6                	mov    %eax,%esi
    70a9:	83 e0 3f             	and    $0x3f,%eax
    70ac:	c1 ee 06             	shr    $0x6,%esi
    70af:	83 c0 80             	add    $0xffffff80,%eax
    70b2:	83 ee 40             	sub    $0x40,%esi
    70b5:	88 41 01             	mov    %al,0x1(%rcx)
    70b8:	b8 02 00 00 00       	mov    $0x2,%eax
    70bd:	40 88 31             	mov    %sil,(%rcx)
    70c0:	e9 86 f7 ff ff       	jmpq   684b <_ZNK8simdjson8fallback14implementation6stage2EPKhmRNS_3dom6parserE+0x14eb>
    70c5:	48 85 d2             	test   %rdx,%rdx
    70c8:	0f 84 a5 fc ff ff    	je     6d73 <_ZNK8simdjson8fallback14implementation6stage2EPKhmRNS_3dom6parserE+0x1a13>
    70ce:	e9 f0 fb ff ff       	jmpq   6cc3 <_ZNK8simdjson8fallback14implementation6stage2EPKhmRNS_3dom6parserE+0x1963>
    70d3:	89 c6                	mov    %eax,%esi
    70d5:	c1 ee 0c             	shr    $0xc,%esi
    70d8:	83 ee 20             	sub    $0x20,%esi
    70db:	40 88 31             	mov    %sil,(%rcx)
    70de:	89 c6                	mov    %eax,%esi
    70e0:	83 e0 3f             	and    $0x3f,%eax
    70e3:	c1 ee 06             	shr    $0x6,%esi
    70e6:	83 c0 80             	add    $0xffffff80,%eax
    70e9:	83 e6 3f             	and    $0x3f,%esi
    70ec:	88 41 02             	mov    %al,0x2(%rcx)
    70ef:	b8 03 00 00 00       	mov    $0x3,%eax
    70f4:	83 c6 80             	add    $0xffffff80,%esi
    70f7:	40 88 71 01          	mov    %sil,0x1(%rcx)
    70fb:	e9 4b f7 ff ff       	jmpq   684b <_ZNK8simdjson8fallback14implementation6stage2EPKhmRNS_3dom6parserE+0x14eb>
    7100:	0f b6 72 02          	movzbl 0x2(%rdx),%esi
    7104:	0f b6 42 03          	movzbl 0x3(%rdx),%eax
    7108:	41 8b bc b1 d8 09 00 	mov    0x9d8(%r9,%rsi,4),%edi
    710f:	00 
    7110:	41 0b bc 81 90 06 00 	or     0x690(%r9,%rax,4),%edi
    7117:	00 
    7118:	0f b6 42 05          	movzbl 0x5(%rdx),%eax
    711c:	41 0b 3c 81          	or     (%r9,%rax,4),%edi
    7120:	0f b6 42 04          	movzbl 0x4(%rdx),%eax
    7124:	41 0b bc 81 48 03 00 	or     0x348(%r9,%rax,4),%edi
    712b:	00 
    712c:	8d b7 00 28 ff ff    	lea    -0xd800(%rdi),%esi
    7132:	81 fe ff 03 00 00    	cmp    $0x3ff,%esi
    7138:	0f 87 35 09 00 00    	ja     7a73 <_ZNK8simdjson8fallback14implementation6stage2EPKhmRNS_3dom6parserE+0x2713>
    713e:	80 7a 06 5c          	cmpb   $0x5c,0x6(%rdx)
    7142:	0f 85 1c e5 ff ff    	jne    5664 <_ZNK8simdjson8fallback14implementation6stage2EPKhmRNS_3dom6parserE+0x304>
    7148:	80 7a 07 75          	cmpb   $0x75,0x7(%rdx)
    714c:	0f 85 12 e5 ff ff    	jne    5664 <_ZNK8simdjson8fallback14implementation6stage2EPKhmRNS_3dom6parserE+0x304>
    7152:	44 0f b6 5a 09       	movzbl 0x9(%rdx),%r11d
    7157:	0f b6 42 08          	movzbl 0x8(%rdx),%eax
    715b:	41 8b 84 81 d8 09 00 	mov    0x9d8(%r9,%rax,4),%eax
    7162:	00 
    7163:	43 0b 84 99 90 06 00 	or     0x690(%r9,%r11,4),%eax
    716a:	00 
    716b:	44 0f b6 5a 0b       	movzbl 0xb(%rdx),%r11d
    7170:	43 0b 04 99          	or     (%r9,%r11,4),%eax
    7174:	44 0f b6 5a 0a       	movzbl 0xa(%rdx),%r11d
    7179:	43 0b 84 99 48 03 00 	or     0x348(%r9,%r11,4),%eax
    7180:	00 
    7181:	09 c7                	or     %eax,%edi
    7183:	c1 ef 10             	shr    $0x10,%edi
    7186:	0f 85 d8 e4 ff ff    	jne    5664 <_ZNK8simdjson8fallback14implementation6stage2EPKhmRNS_3dom6parserE+0x304>
    718c:	89 f7                	mov    %esi,%edi
    718e:	2d 00 dc 00 00       	sub    $0xdc00,%eax
    7193:	48 83 c2 0c          	add    $0xc,%rdx
    7197:	c1 e7 0a             	shl    $0xa,%edi
    719a:	09 c7                	or     %eax,%edi
    719c:	81 c7 00 00 01 00    	add    $0x10000,%edi
    71a2:	48 89 ce             	mov    %rcx,%rsi
    71a5:	4c 89 44 24 18       	mov    %r8,0x18(%rsp)
    71aa:	48 89 54 24 10       	mov    %rdx,0x10(%rsp)
    71af:	4c 89 54 24 08       	mov    %r10,0x8(%rsp)
    71b4:	48 89 0c 24          	mov    %rcx,(%rsp)
    71b8:	e8 13 cf ff ff       	callq  40d0 <_ZN8simdjson17codepoint_to_utf8EjPh@plt>
    71bd:	48 8b 0c 24          	mov    (%rsp),%rcx
    71c1:	4c 8b 54 24 08       	mov    0x8(%rsp),%r10
    71c6:	4c 8d 0d b3 dc 01 00 	lea    0x1dcb3(%rip),%r9        # 24e80 <_ZN8simdjsonL14digit_to_val32E>
    71cd:	48 8b 54 24 10       	mov    0x10(%rsp),%rdx
    71d2:	4c 8b 44 24 18       	mov    0x18(%rsp),%r8
    71d7:	48 01 c1             	add    %rax,%rcx
    71da:	48 85 c0             	test   %rax,%rax
    71dd:	0f 84 81 e4 ff ff    	je     5664 <_ZNK8simdjson8fallback14implementation6stage2EPKhmRNS_3dom6parserE+0x304>
    71e3:	0f b6 02             	movzbl (%rdx),%eax
    71e6:	e9 fa f4 ff ff       	jmpq   66e5 <_ZNK8simdjson8fallback14implementation6stage2EPKhmRNS_3dom6parserE+0x1385>
    71eb:	88 0a                	mov    %cl,(%rdx)
    71ed:	b9 01 00 00 00       	mov    $0x1,%ecx
    71f2:	e9 3a fd ff ff       	jmpq   6f31 <_ZNK8simdjson8fallback14implementation6stage2EPKhmRNS_3dom6parserE+0x1bd1>
    71f7:	41 0f b6 41 01       	movzbl 0x1(%r9),%eax
    71fc:	48 8d 15 3d 9e 01 00 	lea    0x19e3d(%rip),%rdx        # 21040 <_ZN8simdjson7haswell13numberparsingL55structural_or_whitespace_or_exponent_or_decimal_negatedE>
    7203:	80 3c 02 00          	cmpb   $0x0,(%rdx,%rax,1)
    7207:	48 89 c6             	mov    %rax,%rsi
    720a:	0f 85 54 e4 ff ff    	jne    5664 <_ZNK8simdjson8fallback14implementation6stage2EPKhmRNS_3dom6parserE+0x304>
    7210:	49 8d 51 01          	lea    0x1(%r9),%rdx
    7214:	31 c0                	xor    %eax,%eax
    7216:	e9 d7 ea ff ff       	jmpq   5cf2 <_ZNK8simdjson8fallback14implementation6stage2EPKhmRNS_3dom6parserE+0x992>
    721b:	83 ef 2e             	sub    $0x2e,%edi
    721e:	40 80 e7 fd          	and    $0xfd,%dil
    7222:	75 21                	jne    7245 <_ZNK8simdjson8fallback14implementation6stage2EPKhmRNS_3dom6parserE+0x1ee5>
    7224:	48 89 e9             	mov    %rbp,%rcx
    7227:	48 83 c1 01          	add    $0x1,%rcx
    722b:	0f b6 01             	movzbl (%rcx),%eax
    722e:	83 e8 2e             	sub    $0x2e,%eax
    7231:	a8 fd                	test   $0xfd,%al
    7233:	74 f2                	je     7227 <_ZNK8simdjson8fallback14implementation6stage2EPKhmRNS_3dom6parserE+0x1ec7>
    7235:	48 29 e9             	sub    %rbp,%rcx
    7238:	41 29 c8             	sub    %ecx,%r8d
    723b:	41 83 f8 12          	cmp    $0x12,%r8d
    723f:	0f 8e c7 f7 ff ff    	jle    6a0c <_ZNK8simdjson8fallback14implementation6stage2EPKhmRNS_3dom6parserE+0x16ac>
    7245:	48 89 ef             	mov    %rbp,%rdi
    7248:	48 89 de             	mov    %rbx,%rsi
    724b:	e8 10 ce ff ff       	callq  4060 <_ZN8simdjson8fallback13numberparsing18slow_float_parsingINS0_6stage213number_writerEEEbPKcT_@plt>
    7250:	89 c5                	mov    %eax,%ebp
    7252:	e9 e0 e5 ff ff       	jmpq   5837 <_ZNK8simdjson8fallback14implementation6stage2EPKhmRNS_3dom6parserE+0x4d7>
    7257:	48 89 ef             	mov    %rbp,%rdi
    725a:	31 d2                	xor    %edx,%edx
    725c:	48 89 de             	mov    %rbx,%rsi
    725f:	e8 dc cd ff ff       	callq  4040 <_ZN8simdjson8fallback13numberparsing19parse_large_integerINS0_6stage213number_writerEEEbPKhT_b@plt>
    7264:	89 c5                	mov    %eax,%ebp
    7266:	e9 cc e5 ff ff       	jmpq   5837 <_ZNK8simdjson8fallback14implementation6stage2EPKhmRNS_3dom6parserE+0x4d7>
    726b:	41 8b 01             	mov    (%r9),%eax
    726e:	41 0f b6 49 04       	movzbl 0x4(%r9),%ecx
    7273:	48 8d 15 e6 ed 01 00 	lea    0x1ede6(%rip),%rdx        # 26060 <_ZN8simdjsonL32structural_or_whitespace_negatedE>
    727a:	35 74 72 75 65       	xor    $0x65757274,%eax
    727f:	0b 04 8a             	or     (%rdx,%rcx,4),%eax
    7282:	0f 85 dc e3 ff ff    	jne    5664 <_ZNK8simdjson8fallback14implementation6stage2EPKhmRNS_3dom6parserE+0x304>
    7288:	8b 03                	mov    (%rbx),%eax
    728a:	bf 1d 00 00 00       	mov    $0x1d,%edi
    728f:	48 c1 e7 3a          	shl    $0x3a,%rdi
    7293:	8d 50 01             	lea    0x1(%rax),%edx
    7296:	89 13                	mov    %edx,(%rbx)
    7298:	48 8b 53 28          	mov    0x28(%rbx),%rdx
    729c:	48 89 3c c2          	mov    %rdi,(%rdx,%rax,8)
    72a0:	e9 88 e9 ff ff       	jmpq   5c2d <_ZNK8simdjson8fallback14implementation6stage2EPKhmRNS_3dom6parserE+0x8cd>
    72a5:	41 8b 01             	mov    (%r9),%eax
    72a8:	41 0f b6 49 04       	movzbl 0x4(%r9),%ecx
    72ad:	48 8d 15 ac ed 01 00 	lea    0x1edac(%rip),%rdx        # 26060 <_ZN8simdjsonL32structural_or_whitespace_negatedE>
    72b4:	35 6e 75 6c 6c       	xor    $0x6c6c756e,%eax
    72b9:	0b 04 8a             	or     (%rdx,%rcx,4),%eax
    72bc:	0f 85 a2 e3 ff ff    	jne    5664 <_ZNK8simdjson8fallback14implementation6stage2EPKhmRNS_3dom6parserE+0x304>
    72c2:	8b 03                	mov    (%rbx),%eax
    72c4:	bf 37 00 00 00       	mov    $0x37,%edi
    72c9:	48 c1 e7 39          	shl    $0x39,%rdi
    72cd:	8d 50 01             	lea    0x1(%rax),%edx
    72d0:	89 13                	mov    %edx,(%rbx)
    72d2:	48 8b 53 28          	mov    0x28(%rbx),%rdx
    72d6:	48 89 3c c2          	mov    %rdi,(%rdx,%rax,8)
    72da:	e9 4e e9 ff ff       	jmpq   5c2d <_ZNK8simdjson8fallback14implementation6stage2EPKhmRNS_3dom6parserE+0x8cd>
    72df:	0f b6 7a 01          	movzbl 0x1(%rdx),%edi
    72e3:	8d 77 d0             	lea    -0x30(%rdi),%esi
    72e6:	40 80 fe 09          	cmp    $0x9,%sil
    72ea:	0f 87 74 e3 ff ff    	ja     5664 <_ZNK8simdjson8fallback14implementation6stage2EPKhmRNS_3dom6parserE+0x304>
    72f0:	48 6b c0 0a          	imul   $0xa,%rax,%rax
    72f4:	40 0f b6 f6          	movzbl %sil,%esi
    72f8:	48 8b 7a 02          	mov    0x2(%rdx),%rdi
    72fc:	48 8d 4a 02          	lea    0x2(%rdx),%rcx
    7300:	49 bb 0f 0f 0f 0f 0f 	movabs $0xf0f0f0f0f0f0f0f,%r11
    7307:	0f 0f 0f 
    730a:	48 01 f0             	add    %rsi,%rax
    730d:	48 be 06 06 06 06 06 	movabs $0x606060606060606,%rsi
    7314:	06 06 06 
    7317:	48 01 fe             	add    %rdi,%rsi
    731a:	48 c1 ee 04          	shr    $0x4,%rsi
    731e:	4c 21 de             	and    %r11,%rsi
    7321:	49 bb f0 f0 f0 f0 f0 	movabs $0xf0f0f0f0f0f0f0f0,%r11
    7328:	f0 f0 f0 
    732b:	4c 21 df             	and    %r11,%rdi
    732e:	48 09 f7             	or     %rsi,%rdi
    7331:	48 be 33 33 33 33 33 	movabs $0x3333333333333333,%rsi
    7338:	33 33 33 
    733b:	48 39 f7             	cmp    %rsi,%rdi
    733e:	75 78                	jne    73b8 <_ZNK8simdjson8fallback14implementation6stage2EPKhmRNS_3dom6parserE+0x2058>
    7340:	0f be 72 02          	movsbl 0x2(%rdx),%esi
    7344:	48 69 c8 00 e1 f5 05 	imul   $0x5f5e100,%rax,%rcx
    734b:	0f be 42 03          	movsbl 0x3(%rdx),%eax
    734f:	83 ee 30             	sub    $0x30,%esi
    7352:	6b f6 0a             	imul   $0xa,%esi,%esi
    7355:	8d 44 06 d0          	lea    -0x30(%rsi,%rax,1),%eax
    7359:	0f be 72 04          	movsbl 0x4(%rdx),%esi
    735d:	6b c0 0a             	imul   $0xa,%eax,%eax
    7360:	8d 44 30 d0          	lea    -0x30(%rax,%rsi,1),%eax
    7364:	0f be 72 05          	movsbl 0x5(%rdx),%esi
    7368:	6b c0 0a             	imul   $0xa,%eax,%eax
    736b:	8d 44 30 d0          	lea    -0x30(%rax,%rsi,1),%eax
    736f:	0f be 72 06          	movsbl 0x6(%rdx),%esi
    7373:	6b c0 0a             	imul   $0xa,%eax,%eax
    7376:	8d 44 30 d0          	lea    -0x30(%rax,%rsi,1),%eax
    737a:	0f be 72 07          	movsbl 0x7(%rdx),%esi
    737e:	6b c0 0a             	imul   $0xa,%eax,%eax
    7381:	8d 44 30 d0          	lea    -0x30(%rax,%rsi,1),%eax
    7385:	0f be 72 08          	movsbl 0x8(%rdx),%esi
    7389:	6b c0 0a             	imul   $0xa,%eax,%eax
    738c:	8d 74 30 d0          	lea    -0x30(%rax,%rsi,1),%esi
    7390:	0f be 42 09          	movsbl 0x9(%rdx),%eax
    7394:	6b f6 0a             	imul   $0xa,%esi,%esi
    7397:	8d 44 06 d0          	lea    -0x30(%rsi,%rax,1),%eax
    739b:	48 01 c8             	add    %rcx,%rax
    739e:	48 8d 4a 0a          	lea    0xa(%rdx),%rcx
    73a2:	eb 14                	jmp    73b8 <_ZNK8simdjson8fallback14implementation6stage2EPKhmRNS_3dom6parserE+0x2058>
    73a4:	0f 1f 40 00          	nopl   0x0(%rax)
    73a8:	48 8d 04 80          	lea    (%rax,%rax,4),%rax
    73ac:	40 0f b6 f6          	movzbl %sil,%esi
    73b0:	48 83 c1 01          	add    $0x1,%rcx
    73b4:	48 8d 04 46          	lea    (%rsi,%rax,2),%rax
    73b8:	0f b6 39             	movzbl (%rcx),%edi
    73bb:	8d 77 d0             	lea    -0x30(%rdi),%esi
    73be:	40 80 fe 09          	cmp    $0x9,%sil
    73c2:	76 e4                	jbe    73a8 <_ZNK8simdjson8fallback14implementation6stage2EPKhmRNS_3dom6parserE+0x2048>
    73c4:	48 83 c2 01          	add    $0x1,%rdx
    73c8:	48 89 ce             	mov    %rcx,%rsi
    73cb:	48 89 d7             	mov    %rdx,%rdi
    73ce:	0f b6 11             	movzbl (%rcx),%edx
    73d1:	4c 29 d6             	sub    %r10,%rsi
    73d4:	48 29 cf             	sub    %rcx,%rdi
    73d7:	83 ee 01             	sub    $0x1,%esi
    73da:	83 e2 df             	and    $0xffffffdf,%edx
    73dd:	80 fa 45             	cmp    $0x45,%dl
    73e0:	0f 84 70 ea ff ff    	je     5e56 <_ZNK8simdjson8fallback14implementation6stage2EPKhmRNS_3dom6parserE+0xaf6>
    73e6:	e9 d0 ea ff ff       	jmpq   5ebb <_ZNK8simdjson8fallback14implementation6stage2EPKhmRNS_3dom6parserE+0xb5b>
    73eb:	83 ef 2e             	sub    $0x2e,%edi
    73ee:	40 80 e7 fd          	and    $0xfd,%dil
    73f2:	0f 85 4d fe ff ff    	jne    7245 <_ZNK8simdjson8fallback14implementation6stage2EPKhmRNS_3dom6parserE+0x1ee5>
    73f8:	4c 89 c1             	mov    %r8,%rcx
    73fb:	48 83 c1 01          	add    $0x1,%rcx
    73ff:	0f b6 01             	movzbl (%rcx),%eax
    7402:	83 e8 2e             	sub    $0x2e,%eax
    7405:	a8 fd                	test   $0xfd,%al
    7407:	74 f2                	je     73fb <_ZNK8simdjson8fallback14implementation6stage2EPKhmRNS_3dom6parserE+0x209b>
    7409:	4c 29 c1             	sub    %r8,%rcx
    740c:	41 29 c9             	sub    %ecx,%r9d
    740f:	41 83 f9 12          	cmp    $0x12,%r9d
    7413:	0f 8e 75 f8 ff ff    	jle    6c8e <_ZNK8simdjson8fallback14implementation6stage2EPKhmRNS_3dom6parserE+0x192e>
    7419:	e9 27 fe ff ff       	jmpq   7245 <_ZNK8simdjson8fallback14implementation6stage2EPKhmRNS_3dom6parserE+0x1ee5>
    741e:	48 8b 53 10          	mov    0x10(%rbx),%rdx
    7422:	41 8d 4f ff          	lea    -0x1(%r15),%ecx
    7426:	49 83 c0 01          	add    $0x1,%r8
    742a:	83 44 ca 04 01       	addl   $0x1,0x4(%rdx,%rcx,8)
    742f:	41 8b 4c 05 04       	mov    0x4(%r13,%rax,1),%ecx
    7434:	4c 8d 4c 0d 00       	lea    0x0(%rbp,%rcx,1),%r9
    7439:	45 0f b6 21          	movzbl (%r9),%r12d
    743d:	e9 e2 e2 ff ff       	jmpq   5724 <_ZNK8simdjson8fallback14implementation6stage2EPKhmRNS_3dom6parserE+0x3c4>
    7442:	48 89 ef             	mov    %rbp,%rdi
    7445:	ba 01 00 00 00       	mov    $0x1,%edx
    744a:	48 89 de             	mov    %rbx,%rsi
    744d:	e8 ee cb ff ff       	callq  4040 <_ZN8simdjson8fallback13numberparsing19parse_large_integerINS0_6stage213number_writerEEEbPKhT_b@plt>
    7452:	89 c5                	mov    %eax,%ebp
    7454:	e9 de e3 ff ff       	jmpq   5837 <_ZNK8simdjson8fallback14implementation6stage2EPKhmRNS_3dom6parserE+0x4d7>
    7459:	40 0f b6 c7          	movzbl %dil,%eax
    745d:	48 8d 0d dc 9b 01 00 	lea    0x19bdc(%rip),%rcx        # 21040 <_ZN8simdjson7haswell13numberparsingL55structural_or_whitespace_or_exponent_or_decimal_negatedE>
    7464:	80 3c 01 00          	cmpb   $0x0,(%rcx,%rax,1)
    7468:	0f 85 f6 e1 ff ff    	jne    5664 <_ZNK8simdjson8fallback14implementation6stage2EPKhmRNS_3dom6parserE+0x304>
    746e:	31 c0                	xor    %eax,%eax
    7470:	e9 b5 e9 ff ff       	jmpq   5e2a <_ZNK8simdjson8fallback14implementation6stage2EPKhmRNS_3dom6parserE+0xaca>
    7475:	48 89 d6             	mov    %rdx,%rsi
    7478:	31 d2                	xor    %edx,%edx
    747a:	0f b6 4e 01          	movzbl 0x1(%rsi),%ecx
    747e:	80 f9 2d             	cmp    $0x2d,%cl
    7481:	0f 84 80 05 00 00    	je     7a07 <_ZNK8simdjson8fallback14implementation6stage2EPKhmRNS_3dom6parserE+0x26a7>
    7487:	80 f9 2b             	cmp    $0x2b,%cl
    748a:	0f 84 0e 06 00 00    	je     7a9e <_ZNK8simdjson8fallback14implementation6stage2EPKhmRNS_3dom6parserE+0x273e>
    7490:	c6 04 24 00          	movb   $0x0,(%rsp)
    7494:	48 83 c6 01          	add    $0x1,%rsi
    7498:	0f b6 3e             	movzbl (%rsi),%edi
    749b:	8d 4f d0             	lea    -0x30(%rdi),%ecx
    749e:	80 f9 09             	cmp    $0x9,%cl
    74a1:	0f 87 bd e1 ff ff    	ja     5664 <_ZNK8simdjson8fallback14implementation6stage2EPKhmRNS_3dom6parserE+0x304>
    74a7:	0f b6 7e 01          	movzbl 0x1(%rsi),%edi
    74ab:	0f b6 c9             	movzbl %cl,%ecx
    74ae:	83 ef 30             	sub    $0x30,%edi
    74b1:	40 80 ff 09          	cmp    $0x9,%dil
    74b5:	0f 86 59 05 00 00    	jbe    7a14 <_ZNK8simdjson8fallback14implementation6stage2EPKhmRNS_3dom6parserE+0x26b4>
    74bb:	48 83 c6 01          	add    $0x1,%rsi
    74bf:	0f b6 3e             	movzbl (%rsi),%edi
    74c2:	83 ef 30             	sub    $0x30,%edi
    74c5:	40 80 ff 09          	cmp    $0x9,%dil
    74c9:	0f 86 37 01 00 00    	jbe    7606 <_ZNK8simdjson8fallback14implementation6stage2EPKhmRNS_3dom6parserE+0x22a6>
    74cf:	80 3c 24 00          	cmpb   $0x0,(%rsp)
    74d3:	74 03                	je     74d8 <_ZNK8simdjson8fallback14implementation6stage2EPKhmRNS_3dom6parserE+0x2178>
    74d5:	48 f7 d9             	neg    %rcx
    74d8:	48 01 ca             	add    %rcx,%rdx
    74db:	41 83 fa 12          	cmp    $0x12,%r10d
    74df:	0f 8f 00 10 00 00    	jg     84e5 <_ZNK8simdjson8fallback14implementation6stage2EPKhmRNS_3dom6parserE+0x3185>
    74e5:	48 8d b2 45 01 00 00 	lea    0x145(%rdx),%rsi
    74ec:	48 81 fe 79 02 00 00 	cmp    $0x279,%rsi
    74f3:	0f 87 df e9 ff ff    	ja     5ed8 <_ZNK8simdjson8fallback14implementation6stage2EPKhmRNS_3dom6parserE+0xb78>
    74f9:	48 8d 4a 16          	lea    0x16(%rdx),%rcx
    74fd:	48 83 f9 2c          	cmp    $0x2c,%rcx
    7501:	0f 87 ec 08 00 00    	ja     7df3 <_ZNK8simdjson8fallback14implementation6stage2EPKhmRNS_3dom6parserE+0x2a93>
    7507:	48 b9 ff ff ff ff ff 	movabs $0x1fffffffffffff,%rcx
    750e:	ff 1f 00 
    7511:	48 39 c8             	cmp    %rcx,%rax
    7514:	0f 86 7b 0a 00 00    	jbe    7f95 <_ZNK8simdjson8fallback14implementation6stage2EPKhmRNS_3dom6parserE+0x2c35>
    751a:	48 89 f1             	mov    %rsi,%rcx
    751d:	48 8d 15 fc b0 01 00 	lea    0x1b0fc(%rip),%rdx        # 22620 <_ZN8simdjsonL23power_of_ten_componentsE>
    7524:	48 c1 e1 04          	shl    $0x4,%rcx
    7528:	4c 8d 14 0a          	lea    (%rdx,%rcx,1),%r10
    752c:	48 0f bd c8          	bsr    %rax,%rcx
    7530:	48 83 f1 3f          	xor    $0x3f,%rcx
    7534:	41 8b 7a 08          	mov    0x8(%r10),%edi
    7538:	48 d3 e0             	shl    %cl,%rax
    753b:	41 89 cb             	mov    %ecx,%r11d
    753e:	48 89 04 24          	mov    %rax,(%rsp)
    7542:	49 f7 22             	mulq   (%r10)
    7545:	89 7c 24 08          	mov    %edi,0x8(%rsp)
    7549:	48 89 c7             	mov    %rax,%rdi
    754c:	48 89 d0             	mov    %rdx,%rax
    754f:	49 89 d2             	mov    %rdx,%r10
    7552:	25 ff 01 00 00       	and    $0x1ff,%eax
    7557:	48 3d ff 01 00 00    	cmp    $0x1ff,%rax
    755d:	0f 84 06 0a 00 00    	je     7f69 <_ZNK8simdjson8fallback14implementation6stage2EPKhmRNS_3dom6parserE+0x2c09>
    7563:	4c 89 d2             	mov    %r10,%rdx
    7566:	4c 89 d0             	mov    %r10,%rax
    7569:	41 81 e2 ff 01 00 00 	and    $0x1ff,%r10d
    7570:	48 c1 ea 3f          	shr    $0x3f,%rdx
    7574:	8d 4a 09             	lea    0x9(%rdx),%ecx
    7577:	83 f2 01             	xor    $0x1,%edx
    757a:	48 d3 e8             	shr    %cl,%rax
    757d:	41 01 d3             	add    %edx,%r11d
    7580:	49 09 fa             	or     %rdi,%r10
    7583:	0f 84 8f 0c 00 00    	je     8218 <_ZNK8simdjson8fallback14implementation6stage2EPKhmRNS_3dom6parserE+0x2eb8>
    7589:	48 ba ff ff ff ff ff 	movabs $0x1fffffffffffff,%rdx
    7590:	ff 1f 00 
    7593:	48 83 c0 01          	add    $0x1,%rax
    7597:	48 d1 e8             	shr    %rax
    759a:	48 39 d0             	cmp    %rdx,%rax
    759d:	76 0d                	jbe    75ac <_ZNK8simdjson8fallback14implementation6stage2EPKhmRNS_3dom6parserE+0x224c>
    759f:	b8 01 00 00 00       	mov    $0x1,%eax
    75a4:	41 83 eb 01          	sub    $0x1,%r11d
    75a8:	48 c1 e0 34          	shl    $0x34,%rax
    75ac:	48 0f ba f0 34       	btr    $0x34,%rax
    75b1:	48 89 c2             	mov    %rax,%rdx
    75b4:	8b 44 24 08          	mov    0x8(%rsp),%eax
    75b8:	44 29 d8             	sub    %r11d,%eax
    75bb:	48 98                	cltq   
    75bd:	48 8d 48 ff          	lea    -0x1(%rax),%rcx
    75c1:	48 81 f9 fd 07 00 00 	cmp    $0x7fd,%rcx
    75c8:	0f 87 5a 0c 00 00    	ja     8228 <_ZNK8simdjson8fallback14implementation6stage2EPKhmRNS_3dom6parserE+0x2ec8>
    75ce:	48 c1 e0 34          	shl    $0x34,%rax
    75d2:	48 09 d0             	or     %rdx,%rax
    75d5:	48 89 04 24          	mov    %rax,(%rsp)
    75d9:	f3 0f 7e 04 24       	movq   (%rsp),%xmm0
    75de:	8b 0b                	mov    (%rbx),%ecx
    75e0:	48 8b 53 28          	mov    0x28(%rbx),%rdx
    75e4:	bf 19 00 00 00       	mov    $0x19,%edi
    75e9:	48 c1 e7 3a          	shl    $0x3a,%rdi
    75ed:	48 89 c8             	mov    %rcx,%rax
    75f0:	48 89 3c ca          	mov    %rdi,(%rdx,%rcx,8)
    75f4:	8d 49 02             	lea    0x2(%rcx),%ecx
    75f7:	83 c0 01             	add    $0x1,%eax
    75fa:	89 0b                	mov    %ecx,(%rbx)
    75fc:	66 0f d6 04 c2       	movq   %xmm0,(%rdx,%rax,8)
    7601:	e9 27 e6 ff ff       	jmpq   5c2d <_ZNK8simdjson8fallback14implementation6stage2EPKhmRNS_3dom6parserE+0x8cd>
    7606:	48 6b c9 0a          	imul   $0xa,%rcx,%rcx
    760a:	40 0f b6 ff          	movzbl %dil,%edi
    760e:	49 bb 00 00 00 00 01 	movabs $0x100000000,%r11
    7615:	00 00 00 
    7618:	48 01 f9             	add    %rdi,%rcx
    761b:	48 8d 7e 01          	lea    0x1(%rsi),%rdi
    761f:	0f b6 76 01          	movzbl 0x1(%rsi),%esi
    7623:	83 ee 30             	sub    $0x30,%esi
    7626:	40 80 fe 09          	cmp    $0x9,%sil
    762a:	76 15                	jbe    7641 <_ZNK8simdjson8fallback14implementation6stage2EPKhmRNS_3dom6parserE+0x22e1>
    762c:	e9 9e fe ff ff       	jmpq   74cf <_ZNK8simdjson8fallback14implementation6stage2EPKhmRNS_3dom6parserE+0x216f>
    7631:	0f 1f 80 00 00 00 00 	nopl   0x0(%rax)
    7638:	4c 39 d9             	cmp    %r11,%rcx
    763b:	0f 8f 23 e0 ff ff    	jg     5664 <_ZNK8simdjson8fallback14implementation6stage2EPKhmRNS_3dom6parserE+0x304>
    7641:	40 0f b6 f6          	movzbl %sil,%esi
    7645:	48 8d 0c 89          	lea    (%rcx,%rcx,4),%rcx
    7649:	48 83 c7 01          	add    $0x1,%rdi
    764d:	48 8d 0c 4e          	lea    (%rsi,%rcx,2),%rcx
    7651:	0f b6 37             	movzbl (%rdi),%esi
    7654:	83 ee 30             	sub    $0x30,%esi
    7657:	40 80 fe 09          	cmp    $0x9,%sil
    765b:	76 db                	jbe    7638 <_ZNK8simdjson8fallback14implementation6stage2EPKhmRNS_3dom6parserE+0x22d8>
    765d:	e9 6d fe ff ff       	jmpq   74cf <_ZNK8simdjson8fallback14implementation6stage2EPKhmRNS_3dom6parserE+0x216f>
    7662:	0f b6 7a 01          	movzbl 0x1(%rdx),%edi
    7666:	83 ef 30             	sub    $0x30,%edi
    7669:	40 80 ff 09          	cmp    $0x9,%dil
    766d:	0f 87 f1 df ff ff    	ja     5664 <_ZNK8simdjson8fallback14implementation6stage2EPKhmRNS_3dom6parserE+0x304>
    7673:	48 6b c8 0a          	imul   $0xa,%rax,%rcx
    7677:	40 0f b6 ff          	movzbl %dil,%edi
    767b:	48 8d 72 02          	lea    0x2(%rdx),%rsi
    767f:	49 ba 0f 0f 0f 0f 0f 	movabs $0xf0f0f0f0f0f0f0f,%r10
    7686:	0f 0f 0f 
    7689:	48 8d 04 0f          	lea    (%rdi,%rcx,1),%rax
    768d:	48 8b 7a 02          	mov    0x2(%rdx),%rdi
    7691:	48 b9 06 06 06 06 06 	movabs $0x606060606060606,%rcx
    7698:	06 06 06 
    769b:	48 01 f9             	add    %rdi,%rcx
    769e:	48 c1 e9 04          	shr    $0x4,%rcx
    76a2:	4c 21 d1             	and    %r10,%rcx
    76a5:	49 ba f0 f0 f0 f0 f0 	movabs $0xf0f0f0f0f0f0f0f0,%r10
    76ac:	f0 f0 f0 
    76af:	4c 21 d7             	and    %r10,%rdi
    76b2:	48 09 f9             	or     %rdi,%rcx
    76b5:	48 bf 33 33 33 33 33 	movabs $0x3333333333333333,%rdi
    76bc:	33 33 33 
    76bf:	48 39 f9             	cmp    %rdi,%rcx
    76c2:	75 7b                	jne    773f <_ZNK8simdjson8fallback14implementation6stage2EPKhmRNS_3dom6parserE+0x23df>
    76c4:	0f be 72 02          	movsbl 0x2(%rdx),%esi
    76c8:	48 69 c8 00 e1 f5 05 	imul   $0x5f5e100,%rax,%rcx
    76cf:	0f be 42 03          	movsbl 0x3(%rdx),%eax
    76d3:	83 ee 30             	sub    $0x30,%esi
    76d6:	6b f6 0a             	imul   $0xa,%esi,%esi
    76d9:	8d 44 06 d0          	lea    -0x30(%rsi,%rax,1),%eax
    76dd:	0f be 72 04          	movsbl 0x4(%rdx),%esi
    76e1:	6b c0 0a             	imul   $0xa,%eax,%eax
    76e4:	8d 44 30 d0          	lea    -0x30(%rax,%rsi,1),%eax
    76e8:	0f be 72 05          	movsbl 0x5(%rdx),%esi
    76ec:	6b c0 0a             	imul   $0xa,%eax,%eax
    76ef:	8d 44 30 d0          	lea    -0x30(%rax,%rsi,1),%eax
    76f3:	0f be 72 06          	movsbl 0x6(%rdx),%esi
    76f7:	6b c0 0a             	imul   $0xa,%eax,%eax
    76fa:	8d 44 30 d0          	lea    -0x30(%rax,%rsi,1),%eax
    76fe:	0f be 72 07          	movsbl 0x7(%rdx),%esi
    7702:	6b c0 0a             	imul   $0xa,%eax,%eax
    7705:	8d 44 30 d0          	lea    -0x30(%rax,%rsi,1),%eax
    7709:	0f be 72 08          	movsbl 0x8(%rdx),%esi
    770d:	6b c0 0a             	imul   $0xa,%eax,%eax
    7710:	8d 74 30 d0          	lea    -0x30(%rax,%rsi,1),%esi
    7714:	0f be 42 09          	movsbl 0x9(%rdx),%eax
    7718:	6b f6 0a             	imul   $0xa,%esi,%esi
    771b:	8d 44 06 d0          	lea    -0x30(%rsi,%rax,1),%eax
    771f:	48 8d 72 0a          	lea    0xa(%rdx),%rsi
    7723:	48 01 c8             	add    %rcx,%rax
    7726:	eb 17                	jmp    773f <_ZNK8simdjson8fallback14implementation6stage2EPKhmRNS_3dom6parserE+0x23df>
    7728:	0f 1f 84 00 00 00 00 	nopl   0x0(%rax,%rax,1)
    772f:	00 
    7730:	48 8d 04 80          	lea    (%rax,%rax,4),%rax
    7734:	0f b6 c9             	movzbl %cl,%ecx
    7737:	48 83 c6 01          	add    $0x1,%rsi
    773b:	48 8d 04 41          	lea    (%rcx,%rax,2),%rax
    773f:	0f b6 3e             	movzbl (%rsi),%edi
    7742:	8d 4f d0             	lea    -0x30(%rdi),%ecx
    7745:	80 f9 09             	cmp    $0x9,%cl
    7748:	76 e6                	jbe    7730 <_ZNK8simdjson8fallback14implementation6stage2EPKhmRNS_3dom6parserE+0x23d0>
    774a:	0f b6 0e             	movzbl (%rsi),%ecx
    774d:	49 89 f2             	mov    %rsi,%r10
    7750:	48 83 c2 01          	add    $0x1,%rdx
    7754:	4d 29 ca             	sub    %r9,%r10
    7757:	48 29 f2             	sub    %rsi,%rdx
    775a:	83 e1 df             	and    $0xffffffdf,%ecx
    775d:	41 83 ea 01          	sub    $0x1,%r10d
    7761:	80 f9 45             	cmp    $0x45,%cl
    7764:	0f 84 10 fd ff ff    	je     747a <_ZNK8simdjson8fallback14implementation6stage2EPKhmRNS_3dom6parserE+0x211a>
    776a:	e9 6c fd ff ff       	jmpq   74db <_ZNK8simdjson8fallback14implementation6stage2EPKhmRNS_3dom6parserE+0x217b>
    776f:	48 8b 4b 10          	mov    0x10(%rbx),%rcx
    7773:	41 8d 47 ff          	lea    -0x1(%r15),%eax
    7777:	83 44 c1 04 01       	addl   $0x1,0x4(%rcx,%rax,8)
    777c:	41 8b 4c 15 04       	mov    0x4(%r13,%rdx,1),%ecx
    7781:	44 0f b6 64 0d 00    	movzbl 0x0(%rbp,%rcx,1),%r12d
    7787:	41 80 fc 22          	cmp    $0x22,%r12b
    778b:	0f 85 d3 de ff ff    	jne    5664 <_ZNK8simdjson8fallback14implementation6stage2EPKhmRNS_3dom6parserE+0x304>
    7791:	b8 11 00 00 00       	mov    $0x11,%eax
    7796:	4c 8d 64 0d 01       	lea    0x1(%rbp,%rcx,1),%r12
    779b:	4d 8d 4e 04          	lea    0x4(%r14),%r9
    779f:	4c 89 f2             	mov    %r14,%rdx
    77a2:	48 c1 e0 39          	shl    $0x39,%rax
    77a6:	48 2b 53 30          	sub    0x30(%rbx),%rdx
    77aa:	4c 8d 15 8f 99 01 00 	lea    0x1998f(%rip),%r10        # 21140 <_ZN8simdjson7haswell13stringparsingL10escape_mapE>
    77b1:	48 09 c2             	or     %rax,%rdx
    77b4:	8b 03                	mov    (%rbx),%eax
    77b6:	48 8d 0d c3 d6 01 00 	lea    0x1d6c3(%rip),%rcx        # 24e80 <_ZN8simdjsonL14digit_to_val32E>
    77bd:	8d 70 01             	lea    0x1(%rax),%esi
    77c0:	89 33                	mov    %esi,(%rbx)
    77c2:	48 8b 73 28          	mov    0x28(%rbx),%rsi
    77c6:	48 89 14 c6          	mov    %rdx,(%rsi,%rax,8)
    77ca:	41 0f b6 04 24       	movzbl (%r12),%eax
    77cf:	4c 89 ca             	mov    %r9,%rdx
    77d2:	88 02                	mov    %al,(%rdx)
    77d4:	3c 22                	cmp    $0x22,%al
    77d6:	74 1a                	je     77f2 <_ZNK8simdjson8fallback14implementation6stage2EPKhmRNS_3dom6parserE+0x2492>
    77d8:	41 0f b6 74 24 01    	movzbl 0x1(%r12),%esi
    77de:	3c 5c                	cmp    $0x5c,%al
    77e0:	74 29                	je     780b <_ZNK8simdjson8fallback14implementation6stage2EPKhmRNS_3dom6parserE+0x24ab>
    77e2:	48 83 c2 01          	add    $0x1,%rdx
    77e6:	89 f0                	mov    %esi,%eax
    77e8:	49 83 c4 01          	add    $0x1,%r12
    77ec:	88 02                	mov    %al,(%rdx)
    77ee:	3c 22                	cmp    $0x22,%al
    77f0:	75 e6                	jne    77d8 <_ZNK8simdjson8fallback14implementation6stage2EPKhmRNS_3dom6parserE+0x2478>
    77f2:	48 89 d0             	mov    %rdx,%rax
    77f5:	49 83 c0 01          	add    $0x1,%r8
    77f9:	4c 29 c8             	sub    %r9,%rax
    77fc:	41 89 06             	mov    %eax,(%r14)
    77ff:	4c 8d 72 01          	lea    0x1(%rdx),%r14
    7803:	c6 02 00             	movb   $0x0,(%rdx)
    7806:	e9 27 eb ff ff       	jmpq   6332 <_ZNK8simdjson8fallback14implementation6stage2EPKhmRNS_3dom6parserE+0xfd2>
    780b:	40 80 fe 75          	cmp    $0x75,%sil
    780f:	74 47                	je     7858 <_ZNK8simdjson8fallback14implementation6stage2EPKhmRNS_3dom6parserE+0x24f8>
    7811:	41 0f b6 04 32       	movzbl (%r10,%rsi,1),%eax
    7816:	84 c0                	test   %al,%al
    7818:	0f 84 42 dd ff ff    	je     5560 <_ZNK8simdjson8fallback14implementation6stage2EPKhmRNS_3dom6parserE+0x200>
    781e:	88 02                	mov    %al,(%rdx)
    7820:	49 83 c4 02          	add    $0x2,%r12
    7824:	41 0f b6 04 24       	movzbl (%r12),%eax
    7829:	48 83 c2 01          	add    $0x1,%rdx
    782d:	eb a3                	jmp    77d2 <_ZNK8simdjson8fallback14implementation6stage2EPKhmRNS_3dom6parserE+0x2472>
    782f:	66 0f ef c0          	pxor   %xmm0,%xmm0
    7833:	f2 48 0f 2a c2       	cvtsi2sd %rdx,%xmm0
    7838:	4d 85 c9             	test   %r9,%r9
    783b:	0f 88 86 03 00 00    	js     7bc7 <_ZNK8simdjson8fallback14implementation6stage2EPKhmRNS_3dom6parserE+0x2867>
    7841:	48 8d 05 78 d5 01 00 	lea    0x1d578(%rip),%rax        # 24dc0 <_ZN8simdjsonL12power_of_tenE>
    7848:	f2 42 0f 59 04 c8    	mulsd  (%rax,%r9,8),%xmm0
    784e:	66 48 0f 7e c2       	movq   %xmm0,%rdx
    7853:	e9 1b f5 ff ff       	jmpq   6d73 <_ZNK8simdjson8fallback14implementation6stage2EPKhmRNS_3dom6parserE+0x1a13>
    7858:	41 0f b6 74 24 02    	movzbl 0x2(%r12),%esi
    785e:	41 0f b6 44 24 03    	movzbl 0x3(%r12),%eax
    7864:	8b bc b1 d8 09 00 00 	mov    0x9d8(%rcx,%rsi,4),%edi
    786b:	0b bc 81 90 06 00 00 	or     0x690(%rcx,%rax,4),%edi
    7872:	41 0f b6 44 24 05    	movzbl 0x5(%r12),%eax
    7878:	0b 3c 81             	or     (%rcx,%rax,4),%edi
    787b:	41 0f b6 44 24 04    	movzbl 0x4(%r12),%eax
    7881:	0b bc 81 48 03 00 00 	or     0x348(%rcx,%rax,4),%edi
    7888:	8d b7 00 28 ff ff    	lea    -0xd800(%rdi),%esi
    788e:	81 fe ff 03 00 00    	cmp    $0x3ff,%esi
    7894:	0f 87 47 03 00 00    	ja     7be1 <_ZNK8simdjson8fallback14implementation6stage2EPKhmRNS_3dom6parserE+0x2881>
    789a:	41 80 7c 24 06 5c    	cmpb   $0x5c,0x6(%r12)
    78a0:	0f 85 ba dc ff ff    	jne    5560 <_ZNK8simdjson8fallback14implementation6stage2EPKhmRNS_3dom6parserE+0x200>
    78a6:	41 80 7c 24 07 75    	cmpb   $0x75,0x7(%r12)
    78ac:	0f 85 ae dc ff ff    	jne    5560 <_ZNK8simdjson8fallback14implementation6stage2EPKhmRNS_3dom6parserE+0x200>
    78b2:	45 0f b6 5c 24 09    	movzbl 0x9(%r12),%r11d
    78b8:	41 0f b6 44 24 08    	movzbl 0x8(%r12),%eax
    78be:	8b 84 81 d8 09 00 00 	mov    0x9d8(%rcx,%rax,4),%eax
    78c5:	42 0b 84 99 90 06 00 	or     0x690(%rcx,%r11,4),%eax
    78cc:	00 
    78cd:	45 0f b6 5c 24 0b    	movzbl 0xb(%r12),%r11d
    78d3:	42 0b 04 99          	or     (%rcx,%r11,4),%eax
    78d7:	45 0f b6 5c 24 0a    	movzbl 0xa(%r12),%r11d
    78dd:	42 0b 84 99 48 03 00 	or     0x348(%rcx,%r11,4),%eax
    78e4:	00 
    78e5:	09 c7                	or     %eax,%edi
    78e7:	c1 ef 10             	shr    $0x10,%edi
    78ea:	0f 85 70 dc ff ff    	jne    5560 <_ZNK8simdjson8fallback14implementation6stage2EPKhmRNS_3dom6parserE+0x200>
    78f0:	89 f7                	mov    %esi,%edi
    78f2:	2d 00 dc 00 00       	sub    $0xdc00,%eax
    78f7:	49 83 c4 0c          	add    $0xc,%r12
    78fb:	c1 e7 0a             	shl    $0xa,%edi
    78fe:	09 c7                	or     %eax,%edi
    7900:	81 c7 00 00 01 00    	add    $0x10000,%edi
    7906:	48 89 d6             	mov    %rdx,%rsi
    7909:	4c 89 44 24 10       	mov    %r8,0x10(%rsp)
    790e:	4c 89 4c 24 08       	mov    %r9,0x8(%rsp)
    7913:	48 89 14 24          	mov    %rdx,(%rsp)
    7917:	e8 b4 c7 ff ff       	callq  40d0 <_ZN8simdjson17codepoint_to_utf8EjPh@plt>
    791c:	48 8b 14 24          	mov    (%rsp),%rdx
    7920:	4c 8b 4c 24 08       	mov    0x8(%rsp),%r9
    7925:	4c 8d 15 14 98 01 00 	lea    0x19814(%rip),%r10        # 21140 <_ZN8simdjson7haswell13stringparsingL10escape_mapE>
    792c:	48 8d 0d 4d d5 01 00 	lea    0x1d54d(%rip),%rcx        # 24e80 <_ZN8simdjsonL14digit_to_val32E>
    7933:	4c 8b 44 24 10       	mov    0x10(%rsp),%r8
    7938:	48 01 c2             	add    %rax,%rdx
    793b:	48 85 c0             	test   %rax,%rax
    793e:	0f 84 1c dc ff ff    	je     5560 <_ZNK8simdjson8fallback14implementation6stage2EPKhmRNS_3dom6parserE+0x200>
    7944:	41 0f b6 04 24       	movzbl (%r12),%eax
    7949:	e9 84 fe ff ff       	jmpq   77d2 <_ZNK8simdjson8fallback14implementation6stage2EPKhmRNS_3dom6parserE+0x2472>
    794e:	66 0f ef c0          	pxor   %xmm0,%xmm0
    7952:	f2 48 0f 2a c2       	cvtsi2sd %rdx,%xmm0
    7957:	4d 85 d2             	test   %r10,%r10
    795a:	0f 88 29 01 00 00    	js     7a89 <_ZNK8simdjson8fallback14implementation6stage2EPKhmRNS_3dom6parserE+0x2729>
    7960:	48 8d 05 59 d4 01 00 	lea    0x1d459(%rip),%rax        # 24dc0 <_ZN8simdjsonL12power_of_tenE>
    7967:	f2 42 0f 59 04 d0    	mulsd  (%rax,%r10,8),%xmm0
    796d:	66 0f 57 05 1b f8 01 	xorpd  0x1f81b(%rip),%xmm0        # 27190 <_ZZN8simdjson7haswell15utf8_validation13is_incompleteENS0_4simd5simd8IhEEE9max_array+0x170>
    7974:	00 
    7975:	66 48 0f 7e c2       	movq   %xmm0,%rdx
    797a:	e9 f4 f3 ff ff       	jmpq   6d73 <_ZNK8simdjson8fallback14implementation6stage2EPKhmRNS_3dom6parserE+0x1a13>
    797f:	48 6b d2 0a          	imul   $0xa,%rdx,%rdx
    7983:	45 0f b6 db          	movzbl %r11b,%r11d
    7987:	4c 01 da             	add    %r11,%rdx
    798a:	4c 8d 59 01          	lea    0x1(%rcx),%r11
    798e:	0f b6 49 01          	movzbl 0x1(%rcx),%ecx
    7992:	83 e9 30             	sub    $0x30,%ecx
    7995:	80 f9 09             	cmp    $0x9,%cl
    7998:	0f 87 11 e5 ff ff    	ja     5eaf <_ZNK8simdjson8fallback14implementation6stage2EPKhmRNS_3dom6parserE+0xb4f>
    799e:	48 89 44 24 08       	mov    %rax,0x8(%rsp)
    79a3:	eb 13                	jmp    79b8 <_ZNK8simdjson8fallback14implementation6stage2EPKhmRNS_3dom6parserE+0x2658>
    79a5:	48 b8 00 00 00 00 01 	movabs $0x100000000,%rax
    79ac:	00 00 00 
    79af:	48 39 c2             	cmp    %rax,%rdx
    79b2:	0f 8f ac dc ff ff    	jg     5664 <_ZNK8simdjson8fallback14implementation6stage2EPKhmRNS_3dom6parserE+0x304>
    79b8:	49 83 c3 01          	add    $0x1,%r11
    79bc:	41 0f b6 03          	movzbl (%r11),%eax
    79c0:	0f b6 c9             	movzbl %cl,%ecx
    79c3:	48 8d 14 92          	lea    (%rdx,%rdx,4),%rdx
    79c7:	48 8d 14 51          	lea    (%rcx,%rdx,2),%rdx
    79cb:	8d 48 d0             	lea    -0x30(%rax),%ecx
    79ce:	80 f9 09             	cmp    $0x9,%cl
    79d1:	76 d2                	jbe    79a5 <_ZNK8simdjson8fallback14implementation6stage2EPKhmRNS_3dom6parserE+0x2645>
    79d3:	48 8b 44 24 08       	mov    0x8(%rsp),%rax
    79d8:	e9 d2 e4 ff ff       	jmpq   5eaf <_ZNK8simdjson8fallback14implementation6stage2EPKhmRNS_3dom6parserE+0xb4f>
    79dd:	83 fe 11             	cmp    $0x11,%esi
    79e0:	0f 8f 8d 09 00 00    	jg     8373 <_ZNK8simdjson8fallback14implementation6stage2EPKhmRNS_3dom6parserE+0x3013>
    79e6:	8b 33                	mov    (%rbx),%esi
    79e8:	48 8b 7b 28          	mov    0x28(%rbx),%rdi
    79ec:	48 f7 d8             	neg    %rax
    79ef:	49 bb 00 00 00 00 00 	movabs $0x6c00000000000000,%r11
    79f6:	00 00 6c 
    79f9:	8d 4e 01             	lea    0x1(%rsi),%ecx
    79fc:	89 0b                	mov    %ecx,(%rbx)
    79fe:	4c 89 1c f7          	mov    %r11,(%rdi,%rsi,8)
    7a02:	e9 2f e3 ff ff       	jmpq   5d36 <_ZNK8simdjson8fallback14implementation6stage2EPKhmRNS_3dom6parserE+0x9d6>
    7a07:	48 83 c6 02          	add    $0x2,%rsi
    7a0b:	c6 04 24 01          	movb   $0x1,(%rsp)
    7a0f:	e9 84 fa ff ff       	jmpq   7498 <_ZNK8simdjson8fallback14implementation6stage2EPKhmRNS_3dom6parserE+0x2138>
    7a14:	48 6b c9 0a          	imul   $0xa,%rcx,%rcx
    7a18:	40 0f b6 ff          	movzbl %dil,%edi
    7a1c:	48 83 c6 02          	add    $0x2,%rsi
    7a20:	48 01 f9             	add    %rdi,%rcx
    7a23:	e9 97 fa ff ff       	jmpq   74bf <_ZNK8simdjson8fallback14implementation6stage2EPKhmRNS_3dom6parserE+0x215f>
    7a28:	89 cf                	mov    %ecx,%edi
    7a2a:	c1 ef 0c             	shr    $0xc,%edi
    7a2d:	83 ef 20             	sub    $0x20,%edi
    7a30:	40 88 3a             	mov    %dil,(%rdx)
    7a33:	89 cf                	mov    %ecx,%edi
    7a35:	83 e1 3f             	and    $0x3f,%ecx
    7a38:	c1 ef 06             	shr    $0x6,%edi
    7a3b:	83 c1 80             	add    $0xffffff80,%ecx
    7a3e:	83 e7 3f             	and    $0x3f,%edi
    7a41:	88 4a 02             	mov    %cl,0x2(%rdx)
    7a44:	b9 03 00 00 00       	mov    $0x3,%ecx
    7a49:	83 c7 80             	add    $0xffffff80,%edi
    7a4c:	40 88 7a 01          	mov    %dil,0x1(%rdx)
    7a50:	e9 dc f4 ff ff       	jmpq   6f31 <_ZNK8simdjson8fallback14implementation6stage2EPKhmRNS_3dom6parserE+0x1bd1>
    7a55:	89 cf                	mov    %ecx,%edi
    7a57:	83 e1 3f             	and    $0x3f,%ecx
    7a5a:	c1 ef 06             	shr    $0x6,%edi
    7a5d:	83 c1 80             	add    $0xffffff80,%ecx
    7a60:	83 ef 40             	sub    $0x40,%edi
    7a63:	88 4a 01             	mov    %cl,0x1(%rdx)
    7a66:	b9 02 00 00 00       	mov    $0x2,%ecx
    7a6b:	40 88 3a             	mov    %dil,(%rdx)
    7a6e:	e9 be f4 ff ff       	jmpq   6f31 <_ZNK8simdjson8fallback14implementation6stage2EPKhmRNS_3dom6parserE+0x1bd1>
    7a73:	48 83 c2 06          	add    $0x6,%rdx
    7a77:	e9 26 f7 ff ff       	jmpq   71a2 <_ZNK8simdjson8fallback14implementation6stage2EPKhmRNS_3dom6parserE+0x1e42>
    7a7c:	48 83 c1 02          	add    $0x2,%rcx
    7a80:	c6 04 24 01          	movb   $0x1,(%rsp)
    7a84:	e9 eb e3 ff ff       	jmpq   5e74 <_ZNK8simdjson8fallback14implementation6stage2EPKhmRNS_3dom6parserE+0xb14>
    7a89:	49 f7 da             	neg    %r10
    7a8c:	48 8d 05 2d d3 01 00 	lea    0x1d32d(%rip),%rax        # 24dc0 <_ZN8simdjsonL12power_of_tenE>
    7a93:	f2 42 0f 5e 04 d0    	divsd  (%rax,%r10,8),%xmm0
    7a99:	e9 cf fe ff ff       	jmpq   796d <_ZNK8simdjson8fallback14implementation6stage2EPKhmRNS_3dom6parserE+0x260d>
    7a9e:	48 83 c6 02          	add    $0x2,%rsi
    7aa2:	c6 04 24 00          	movb   $0x0,(%rsp)
    7aa6:	e9 ed f9 ff ff       	jmpq   7498 <_ZNK8simdjson8fallback14implementation6stage2EPKhmRNS_3dom6parserE+0x2138>
    7aab:	48 8d 57 16          	lea    0x16(%rdi),%rdx
    7aaf:	48 83 fa 2c          	cmp    $0x2c,%rdx
    7ab3:	0f 87 79 01 00 00    	ja     7c32 <_ZNK8simdjson8fallback14implementation6stage2EPKhmRNS_3dom6parserE+0x28d2>
    7ab9:	48 ba ff ff ff ff ff 	movabs $0x1fffffffffffff,%rdx
    7ac0:	ff 1f 00 
    7ac3:	48 39 d0             	cmp    %rdx,%rax
    7ac6:	0f 86 32 04 00 00    	jbe    7efe <_ZNK8simdjson8fallback14implementation6stage2EPKhmRNS_3dom6parserE+0x2b9e>
    7acc:	48 89 f1             	mov    %rsi,%rcx
    7acf:	48 8d 15 4a ab 01 00 	lea    0x1ab4a(%rip),%rdx        # 22620 <_ZN8simdjsonL23power_of_ten_componentsE>
    7ad6:	48 c1 e1 04          	shl    $0x4,%rcx
    7ada:	4c 8d 14 0a          	lea    (%rdx,%rcx,1),%r10
    7ade:	48 0f bd c8          	bsr    %rax,%rcx
    7ae2:	48 83 f1 3f          	xor    $0x3f,%rcx
    7ae6:	41 8b 7a 08          	mov    0x8(%r10),%edi
    7aea:	48 d3 e0             	shl    %cl,%rax
    7aed:	41 89 cb             	mov    %ecx,%r11d
    7af0:	48 89 04 24          	mov    %rax,(%rsp)
    7af4:	49 f7 22             	mulq   (%r10)
    7af7:	89 7c 24 08          	mov    %edi,0x8(%rsp)
    7afb:	48 89 c7             	mov    %rax,%rdi
    7afe:	48 89 d0             	mov    %rdx,%rax
    7b01:	49 89 d2             	mov    %rdx,%r10
    7b04:	25 ff 01 00 00       	and    $0x1ff,%eax
    7b09:	48 3d ff 01 00 00    	cmp    $0x1ff,%rax
    7b0f:	0f 84 bd 03 00 00    	je     7ed2 <_ZNK8simdjson8fallback14implementation6stage2EPKhmRNS_3dom6parserE+0x2b72>
    7b15:	4c 89 d2             	mov    %r10,%rdx
    7b18:	4c 89 d0             	mov    %r10,%rax
    7b1b:	41 81 e2 ff 01 00 00 	and    $0x1ff,%r10d
    7b22:	48 c1 ea 3f          	shr    $0x3f,%rdx
    7b26:	8d 4a 09             	lea    0x9(%rdx),%ecx
    7b29:	83 f2 01             	xor    $0x1,%edx
    7b2c:	48 d3 e8             	shr    %cl,%rax
    7b2f:	41 01 d3             	add    %edx,%r11d
    7b32:	49 09 fa             	or     %rdi,%r10
    7b35:	0f 84 f2 08 00 00    	je     842d <_ZNK8simdjson8fallback14implementation6stage2EPKhmRNS_3dom6parserE+0x30cd>
    7b3b:	48 ba ff ff ff ff ff 	movabs $0x1fffffffffffff,%rdx
    7b42:	ff 1f 00 
    7b45:	48 83 c0 01          	add    $0x1,%rax
    7b49:	48 d1 e8             	shr    %rax
    7b4c:	48 39 d0             	cmp    %rdx,%rax
    7b4f:	76 0d                	jbe    7b5e <_ZNK8simdjson8fallback14implementation6stage2EPKhmRNS_3dom6parserE+0x27fe>
    7b51:	b8 01 00 00 00       	mov    $0x1,%eax
    7b56:	41 83 eb 01          	sub    $0x1,%r11d
    7b5a:	48 c1 e0 34          	shl    $0x34,%rax
    7b5e:	48 0f ba f0 34       	btr    $0x34,%rax
    7b63:	48 89 c2             	mov    %rax,%rdx
    7b66:	8b 44 24 08          	mov    0x8(%rsp),%eax
    7b6a:	44 29 d8             	sub    %r11d,%eax
    7b6d:	48 98                	cltq   
    7b6f:	48 8d 48 ff          	lea    -0x1(%rax),%rcx
    7b73:	48 81 f9 fd 07 00 00 	cmp    $0x7fd,%rcx
    7b7a:	0f 87 bd 08 00 00    	ja     843d <_ZNK8simdjson8fallback14implementation6stage2EPKhmRNS_3dom6parserE+0x30dd>
    7b80:	48 c1 e0 34          	shl    $0x34,%rax
    7b84:	48 09 d0             	or     %rdx,%rax
    7b87:	48 0f ba e8 3f       	bts    $0x3f,%rax
    7b8c:	8b 33                	mov    (%rbx),%esi
    7b8e:	48 8b 4b 28          	mov    0x28(%rbx),%rcx
    7b92:	bf 19 00 00 00       	mov    $0x19,%edi
    7b97:	48 c1 e7 3a          	shl    $0x3a,%rdi
    7b9b:	48 89 f2             	mov    %rsi,%rdx
    7b9e:	48 89 3c f1          	mov    %rdi,(%rcx,%rsi,8)
    7ba2:	8d 76 02             	lea    0x2(%rsi),%esi
    7ba5:	83 c2 01             	add    $0x1,%edx
    7ba8:	89 33                	mov    %esi,(%rbx)
    7baa:	48 89 04 d1          	mov    %rax,(%rcx,%rdx,8)
    7bae:	e9 7a e0 ff ff       	jmpq   5c2d <_ZNK8simdjson8fallback14implementation6stage2EPKhmRNS_3dom6parserE+0x8cd>
    7bb3:	48 6b d2 0a          	imul   $0xa,%rdx,%rdx
    7bb7:	45 0f b6 db          	movzbl %r11b,%r11d
    7bbb:	48 83 c1 02          	add    $0x2,%rcx
    7bbf:	4c 01 da             	add    %r11,%rdx
    7bc2:	e9 d6 e2 ff ff       	jmpq   5e9d <_ZNK8simdjson8fallback14implementation6stage2EPKhmRNS_3dom6parserE+0xb3d>
    7bc7:	49 f7 d9             	neg    %r9
    7bca:	48 8d 05 ef d1 01 00 	lea    0x1d1ef(%rip),%rax        # 24dc0 <_ZN8simdjsonL12power_of_tenE>
    7bd1:	f2 42 0f 5e 04 c8    	divsd  (%rax,%r9,8),%xmm0
    7bd7:	66 48 0f 7e c2       	movq   %xmm0,%rdx
    7bdc:	e9 92 f1 ff ff       	jmpq   6d73 <_ZNK8simdjson8fallback14implementation6stage2EPKhmRNS_3dom6parserE+0x1a13>
    7be1:	49 83 c4 06          	add    $0x6,%r12
    7be5:	e9 1c fd ff ff       	jmpq   7906 <_ZNK8simdjson8fallback14implementation6stage2EPKhmRNS_3dom6parserE+0x25a6>
    7bea:	48 83 c1 02          	add    $0x2,%rcx
    7bee:	c6 04 24 00          	movb   $0x0,(%rsp)
    7bf2:	e9 7d e2 ff ff       	jmpq   5e74 <_ZNK8simdjson8fallback14implementation6stage2EPKhmRNS_3dom6parserE+0xb14>
    7bf7:	48 89 c8             	mov    %rcx,%rax
    7bfa:	4c 01 d0             	add    %r10,%rax
    7bfd:	0f 83 b8 02 00 00    	jae    7ebb <_ZNK8simdjson8fallback14implementation6stage2EPKhmRNS_3dom6parserE+0x2b5b>
    7c03:	4c 8d 1d 36 96 01 00 	lea    0x19636(%rip),%r11        # 21240 <_ZN8simdjsonL12mantissa_128E>
    7c0a:	48 89 c8             	mov    %rcx,%rax
    7c0d:	4b f7 24 cb          	mulq   (%r11,%r9,8)
    7c11:	49 89 d1             	mov    %rdx,%r9
    7c14:	4d 01 d1             	add    %r10,%r9
    7c17:	4d 89 ca             	mov    %r9,%r10
    7c1a:	0f 83 a3 e5 ff ff    	jae    61c3 <_ZNK8simdjson8fallback14implementation6stage2EPKhmRNS_3dom6parserE+0xe63>
    7c20:	48 83 c6 01          	add    $0x1,%rsi
    7c24:	48 89 f2             	mov    %rsi,%rdx
    7c27:	81 e2 ff 01 00 00    	and    $0x1ff,%edx
    7c2d:	e9 d6 f0 ff ff       	jmpq   6d08 <_ZNK8simdjson8fallback14implementation6stage2EPKhmRNS_3dom6parserE+0x19a8>
    7c32:	48 85 c0             	test   %rax,%rax
    7c35:	0f 85 91 fe ff ff    	jne    7acc <_ZNK8simdjson8fallback14implementation6stage2EPKhmRNS_3dom6parserE+0x276c>
    7c3b:	48 8b 05 c6 f7 01 00 	mov    0x1f7c6(%rip),%rax        # 27408 <_ZZN8simdjson7haswell15utf8_validation13is_incompleteENS0_4simd5simd8IhEEE9max_array+0x3e8>
