
parse:     file format elf64-x86-64


Disassembly of section .init:

0000000000402000 <_init>:
  402000:	48 83 ec 08          	sub    rsp,0x8
  402004:	48 8b 05 ed 0f 01 00 	mov    rax,QWORD PTR [rip+0x10fed]        # 412ff8 <__gmon_start__>
  40200b:	48 85 c0             	test   rax,rax
  40200e:	74 05                	je     402015 <_init+0x15>
  402010:	e8 ab 03 00 00       	call   4023c0 <__gmon_start__@plt>
  402015:	48 83 c4 08          	add    rsp,0x8
  402019:	c3                   	ret    

Disassembly of section .plt:

0000000000402020 <.plt>:
  402020:	ff 35 e2 0f 01 00    	push   QWORD PTR [rip+0x10fe2]        # 413008 <_GLOBAL_OFFSET_TABLE_+0x8>
  402026:	ff 25 e4 0f 01 00    	jmp    QWORD PTR [rip+0x10fe4]        # 413010 <_GLOBAL_OFFSET_TABLE_+0x10>
  40202c:	0f 1f 40 00          	nop    DWORD PTR [rax+0x0]

0000000000402030 <ftell@plt>:
  402030:	ff 25 e2 0f 01 00    	jmp    QWORD PTR [rip+0x10fe2]        # 413018 <ftell@GLIBC_2.2.5>
  402036:	68 00 00 00 00       	push   0x0
  40203b:	e9 e0 ff ff ff       	jmp    402020 <.plt>

0000000000402040 <std::ostream::put(char)@plt>:
  402040:	ff 25 da 0f 01 00    	jmp    QWORD PTR [rip+0x10fda]        # 413020 <std::ostream::put(char)@GLIBCXX_3.4>
  402046:	68 01 00 00 00       	push   0x1
  40204b:	e9 d0 ff ff ff       	jmp    402020 <.plt>

0000000000402050 <__errno_location@plt>:
  402050:	ff 25 d2 0f 01 00    	jmp    QWORD PTR [rip+0x10fd2]        # 413028 <__errno_location@GLIBC_2.2.5>
  402056:	68 02 00 00 00       	push   0x2
  40205b:	e9 c0 ff ff ff       	jmp    402020 <.plt>

0000000000402060 <printf@plt>:
  402060:	ff 25 ca 0f 01 00    	jmp    QWORD PTR [rip+0x10fca]        # 413030 <printf@GLIBC_2.2.5>
  402066:	68 03 00 00 00       	push   0x3
  40206b:	e9 b0 ff ff ff       	jmp    402020 <.plt>

0000000000402070 <syscall@plt>:
  402070:	ff 25 c2 0f 01 00    	jmp    QWORD PTR [rip+0x10fc2]        # 413038 <syscall@GLIBC_2.2.5>
  402076:	68 04 00 00 00       	push   0x4
  40207b:	e9 a0 ff ff ff       	jmp    402020 <.plt>

0000000000402080 <rewind@plt>:
  402080:	ff 25 ba 0f 01 00    	jmp    QWORD PTR [rip+0x10fba]        # 413040 <rewind@GLIBC_2.2.5>
  402086:	68 05 00 00 00       	push   0x5
  40208b:	e9 90 ff ff ff       	jmp    402020 <.plt>

0000000000402090 <getopt@plt>:
  402090:	ff 25 b2 0f 01 00    	jmp    QWORD PTR [rip+0x10fb2]        # 413048 <getopt@GLIBC_2.2.5>
  402096:	68 06 00 00 00       	push   0x6
  40209b:	e9 80 ff ff ff       	jmp    402020 <.plt>

00000000004020a0 <strerror@plt>:
  4020a0:	ff 25 aa 0f 01 00    	jmp    QWORD PTR [rip+0x10faa]        # 413050 <strerror@GLIBC_2.2.5>
  4020a6:	68 07 00 00 00       	push   0x7
  4020ab:	e9 70 ff ff ff       	jmp    402020 <.plt>

00000000004020b0 <std::__throw_bad_alloc()@plt>:
  4020b0:	ff 25 a2 0f 01 00    	jmp    QWORD PTR [rip+0x10fa2]        # 413058 <std::__throw_bad_alloc()@GLIBCXX_3.4>
  4020b6:	68 08 00 00 00       	push   0x8
  4020bb:	e9 60 ff ff ff       	jmp    402020 <.plt>

00000000004020c0 <strlen@plt>:
  4020c0:	ff 25 9a 0f 01 00    	jmp    QWORD PTR [rip+0x10f9a]        # 413060 <strlen@GLIBC_2.2.5>
  4020c6:	68 09 00 00 00       	push   0x9
  4020cb:	e9 50 ff ff ff       	jmp    402020 <.plt>

00000000004020d0 <memcmp@plt>:
  4020d0:	ff 25 92 0f 01 00    	jmp    QWORD PTR [rip+0x10f92]        # 413068 <memcmp@GLIBC_2.2.5>
  4020d6:	68 0a 00 00 00       	push   0xa
  4020db:	e9 40 ff ff ff       	jmp    402020 <.plt>

00000000004020e0 <std::basic_ostream<char, std::char_traits<char> >& std::endl<char, std::char_traits<char> >(std::basic_ostream<char, std::char_traits<char> >&)@plt>:
  4020e0:	ff 25 8a 0f 01 00    	jmp    QWORD PTR [rip+0x10f8a]        # 413070 <std::basic_ostream<char, std::char_traits<char> >& std::endl<char, std::char_traits<char> >(std::basic_ostream<char, std::char_traits<char> >&)@GLIBCXX_3.4>
  4020e6:	68 0b 00 00 00       	push   0xb
  4020eb:	e9 30 ff ff ff       	jmp    402020 <.plt>

00000000004020f0 <posix_memalign@plt>:
  4020f0:	ff 25 82 0f 01 00    	jmp    QWORD PTR [rip+0x10f82]        # 413078 <posix_memalign@GLIBC_2.2.5>
  4020f6:	68 0c 00 00 00       	push   0xc
  4020fb:	e9 20 ff ff ff       	jmp    402020 <.plt>

0000000000402100 <std::__throw_length_error(char const*)@plt>:
  402100:	ff 25 7a 0f 01 00    	jmp    QWORD PTR [rip+0x10f7a]        # 413080 <std::__throw_length_error(char const*)@GLIBCXX_3.4>
  402106:	68 0d 00 00 00       	push   0xd
  40210b:	e9 10 ff ff ff       	jmp    402020 <.plt>

0000000000402110 <memset@plt>:
  402110:	ff 25 72 0f 01 00    	jmp    QWORD PTR [rip+0x10f72]        # 413088 <memset@GLIBC_2.2.5>
  402116:	68 0e 00 00 00       	push   0xe
  40211b:	e9 00 ff ff ff       	jmp    402020 <.plt>

0000000000402120 <vsnprintf@plt>:
  402120:	ff 25 6a 0f 01 00    	jmp    QWORD PTR [rip+0x10f6a]        # 413090 <vsnprintf@GLIBC_2.2.5>
  402126:	68 0f 00 00 00       	push   0xf
  40212b:	e9 f0 fe ff ff       	jmp    402020 <.plt>

0000000000402130 <std::ostream::flush()@plt>:
  402130:	ff 25 62 0f 01 00    	jmp    QWORD PTR [rip+0x10f62]        # 413098 <std::ostream::flush()@GLIBCXX_3.4>
  402136:	68 10 00 00 00       	push   0x10
  40213b:	e9 e0 fe ff ff       	jmp    402020 <.plt>

0000000000402140 <std::__throw_logic_error(char const*)@plt>:
  402140:	ff 25 5a 0f 01 00    	jmp    QWORD PTR [rip+0x10f5a]        # 4130a0 <std::__throw_logic_error(char const*)@GLIBCXX_3.4>
  402146:	68 11 00 00 00       	push   0x11
  40214b:	e9 d0 fe ff ff       	jmp    402020 <.plt>

0000000000402150 <memcpy@plt>:
  402150:	ff 25 52 0f 01 00    	jmp    QWORD PTR [rip+0x10f52]        # 4130a8 <memcpy@GLIBC_2.14>
  402156:	68 12 00 00 00       	push   0x12
  40215b:	e9 c0 fe ff ff       	jmp    402020 <.plt>

0000000000402160 <__cxa_atexit@plt>:
  402160:	ff 25 4a 0f 01 00    	jmp    QWORD PTR [rip+0x10f4a]        # 4130b0 <__cxa_atexit@GLIBC_2.2.5>
  402166:	68 13 00 00 00       	push   0x13
  40216b:	e9 b0 fe ff ff       	jmp    402020 <.plt>

0000000000402170 <operator delete(void*)@plt>:
  402170:	ff 25 42 0f 01 00    	jmp    QWORD PTR [rip+0x10f42]        # 4130b8 <operator delete(void*)@GLIBCXX_3.4>
  402176:	68 14 00 00 00       	push   0x14
  40217b:	e9 a0 fe ff ff       	jmp    402020 <.plt>

0000000000402180 <fclose@plt>:
  402180:	ff 25 3a 0f 01 00    	jmp    QWORD PTR [rip+0x10f3a]        # 4130c0 <fclose@GLIBC_2.2.5>
  402186:	68 15 00 00 00       	push   0x15
  40218b:	e9 90 fe ff ff       	jmp    402020 <.plt>

0000000000402190 <operator new(unsigned long)@plt>:
  402190:	ff 25 32 0f 01 00    	jmp    QWORD PTR [rip+0x10f32]        # 4130c8 <operator new(unsigned long)@GLIBCXX_3.4>
  402196:	68 16 00 00 00       	push   0x16
  40219b:	e9 80 fe ff ff       	jmp    402020 <.plt>

00000000004021a0 <operator delete(void*, unsigned long)@plt>:
  4021a0:	ff 25 2a 0f 01 00    	jmp    QWORD PTR [rip+0x10f2a]        # 4130d0 <operator delete(void*, unsigned long)@CXXABI_1.3.9>
  4021a6:	68 17 00 00 00       	push   0x17
  4021ab:	e9 70 fe ff ff       	jmp    402020 <.plt>

00000000004021b0 <fseek@plt>:
  4021b0:	ff 25 22 0f 01 00    	jmp    QWORD PTR [rip+0x10f22]        # 4130d8 <fseek@GLIBC_2.2.5>
  4021b6:	68 18 00 00 00       	push   0x18
  4021bb:	e9 60 fe ff ff       	jmp    402020 <.plt>

00000000004021c0 <std::basic_ostream<char, std::char_traits<char> >& std::__ostream_insert<char, std::char_traits<char> >(std::basic_ostream<char, std::char_traits<char> >&, char const*, long)@plt>:
  4021c0:	ff 25 1a 0f 01 00    	jmp    QWORD PTR [rip+0x10f1a]        # 4130e0 <std::basic_ostream<char, std::char_traits<char> >& std::__ostream_insert<char, std::char_traits<char> >(std::basic_ostream<char, std::char_traits<char> >&, char const*, long)@GLIBCXX_3.4.9>
  4021c6:	68 19 00 00 00       	push   0x19
  4021cb:	e9 50 fe ff ff       	jmp    402020 <.plt>

00000000004021d0 <std::ctype<char>::_M_widen_init() const@plt>:
  4021d0:	ff 25 12 0f 01 00    	jmp    QWORD PTR [rip+0x10f12]        # 4130e8 <std::ctype<char>::_M_widen_init() const@GLIBCXX_3.4.11>
  4021d6:	68 1a 00 00 00       	push   0x1a
  4021db:	e9 40 fe ff ff       	jmp    402020 <.plt>

00000000004021e0 <fopen@plt>:
  4021e0:	ff 25 0a 0f 01 00    	jmp    QWORD PTR [rip+0x10f0a]        # 4130f0 <fopen@GLIBC_2.2.5>
  4021e6:	68 1b 00 00 00       	push   0x1b
  4021eb:	e9 30 fe ff ff       	jmp    402020 <.plt>

00000000004021f0 <free@plt>:
  4021f0:	ff 25 02 0f 01 00    	jmp    QWORD PTR [rip+0x10f02]        # 4130f8 <free@GLIBC_2.2.5>
  4021f6:	68 1c 00 00 00       	push   0x1c
  4021fb:	e9 20 fe ff ff       	jmp    402020 <.plt>

0000000000402200 <exit@plt>:
  402200:	ff 25 fa 0e 01 00    	jmp    QWORD PTR [rip+0x10efa]        # 413100 <exit@GLIBC_2.2.5>
  402206:	68 1d 00 00 00       	push   0x1d
  40220b:	e9 10 fe ff ff       	jmp    402020 <.plt>

0000000000402210 <simdjson::internal::available_implementation_list::end() const@plt>:
  402210:	ff 25 f2 0e 01 00    	jmp    QWORD PTR [rip+0x10ef2]        # 413108 <simdjson::internal::available_implementation_list::end() const>
  402216:	68 1e 00 00 00       	push   0x1e
  40221b:	e9 00 fe ff ff       	jmp    402020 <.plt>

0000000000402220 <fputc@plt>:
  402220:	ff 25 ea 0e 01 00    	jmp    QWORD PTR [rip+0x10eea]        # 413110 <fputc@GLIBC_2.2.5>
  402226:	68 1f 00 00 00       	push   0x1f
  40222b:	e9 f0 fd ff ff       	jmp    402020 <.plt>

0000000000402230 <std::__throw_bad_cast()@plt>:
  402230:	ff 25 e2 0e 01 00    	jmp    QWORD PTR [rip+0x10ee2]        # 413118 <std::__throw_bad_cast()@GLIBCXX_3.4>
  402236:	68 20 00 00 00       	push   0x20
  40223b:	e9 e0 fd ff ff       	jmp    402020 <.plt>

0000000000402240 <operator delete[](void*)@plt>:
  402240:	ff 25 da 0e 01 00    	jmp    QWORD PTR [rip+0x10eda]        # 413120 <operator delete[](void*)@GLIBCXX_3.4>
  402246:	68 21 00 00 00       	push   0x21
  40224b:	e9 d0 fd ff ff       	jmp    402020 <.plt>

0000000000402250 <std::chrono::_V2::steady_clock::now()@plt>:
  402250:	ff 25 d2 0e 01 00    	jmp    QWORD PTR [rip+0x10ed2]        # 413128 <std::chrono::_V2::steady_clock::now()@GLIBCXX_3.4.19>
  402256:	68 22 00 00 00       	push   0x22
  40225b:	e9 c0 fd ff ff       	jmp    402020 <.plt>

0000000000402260 <malloc@plt>:
  402260:	ff 25 ca 0e 01 00    	jmp    QWORD PTR [rip+0x10eca]        # 413130 <malloc@GLIBC_2.2.5>
  402266:	68 23 00 00 00       	push   0x23
  40226b:	e9 b0 fd ff ff       	jmp    402020 <.plt>

0000000000402270 <putchar@plt>:
  402270:	ff 25 c2 0e 01 00    	jmp    QWORD PTR [rip+0x10ec2]        # 413138 <putchar@GLIBC_2.2.5>
  402276:	68 24 00 00 00       	push   0x24
  40227b:	e9 a0 fd ff ff       	jmp    402020 <.plt>

0000000000402280 <strtol@plt>:
  402280:	ff 25 ba 0e 01 00    	jmp    QWORD PTR [rip+0x10eba]        # 413140 <strtol@GLIBC_2.2.5>
  402286:	68 25 00 00 00       	push   0x25
  40228b:	e9 90 fd ff ff       	jmp    402020 <.plt>

0000000000402290 <ioctl@plt>:
  402290:	ff 25 b2 0e 01 00    	jmp    QWORD PTR [rip+0x10eb2]        # 413148 <ioctl@GLIBC_2.2.5>
  402296:	68 26 00 00 00       	push   0x26
  40229b:	e9 80 fd ff ff       	jmp    402020 <.plt>

00000000004022a0 <__cxa_throw_bad_array_new_length@plt>:
  4022a0:	ff 25 aa 0e 01 00    	jmp    QWORD PTR [rip+0x10eaa]        # 413150 <__cxa_throw_bad_array_new_length@CXXABI_1.3.8>
  4022a6:	68 27 00 00 00       	push   0x27
  4022ab:	e9 70 fd ff ff       	jmp    402020 <.plt>

00000000004022b0 <read@plt>:
  4022b0:	ff 25 a2 0e 01 00    	jmp    QWORD PTR [rip+0x10ea2]        # 413158 <read@GLIBC_2.2.5>
  4022b6:	68 28 00 00 00       	push   0x28
  4022bb:	e9 60 fd ff ff       	jmp    402020 <.plt>

00000000004022c0 <std::basic_ofstream<char, std::char_traits<char> >::~basic_ofstream()@plt>:
  4022c0:	ff 25 9a 0e 01 00    	jmp    QWORD PTR [rip+0x10e9a]        # 413160 <std::basic_ofstream<char, std::char_traits<char> >::~basic_ofstream()@GLIBCXX_3.4>
  4022c6:	68 29 00 00 00       	push   0x29
  4022cb:	e9 50 fd ff ff       	jmp    402020 <.plt>

00000000004022d0 <fread@plt>:
  4022d0:	ff 25 92 0e 01 00    	jmp    QWORD PTR [rip+0x10e92]        # 413168 <fread@GLIBC_2.2.5>
  4022d6:	68 2a 00 00 00       	push   0x2a
  4022db:	e9 40 fd ff ff       	jmp    402020 <.plt>

00000000004022e0 <std::ios_base::Init::Init()@plt>:
  4022e0:	ff 25 8a 0e 01 00    	jmp    QWORD PTR [rip+0x10e8a]        # 413170 <std::ios_base::Init::Init()@GLIBCXX_3.4>
  4022e6:	68 2b 00 00 00       	push   0x2b
  4022eb:	e9 30 fd ff ff       	jmp    402020 <.plt>

00000000004022f0 <puts@plt>:
  4022f0:	ff 25 82 0e 01 00    	jmp    QWORD PTR [rip+0x10e82]        # 413178 <puts@GLIBC_2.2.5>
  4022f6:	68 2c 00 00 00       	push   0x2c
  4022fb:	e9 20 fd ff ff       	jmp    402020 <.plt>

0000000000402300 <memmove@plt>:
  402300:	ff 25 7a 0e 01 00    	jmp    QWORD PTR [rip+0x10e7a]        # 413180 <memmove@GLIBC_2.2.5>
  402306:	68 2d 00 00 00       	push   0x2d
  40230b:	e9 10 fd ff ff       	jmp    402020 <.plt>

0000000000402310 <operator new[](unsigned long, std::nothrow_t const&)@plt>:
  402310:	ff 25 72 0e 01 00    	jmp    QWORD PTR [rip+0x10e72]        # 413188 <operator new[](unsigned long, std::nothrow_t const&)@GLIBCXX_3.4>
  402316:	68 2e 00 00 00       	push   0x2e
  40231b:	e9 00 fd ff ff       	jmp    402020 <.plt>

0000000000402320 <__gxx_personality_v0@plt>:
  402320:	ff 25 6a 0e 01 00    	jmp    QWORD PTR [rip+0x10e6a]        # 413190 <__gxx_personality_v0@CXXABI_1.3>
  402326:	68 2f 00 00 00       	push   0x2f
  40232b:	e9 f0 fc ff ff       	jmp    402020 <.plt>

0000000000402330 <std::basic_ios<char, std::char_traits<char> >::clear(std::_Ios_Iostate)@plt>:
  402330:	ff 25 62 0e 01 00    	jmp    QWORD PTR [rip+0x10e62]        # 413198 <std::basic_ios<char, std::char_traits<char> >::clear(std::_Ios_Iostate)@GLIBCXX_3.4>
  402336:	68 30 00 00 00       	push   0x30
  40233b:	e9 e0 fc ff ff       	jmp    402020 <.plt>

0000000000402340 <std::basic_ofstream<char, std::char_traits<char> >::basic_ofstream()@plt>:
  402340:	ff 25 5a 0e 01 00    	jmp    QWORD PTR [rip+0x10e5a]        # 4131a0 <std::basic_ofstream<char, std::char_traits<char> >::basic_ofstream()@GLIBCXX_3.4>
  402346:	68 31 00 00 00       	push   0x31
  40234b:	e9 d0 fc ff ff       	jmp    402020 <.plt>

0000000000402350 <std::ostream::operator<<(int)@plt>:
  402350:	ff 25 52 0e 01 00    	jmp    QWORD PTR [rip+0x10e52]        # 4131a8 <std::ostream::operator<<(int)@GLIBCXX_3.4>
  402356:	68 32 00 00 00       	push   0x32
  40235b:	e9 c0 fc ff ff       	jmp    402020 <.plt>

0000000000402360 <__xpg_basename@plt>:
  402360:	ff 25 4a 0e 01 00    	jmp    QWORD PTR [rip+0x10e4a]        # 4131b0 <__xpg_basename@GLIBC_2.2.5>
  402366:	68 33 00 00 00       	push   0x33
  40236b:	e9 b0 fc ff ff       	jmp    402020 <.plt>

0000000000402370 <_Unwind_Resume@plt>:
  402370:	ff 25 42 0e 01 00    	jmp    QWORD PTR [rip+0x10e42]        # 4131b8 <_Unwind_Resume@GCC_3.0>
  402376:	68 34 00 00 00       	push   0x34
  40237b:	e9 a0 fc ff ff       	jmp    402020 <.plt>

0000000000402380 <simdjson::internal::available_implementation_list::begin() const@plt>:
  402380:	ff 25 3a 0e 01 00    	jmp    QWORD PTR [rip+0x10e3a]        # 4131c0 <simdjson::internal::available_implementation_list::begin() const>
  402386:	68 35 00 00 00       	push   0x35
  40238b:	e9 90 fc ff ff       	jmp    402020 <.plt>

0000000000402390 <__libc_start_main@plt>:
  402390:	ff 25 32 0e 01 00    	jmp    QWORD PTR [rip+0x10e32]        # 4131c8 <__libc_start_main@GLIBC_2.2.5>
  402396:	68 36 00 00 00       	push   0x36
  40239b:	e9 80 fc ff ff       	jmp    402020 <.plt>

00000000004023a0 <close@plt>:
  4023a0:	ff 25 2a 0e 01 00    	jmp    QWORD PTR [rip+0x10e2a]        # 4131d0 <close@GLIBC_2.2.5>
  4023a6:	68 37 00 00 00       	push   0x37
  4023ab:	e9 70 fc ff ff       	jmp    402020 <.plt>

00000000004023b0 <std::ios_base::Init::~Init()@plt>:
  4023b0:	ff 25 22 0e 01 00    	jmp    QWORD PTR [rip+0x10e22]        # 4131d8 <std::ios_base::Init::~Init()@GLIBCXX_3.4>
  4023b6:	68 38 00 00 00       	push   0x38
  4023bb:	e9 60 fc ff ff       	jmp    402020 <.plt>

Disassembly of section .plt.got:

00000000004023c0 <__gmon_start__@plt>:
  4023c0:	ff 25 32 0c 01 00    	jmp    QWORD PTR [rip+0x10c32]        # 412ff8 <__gmon_start__>
  4023c6:	66 90                	xchg   ax,ax

Disassembly of section .text:

00000000004023d0 <simdjson::dom::parser::parse(unsigned char const*, unsigned long, bool) & [clone .constprop.187] [clone .cold.190]>:
  4023d0:	e8 cb fe ff ff       	call   4022a0 <__cxa_throw_bad_array_new_length@plt>
  4023d5:	e8 c6 fe ff ff       	call   4022a0 <__cxa_throw_bad_array_new_length@plt>
  4023da:	e8 c1 fe ff ff       	call   4022a0 <__cxa_throw_bad_array_new_length@plt>

00000000004023df <main.cold.191>:
  4023df:	4c 89 ef             	mov    rdi,r13
  4023e2:	e8 29 66 00 00       	call   408a10 <std::__cxx11::basic_string<char, std::char_traits<char>, std::allocator<char> >::~basic_string()>
  4023e7:	4c 89 e7             	mov    rdi,r12
  4023ea:	e8 21 66 00 00       	call   408a10 <std::__cxx11::basic_string<char, std::char_traits<char>, std::allocator<char> >::~basic_string()>
  4023ef:	4c 89 f7             	mov    rdi,r14
  4023f2:	e8 19 66 00 00       	call   408a10 <std::__cxx11::basic_string<char, std::char_traits<char>, std::allocator<char> >::~basic_string()>
  4023f7:	48 89 ef             	mov    rdi,rbp
  4023fa:	4c 8d a4 24 f0 00 00 00 	lea    r12,[rsp+0xf0]
  402402:	e8 09 66 00 00       	call   408a10 <std::__cxx11::basic_string<char, std::char_traits<char>, std::allocator<char> >::~basic_string()>
  402407:	4c 89 e7             	mov    rdi,r12
  40240a:	48 8d ac 24 d0 00 00 00 	lea    rbp,[rsp+0xd0]
  402412:	e8 39 3f 00 00       	call   406350 <event_count::~event_count()>
  402417:	48 89 ef             	mov    rdi,rbp
  40241a:	e8 31 3f 00 00       	call   406350 <event_count::~event_count()>
  40241f:	4c 89 ff             	mov    rdi,r15
  402422:	e8 b9 3e 00 00       	call   4062e0 <simdjson::dom::parser::~parser()>
  402427:	48 8b 7c 24 50       	mov    rdi,QWORD PTR [rsp+0x50]
  40242c:	48 85 ff             	test   rdi,rdi
  40242f:	74 05                	je     402436 <main.cold.191+0x57>
  402431:	e8 3a fd ff ff       	call   402170 <operator delete(void*)@plt>
  402436:	48 8d bc 24 60 03 00 00 	lea    rdi,[rsp+0x360]
  40243e:	e8 7d 65 00 00       	call   4089c0 <event_collector::~event_collector()>
  402443:	48 8b bc 24 90 01 00 00 	mov    rdi,QWORD PTR [rsp+0x190]
  40244b:	48 85 ff             	test   rdi,rdi
  40244e:	74 05                	je     402455 <main.cold.191+0x76>
  402450:	e8 1b fd ff ff       	call   402170 <operator delete(void*)@plt>
  402455:	48 89 df             	mov    rdi,rbx
  402458:	e8 13 ff ff ff       	call   402370 <_Unwind_Resume@plt>
  40245d:	48 8b 7c 24 08       	mov    rdi,QWORD PTR [rsp+0x8]
  402462:	e8 a9 65 00 00       	call   408a10 <std::__cxx11::basic_string<char, std::char_traits<char>, std::allocator<char> >::~basic_string()>
  402467:	4c 89 ef             	mov    rdi,r13
  40246a:	e8 a1 65 00 00       	call   408a10 <std::__cxx11::basic_string<char, std::char_traits<char>, std::allocator<char> >::~basic_string()>
  40246f:	4c 89 f7             	mov    rdi,r14
  402472:	e8 99 65 00 00       	call   408a10 <std::__cxx11::basic_string<char, std::char_traits<char>, std::allocator<char> >::~basic_string()>
  402477:	48 89 ef             	mov    rdi,rbp
  40247a:	e8 91 65 00 00       	call   408a10 <std::__cxx11::basic_string<char, std::char_traits<char>, std::allocator<char> >::~basic_string()>
  40247f:	4c 89 e7             	mov    rdi,r12
  402482:	48 8d ac 24 d0 00 00 00 	lea    rbp,[rsp+0xd0]
  40248a:	e8 81 65 00 00       	call   408a10 <std::__cxx11::basic_string<char, std::char_traits<char>, std::allocator<char> >::~basic_string()>
  40248f:	eb 86                	jmp    402417 <main.cold.191+0x38>
  402491:	48 8b 7c 24 08       	mov    rdi,QWORD PTR [rsp+0x8]
  402496:	e8 75 65 00 00       	call   408a10 <std::__cxx11::basic_string<char, std::char_traits<char>, std::allocator<char> >::~basic_string()>
  40249b:	4c 89 ef             	mov    rdi,r13
  40249e:	e8 6d 65 00 00       	call   408a10 <std::__cxx11::basic_string<char, std::char_traits<char>, std::allocator<char> >::~basic_string()>
  4024a3:	4c 89 e7             	mov    rdi,r12
  4024a6:	e8 65 65 00 00       	call   408a10 <std::__cxx11::basic_string<char, std::char_traits<char>, std::allocator<char> >::~basic_string()>
  4024ab:	48 89 ef             	mov    rdi,rbp
  4024ae:	e8 5d 65 00 00       	call   408a10 <std::__cxx11::basic_string<char, std::char_traits<char>, std::allocator<char> >::~basic_string()>
  4024b3:	4c 89 f7             	mov    rdi,r14
  4024b6:	4c 8d bc 24 f0 02 00 00 	lea    r15,[rsp+0x2f0]
  4024be:	e8 4d 65 00 00       	call   408a10 <std::__cxx11::basic_string<char, std::char_traits<char>, std::allocator<char> >::~basic_string()>
  4024c3:	e9 57 ff ff ff       	jmp    40241f <main.cold.191+0x40>
  4024c8:	4c 89 ef             	mov    rdi,r13
  4024cb:	e8 40 65 00 00       	call   408a10 <std::__cxx11::basic_string<char, std::char_traits<char>, std::allocator<char> >::~basic_string()>
  4024d0:	4c 89 e7             	mov    rdi,r12
  4024d3:	e8 38 65 00 00       	call   408a10 <std::__cxx11::basic_string<char, std::char_traits<char>, std::allocator<char> >::~basic_string()>
  4024d8:	4c 89 f7             	mov    rdi,r14
  4024db:	e8 30 65 00 00       	call   408a10 <std::__cxx11::basic_string<char, std::char_traits<char>, std::allocator<char> >::~basic_string()>
  4024e0:	4c 89 ff             	mov    rdi,r15
  4024e3:	e8 28 65 00 00       	call   408a10 <std::__cxx11::basic_string<char, std::char_traits<char>, std::allocator<char> >::~basic_string()>
  4024e8:	48 8d bc 24 b0 00 00 00 	lea    rdi,[rsp+0xb0]
  4024f0:	e8 5b 3e 00 00       	call   406350 <event_count::~event_count()>
  4024f5:	48 8d bc 24 90 00 00 00 	lea    rdi,[rsp+0x90]
  4024fd:	e8 4e 3e 00 00       	call   406350 <event_count::~event_count()>
  402502:	48 89 ef             	mov    rdi,rbp
  402505:	e8 d6 3d 00 00       	call   4062e0 <simdjson::dom::parser::~parser()>
  40250a:	e9 18 ff ff ff       	jmp    402427 <main.cold.191+0x48>
  40250f:	be 30 02 00 00       	mov    esi,0x230
  402514:	48 89 ef             	mov    rdi,rbp
  402517:	e8 84 fc ff ff       	call   4021a0 <operator delete(void*, unsigned long)@plt>
  40251c:	e9 06 ff ff ff       	jmp    402427 <main.cold.191+0x48>
  402521:	48 8b 7c 24 08       	mov    rdi,QWORD PTR [rsp+0x8]
  402526:	e8 e5 64 00 00       	call   408a10 <std::__cxx11::basic_string<char, std::char_traits<char>, std::allocator<char> >::~basic_string()>
  40252b:	4c 89 ef             	mov    rdi,r13
  40252e:	e8 dd 64 00 00       	call   408a10 <std::__cxx11::basic_string<char, std::char_traits<char>, std::allocator<char> >::~basic_string()>
  402533:	4c 89 f7             	mov    rdi,r14
  402536:	e8 d5 64 00 00       	call   408a10 <std::__cxx11::basic_string<char, std::char_traits<char>, std::allocator<char> >::~basic_string()>
  40253b:	4c 89 ff             	mov    rdi,r15
  40253e:	e8 cd 64 00 00       	call   408a10 <std::__cxx11::basic_string<char, std::char_traits<char>, std::allocator<char> >::~basic_string()>
  402543:	4c 89 e7             	mov    rdi,r12
  402546:	e8 c5 64 00 00       	call   408a10 <std::__cxx11::basic_string<char, std::char_traits<char>, std::allocator<char> >::~basic_string()>
  40254b:	eb a8                	jmp    4024f5 <main.cold.191+0x116>
  40254d:	48 89 ef             	mov    rdi,rbp
  402550:	4c 8d bc 24 f0 02 00 00 	lea    r15,[rsp+0x2f0]
  402558:	48 8d ac 24 d0 00 00 00 	lea    rbp,[rsp+0xd0]
  402560:	e8 0b fc ff ff       	call   402170 <operator delete(void*)@plt>
  402565:	e9 ad fe ff ff       	jmp    402417 <main.cold.191+0x38>
  40256a:	48 8b bc 24 38 01 00 00 	mov    rdi,QWORD PTR [rsp+0x138]
  402572:	48 85 ff             	test   rdi,rdi
  402575:	74 05                	je     40257c <main.cold.191+0x19d>
  402577:	e8 f4 fb ff ff       	call   402170 <operator delete(void*)@plt>
  40257c:	4c 8d bc 24 f0 02 00 00 	lea    r15,[rsp+0x2f0]
  402584:	48 8d ac 24 d0 00 00 00 	lea    rbp,[rsp+0xd0]
  40258c:	e9 86 fe ff ff       	jmp    402417 <main.cold.191+0x38>
  402591:	4c 89 ef             	mov    rdi,r13
  402594:	e8 77 64 00 00       	call   408a10 <std::__cxx11::basic_string<char, std::char_traits<char>, std::allocator<char> >::~basic_string()>
  402599:	4c 89 e7             	mov    rdi,r12
  40259c:	e8 6f 64 00 00       	call   408a10 <std::__cxx11::basic_string<char, std::char_traits<char>, std::allocator<char> >::~basic_string()>
  4025a1:	4c 89 f7             	mov    rdi,r14
  4025a4:	e8 67 64 00 00       	call   408a10 <std::__cxx11::basic_string<char, std::char_traits<char>, std::allocator<char> >::~basic_string()>
  4025a9:	48 89 ef             	mov    rdi,rbp
  4025ac:	e8 5f 64 00 00       	call   408a10 <std::__cxx11::basic_string<char, std::char_traits<char>, std::allocator<char> >::~basic_string()>
  4025b1:	48 8b 7c 24 08       	mov    rdi,QWORD PTR [rsp+0x8]
  4025b6:	4c 8d a4 24 f0 00 00 00 	lea    r12,[rsp+0xf0]
  4025be:	e8 8d 3d 00 00       	call   406350 <event_count::~event_count()>
  4025c3:	e9 3f fe ff ff       	jmp    402407 <main.cold.191+0x28>
  4025c8:	48 8b bc 24 c8 01 00 00 	mov    rdi,QWORD PTR [rsp+0x1c8]
  4025d0:	48 85 ff             	test   rdi,rdi
  4025d3:	74 05                	je     4025da <main.cold.191+0x1fb>
  4025d5:	e8 96 fb ff ff       	call   402170 <operator delete(void*)@plt>
  4025da:	4c 8d a4 24 f0 00 00 00 	lea    r12,[rsp+0xf0]
  4025e2:	e9 20 fe ff ff       	jmp    402407 <main.cold.191+0x28>
  4025e7:	48 8b bc 24 58 01 00 00 	mov    rdi,QWORD PTR [rsp+0x158]
  4025ef:	48 85 ff             	test   rdi,rdi
  4025f2:	74 05                	je     4025f9 <main.cold.191+0x21a>
  4025f4:	e8 77 fb ff ff       	call   402170 <operator delete(void*)@plt>
  4025f9:	4c 8d a4 24 f0 00 00 00 	lea    r12,[rsp+0xf0]
  402601:	e9 01 fe ff ff       	jmp    402407 <main.cold.191+0x28>
  402606:	48 89 ef             	mov    rdi,rbp
  402609:	4c 8d a4 24 f0 00 00 00 	lea    r12,[rsp+0xf0]
  402611:	e8 5a fb ff ff       	call   402170 <operator delete(void*)@plt>
  402616:	e9 ec fd ff ff       	jmp    402407 <main.cold.191+0x28>
  40261b:	48 8b 7c 24 08       	mov    rdi,QWORD PTR [rsp+0x8]
  402620:	e8 eb 63 00 00       	call   408a10 <std::__cxx11::basic_string<char, std::char_traits<char>, std::allocator<char> >::~basic_string()>
  402625:	4c 89 ef             	mov    rdi,r13
  402628:	e8 e3 63 00 00       	call   408a10 <std::__cxx11::basic_string<char, std::char_traits<char>, std::allocator<char> >::~basic_string()>
  40262d:	4c 89 e7             	mov    rdi,r12
  402630:	e8 db 63 00 00       	call   408a10 <std::__cxx11::basic_string<char, std::char_traits<char>, std::allocator<char> >::~basic_string()>
  402635:	4c 89 ff             	mov    rdi,r15
  402638:	e8 d3 63 00 00       	call   408a10 <std::__cxx11::basic_string<char, std::char_traits<char>, std::allocator<char> >::~basic_string()>
  40263d:	4c 89 f7             	mov    rdi,r14
  402640:	48 8d ac 24 80 02 00 00 	lea    rbp,[rsp+0x280]
  402648:	e8 c3 63 00 00       	call   408a10 <std::__cxx11::basic_string<char, std::char_traits<char>, std::allocator<char> >::~basic_string()>
  40264d:	e9 b0 fe ff ff       	jmp    402502 <main.cold.191+0x123>
  402652:	e8 49 fc ff ff       	call   4022a0 <__cxa_throw_bad_array_new_length@plt>
  402657:	48 89 ef             	mov    rdi,rbp
  40265a:	e8 11 fb ff ff       	call   402170 <operator delete(void*)@plt>
  40265f:	e9 4d ff ff ff       	jmp    4025b1 <main.cold.191+0x1d2>
  402664:	48 89 ef             	mov    rdi,rbp
  402667:	e8 04 fb ff ff       	call   402170 <operator delete(void*)@plt>
  40266c:	48 8d bc 24 80 02 00 00 	lea    rdi,[rsp+0x280]
  402674:	e8 d7 3c 00 00       	call   406350 <event_count::~event_count()>
  402679:	e9 33 ff ff ff       	jmp    4025b1 <main.cold.191+0x1d2>
  40267e:	48 8b bc 24 78 01 00 00 	mov    rdi,QWORD PTR [rsp+0x178]
  402686:	48 85 ff             	test   rdi,rdi
  402689:	74 05                	je     402690 <main.cold.191+0x2b1>
  40268b:	e8 e0 fa ff ff       	call   402170 <operator delete(void*)@plt>
  402690:	4c 89 e7             	mov    rdi,r12
  402693:	e8 b8 3c 00 00       	call   406350 <event_count::~event_count()>
  402698:	eb d2                	jmp    40266c <main.cold.191+0x28d>
  40269a:	48 8b bc 24 18 01 00 00 	mov    rdi,QWORD PTR [rsp+0x118]
  4026a2:	48 85 ff             	test   rdi,rdi
  4026a5:	0f 84 3d fe ff ff    	je     4024e8 <main.cold.191+0x109>
  4026ab:	e8 c0 fa ff ff       	call   402170 <operator delete(void*)@plt>
  4026b0:	e9 33 fe ff ff       	jmp    4024e8 <main.cold.191+0x109>
  4026b5:	e8 e6 fb ff ff       	call   4022a0 <__cxa_throw_bad_array_new_length@plt>
  4026ba:	e8 e1 fb ff ff       	call   4022a0 <__cxa_throw_bad_array_new_length@plt>
  4026bf:	e8 dc fb ff ff       	call   4022a0 <__cxa_throw_bad_array_new_length@plt>
  4026c4:	66 2e 0f 1f 84 00 00 00 00 00 	nop    WORD PTR cs:[rax+rax*1+0x0]
  4026ce:	66 90                	xchg   ax,ax

00000000004026d0 <main>:
  4026d0:	41 57                	push   r15
  4026d2:	48 89 f2             	mov    rdx,rsi
  4026d5:	41 56                	push   r14
  4026d7:	41 55                	push   r13
  4026d9:	41 54                	push   r12
  4026db:	55                   	push   rbp
  4026dc:	53                   	push   rbx
  4026dd:	48 81 ec 48 04 00 00 	sub    rsp,0x448
  4026e4:	48 8b 06             	mov    rax,QWORD PTR [rsi]
  4026e7:	89 fe                	mov    esi,edi
  4026e9:	48 8d bc 24 90 01 00 00 	lea    rdi,[rsp+0x190]
  4026f1:	48 89 05 a8 11 01 00 	mov    QWORD PTR [rip+0x111a8],rax        # 4138a0 <exe_name>
  4026f8:	e8 13 a9 00 00       	call   40d010 <option_struct::option_struct(int, char**)>
  4026fd:	80 bc 24 b4 01 00 00 00 	cmp    BYTE PTR [rsp+0x1b4],0x0
  402705:	74 4c                	je     402753 <main+0x83>
  402707:	48 c7 05 de 0a 01 00 20 32 41 00 	mov    QWORD PTR [rip+0x10ade],0x413220        # 4131f0 <verbose_stream>
  402712:	bf 74 f4 40 00       	mov    edi,0x40f474
  402717:	e8 b4 3b 00 00       	call   4062d0 <std::char_traits<char>::length(char const*)>
  40271c:	be 74 f4 40 00       	mov    esi,0x40f474
  402721:	bf 20 32 41 00       	mov    edi,0x413220
  402726:	48 89 c2             	mov    rdx,rax
  402729:	e8 92 fa ff ff       	call   4021c0 <std::basic_ostream<char, std::char_traits<char> >& std::__ostream_insert<char, std::char_traits<char> >(std::basic_ostream<char, std::char_traits<char> >&, char const*, long)@plt>
  40272e:	48 8b 3d 2b 10 01 00 	mov    rdi,QWORD PTR [rip+0x1102b]        # 413760 <simdjson::active_implementation>
  402735:	48 8b 07             	mov    rax,QWORD PTR [rdi]
  402738:	ff 10                	call   QWORD PTR [rax]
  40273a:	48 8b 50 08          	mov    rdx,QWORD PTR [rax+0x8]
  40273e:	48 8b 30             	mov    rsi,QWORD PTR [rax]
  402741:	bf 20 32 41 00       	mov    edi,0x413220
  402746:	e8 75 fa ff ff       	call   4021c0 <std::basic_ostream<char, std::char_traits<char> >& std::__ostream_insert<char, std::char_traits<char> >(std::basic_ostream<char, std::char_traits<char> >&, char const*, long)@plt>
  40274b:	48 89 c7             	mov    rdi,rax
  40274e:	e8 8d f9 ff ff       	call   4020e0 <std::basic_ostream<char, std::char_traits<char> >& std::endl<char, std::char_traits<char> >(std::basic_ostream<char, std::char_traits<char> >&)@plt>
  402753:	48 8d bc 24 60 03 00 00 	lea    rdi,[rsp+0x360]
  40275b:	e8 20 b3 00 00       	call   40da80 <event_collector::event_collector()>
  402760:	80 bc 24 b5 01 00 00 00 	cmp    BYTE PTR [rsp+0x1b5],0x0
  402768:	0f 84 f8 13 00 00    	je     403b66 <main+0x1496>
  40276e:	66 0f ef c0          	pxor   xmm0,xmm0
  402772:	48 8b 94 24 90 01 00 00 	mov    rdx,QWORD PTR [rsp+0x190]
  40277a:	31 db                	xor    ebx,ebx
  40277c:	48 c7 44 24 60 00 00 00 00 	mov    QWORD PTR [rsp+0x60],0x0
  402785:	0f 29 44 24 50       	movaps XMMWORD PTR [rsp+0x50],xmm0
  40278a:	48 39 94 24 98 01 00 00 	cmp    QWORD PTR [rsp+0x198],rdx
  402792:	75 38                	jne    4027cc <main+0xfc>
  402794:	e9 7f 00 00 00       	jmp    402818 <main+0x148>
  402799:	0f 1f 80 00 00 00 00 	nop    DWORD PTR [rax+0x0]
  4027a0:	48 89 2e             	mov    QWORD PTR [rsi],rbp
  4027a3:	48 83 c6 08          	add    rsi,0x8
  4027a7:	48 89 74 24 58       	mov    QWORD PTR [rsp+0x58],rsi
  4027ac:	48 8b 94 24 90 01 00 00 	mov    rdx,QWORD PTR [rsp+0x190]
  4027b4:	48 8b 84 24 98 01 00 00 	mov    rax,QWORD PTR [rsp+0x198]
  4027bc:	48 83 c3 01          	add    rbx,0x1
  4027c0:	48 29 d0             	sub    rax,rdx
  4027c3:	48 c1 f8 03          	sar    rax,0x3
  4027c7:	48 39 c3             	cmp    rbx,rax
  4027ca:	73 4c                	jae    402818 <main+0x148>
  4027cc:	bf 30 02 00 00       	mov    edi,0x230
  4027d1:	4c 8b 24 da          	mov    r12,QWORD PTR [rdx+rbx*8]
  4027d5:	e8 b6 f9 ff ff       	call   402190 <operator new(unsigned long)@plt>
  4027da:	48 8d 94 24 60 03 00 00 	lea    rdx,[rsp+0x360]
  4027e2:	4c 89 e6             	mov    rsi,r12
  4027e5:	48 89 c7             	mov    rdi,rax
  4027e8:	48 89 c5             	mov    rbp,rax
  4027eb:	e8 40 71 00 00       	call   409930 <benchmarker::benchmarker(char const*, event_collector&)>
  4027f0:	48 89 ac 24 f0 02 00 00 	mov    QWORD PTR [rsp+0x2f0],rbp
  4027f8:	48 8b 74 24 58       	mov    rsi,QWORD PTR [rsp+0x58]
  4027fd:	48 3b 74 24 60       	cmp    rsi,QWORD PTR [rsp+0x60]
  402802:	75 9c                	jne    4027a0 <main+0xd0>
  402804:	48 8d 94 24 f0 02 00 00 	lea    rdx,[rsp+0x2f0]
  40280c:	48 8d 7c 24 50       	lea    rdi,[rsp+0x50]
  402811:	e8 3a b9 00 00       	call   40e150 <void std::vector<benchmarker*, std::allocator<benchmarker*> >::_M_realloc_insert<benchmarker*>(__gnu_cxx::__normal_iterator<benchmarker**, std::vector<benchmarker*, std::allocator<benchmarker*> > >, benchmarker*&&)>
  402816:	eb 94                	jmp    4027ac <main+0xdc>
  402818:	8b 84 24 ac 01 00 00 	mov    eax,DWORD PTR [rsp+0x1ac]
  40281f:	66 0f ef c0          	pxor   xmm0,xmm0
  402823:	f2 0f 10 0d 8d d5 00 00 	movsd  xmm1,QWORD PTR [rip+0xd58d]        # 40fdb8 <._114+0x58>
  40282b:	bf 5b 00 00 00       	mov    edi,0x5b
  402830:	48 8b 35 09 0b 01 00 	mov    rsi,QWORD PTR [rip+0x10b09]        # 413340 <stderr@@GLIBC_2.2.5>
  402837:	c7 44 24 74 32 00 00 00 	mov    DWORD PTR [rsp+0x74],0x32
  40283f:	f2 0f 2a c0          	cvtsi2sd xmm0,eax
  402843:	89 44 24 70          	mov    DWORD PTR [rsp+0x70],eax
  402847:	c7 84 24 80 00 00 00 00 00 00 00 	mov    DWORD PTR [rsp+0x80],0x0
  402852:	f2 0f 5e c8          	divsd  xmm1,xmm0
  402856:	f2 0f 11 4c 24 78    	movsd  QWORD PTR [rsp+0x78],xmm1
  40285c:	e8 bf f9 ff ff       	call   402220 <fputc@plt>
  402861:	8b 54 24 74          	mov    edx,DWORD PTR [rsp+0x74]
  402865:	31 db                	xor    ebx,ebx
  402867:	85 d2                	test   edx,edx
  402869:	7e 1f                	jle    40288a <main+0x1ba>
  40286b:	0f 1f 44 00 00       	nop    DWORD PTR [rax+rax*1+0x0]
  402870:	48 8b 35 c9 0a 01 00 	mov    rsi,QWORD PTR [rip+0x10ac9]        # 413340 <stderr@@GLIBC_2.2.5>
  402877:	bf 20 00 00 00       	mov    edi,0x20
  40287c:	e8 9f f9 ff ff       	call   402220 <fputc@plt>
  402881:	83 c3 01             	add    ebx,0x1
  402884:	39 5c 24 74          	cmp    DWORD PTR [rsp+0x74],ebx
  402888:	7f e6                	jg     402870 <main+0x1a0>
  40288a:	48 8b 35 af 0a 01 00 	mov    rsi,QWORD PTR [rip+0x10aaf]        # 413340 <stderr@@GLIBC_2.2.5>
  402891:	bf 5d 00 00 00       	mov    edi,0x5d
  402896:	e8 85 f9 ff ff       	call   402220 <fputc@plt>
  40289b:	8b 44 24 74          	mov    eax,DWORD PTR [rsp+0x74]
  40289f:	31 db                	xor    ebx,ebx
  4028a1:	85 c0                	test   eax,eax
  4028a3:	78 1d                	js     4028c2 <main+0x1f2>
  4028a5:	0f 1f 00             	nop    DWORD PTR [rax]
  4028a8:	48 8b 35 91 0a 01 00 	mov    rsi,QWORD PTR [rip+0x10a91]        # 413340 <stderr@@GLIBC_2.2.5>
  4028af:	bf 08 00 00 00       	mov    edi,0x8
  4028b4:	e8 67 f9 ff ff       	call   402220 <fputc@plt>
  4028b9:	83 c3 01             	add    ebx,0x1
  4028bc:	39 5c 24 74          	cmp    DWORD PTR [rsp+0x74],ebx
  4028c0:	7d e6                	jge    4028a8 <main+0x1d8>
  4028c2:	80 bc 24 a8 01 00 00 00 	cmp    BYTE PTR [rsp+0x1a8],0x0
  4028ca:	0f 85 03 0b 00 00    	jne    4033d3 <main+0xd03>
  4028d0:	48 8d 84 24 d8 00 00 00 	lea    rax,[rsp+0xd8]
  4028d8:	45 31 f6             	xor    r14d,r14d
  4028db:	48 89 44 24 40       	mov    QWORD PTR [rsp+0x40],rax
  4028e0:	0f b6 84 24 b4 01 00 00 	movzx  eax,BYTE PTR [rsp+0x1b4]
  4028e8:	44 39 b4 24 ac 01 00 00 	cmp    DWORD PTR [rsp+0x1ac],r14d
  4028f0:	0f 8e 83 17 00 00    	jle    404079 <main+0x19a9>
  4028f6:	84 c0                	test   al,al
  4028f8:	0f 84 2a 14 00 00    	je     403d28 <main+0x1658>
  4028fe:	48 c7 44 24 20 00 00 00 00 	mov    QWORD PTR [rsp+0x20],0x0
  402907:	48 8b 84 24 98 01 00 00 	mov    rax,QWORD PTR [rsp+0x198]
  40290f:	4c 8b 7c 24 20       	mov    r15,QWORD PTR [rsp+0x20]
  402914:	48 2b 84 24 90 01 00 00 	sub    rax,QWORD PTR [rsp+0x190]
  40291c:	48 c1 f8 03          	sar    rax,0x3
  402920:	49 39 c7             	cmp    r15,rax
  402923:	0f 83 7c 1e 00 00    	jae    4047a5 <main+0x20d5>
  402929:	bf 9f f4 40 00       	mov    edi,0x40f49f
  40292e:	48 8b 1d bb 08 01 00 	mov    rbx,QWORD PTR [rip+0x108bb]        # 4131f0 <verbose_stream>
  402935:	e8 96 39 00 00       	call   4062d0 <std::char_traits<char>::length(char const*)>
  40293a:	be 9f f4 40 00       	mov    esi,0x40f49f
  40293f:	48 89 c2             	mov    rdx,rax
  402942:	48 89 df             	mov    rdi,rbx
  402945:	e8 76 f8 ff ff       	call   4021c0 <std::basic_ostream<char, std::char_traits<char> >& std::__ostream_insert<char, std::char_traits<char> >(std::basic_ostream<char, std::char_traits<char> >&, char const*, long)@plt>
  40294a:	48 8b 44 24 50       	mov    rax,QWORD PTR [rsp+0x50]
  40294f:	4a 8d 2c fd 00 00 00 00 	lea    rbp,[r15*8+0x0]
  402957:	4a 8b 04 f8          	mov    rax,QWORD PTR [rax+r15*8]
  40295b:	4c 8b 60 10          	mov    r12,QWORD PTR [rax+0x10]
  40295f:	4d 85 e4             	test   r12,r12
  402962:	0f 84 fe 13 00 00    	je     403d66 <main+0x1696>
  402968:	4c 89 e7             	mov    rdi,r12
  40296b:	e8 60 39 00 00       	call   4062d0 <std::char_traits<char>::length(char const*)>
  402970:	4c 89 e6             	mov    rsi,r12
  402973:	48 89 df             	mov    rdi,rbx
  402976:	48 89 c2             	mov    rdx,rax
  402979:	e8 42 f8 ff ff       	call   4021c0 <std::basic_ostream<char, std::char_traits<char> >& std::__ostream_insert<char, std::char_traits<char> >(std::basic_ostream<char, std::char_traits<char> >&, char const*, long)@plt>
  40297e:	bf aa f4 40 00       	mov    edi,0x40f4aa
  402983:	e8 48 39 00 00       	call   4062d0 <std::char_traits<char>::length(char const*)>
  402988:	be aa f4 40 00       	mov    esi,0x40f4aa
  40298d:	48 89 df             	mov    rdi,rbx
  402990:	48 89 c2             	mov    rdx,rax
  402993:	e8 28 f8 ff ff       	call   4021c0 <std::basic_ostream<char, std::char_traits<char> >& std::__ostream_insert<char, std::char_traits<char> >(std::basic_ostream<char, std::char_traits<char> >&, char const*, long)@plt>
  402998:	44 89 f6             	mov    esi,r14d
  40299b:	48 89 df             	mov    rdi,rbx
  40299e:	e8 ad f9 ff ff       	call   402350 <std::ostream::operator<<(int)@plt>
  4029a3:	bf b8 f4 40 00       	mov    edi,0x40f4b8
  4029a8:	48 89 c3             	mov    rbx,rax
  4029ab:	e8 20 39 00 00       	call   4062d0 <std::char_traits<char>::length(char const*)>
  4029b0:	be b8 f4 40 00       	mov    esi,0x40f4b8
  4029b5:	48 89 df             	mov    rdi,rbx
  4029b8:	48 89 c2             	mov    rdx,rax
  4029bb:	e8 00 f8 ff ff       	call   4021c0 <std::basic_ostream<char, std::char_traits<char> >& std::__ostream_insert<char, std::char_traits<char> >(std::basic_ostream<char, std::char_traits<char> >&, char const*, long)@plt>
  4029c0:	8b b4 24 b0 01 00 00 	mov    esi,DWORD PTR [rsp+0x1b0]
  4029c7:	48 89 df             	mov    rdi,rbx
  4029ca:	44 01 f6             	add    esi,r14d
  4029cd:	83 ee 01             	sub    esi,0x1
  4029d0:	e8 7b f9 ff ff       	call   402350 <std::ostream::operator<<(int)@plt>
  4029d5:	48 89 c7             	mov    rdi,rax
  4029d8:	e8 03 f7 ff ff       	call   4020e0 <std::basic_ostream<char, std::char_traits<char> >& std::endl<char, std::char_traits<char> >(std::basic_ostream<char, std::char_traits<char> >&)@plt>
  4029dd:	48 c7 44 24 28 00 00 00 00 	mov    QWORD PTR [rsp+0x28],0x0
  4029e6:	48 8b 44 24 50       	mov    rax,QWORD PTR [rsp+0x50]
  4029eb:	48 8b 1c 28          	mov    rbx,QWORD PTR [rax+rbp*1]
  4029ef:	0f b6 84 24 b6 01 00 00 	movzx  eax,BYTE PTR [rsp+0x1b6]
  4029f7:	88 44 24 3f          	mov    BYTE PTR [rsp+0x3f],al
  4029fb:	48 63 84 24 b0 01 00 00 	movsxd rax,DWORD PTR [rsp+0x1b0]
  402a03:	48 89 44 24 18       	mov    QWORD PTR [rsp+0x18],rax
  402a08:	48 8b 4c 24 28       	mov    rcx,QWORD PTR [rsp+0x28]
  402a0d:	48 39 4c 24 18       	cmp    QWORD PTR [rsp+0x18],rcx
  402a12:	0f 86 75 1d 00 00    	jbe    40478d <main+0x20bd>
  402a18:	48 8b 6b 18          	mov    rbp,QWORD PTR [rbx+0x18]
  402a1c:	48 8d 7d 28          	lea    rdi,[rbp+0x28]
  402a20:	e8 1b 80 00 00       	call   40aa40 <LinuxEvents<0>::start()>
  402a25:	e8 26 f8 ff ff       	call   402250 <std::chrono::_V2::steady_clock::now()@plt>
  402a2a:	66 0f 6f 2d ae d3 00 00 	movdqa xmm5,XMMWORD PTR [rip+0xd3ae]        # 40fde0 <._114+0x80>
  402a32:	48 89 45 20          	mov    QWORD PTR [rbp+0x20],rax
  402a36:	0f 11 ac 24 28 03 00 00 	movups XMMWORD PTR [rsp+0x328],xmm5
  402a3e:	48 c7 84 24 38 03 00 00 00 00 00 00 	mov    QWORD PTR [rsp+0x338],0x0
  402a4a:	48 c7 84 24 50 03 00 00 00 00 00 00 	mov    QWORD PTR [rsp+0x350],0x0
  402a56:	4c 8b 23             	mov    r12,QWORD PTR [rbx]
  402a59:	48 c7 84 24 f0 02 00 00 00 00 00 00 	mov    QWORD PTR [rsp+0x2f0],0x0
  402a65:	48 c7 84 24 f8 02 00 00 00 00 00 00 	mov    QWORD PTR [rsp+0x2f8],0x0
  402a71:	48 c7 84 24 00 03 00 00 00 00 00 00 	mov    QWORD PTR [rsp+0x300],0x0
  402a7d:	48 c7 84 24 08 03 00 00 00 00 00 00 	mov    QWORD PTR [rsp+0x308],0x0
  402a89:	c6 84 24 10 03 00 00 00 	mov    BYTE PTR [rsp+0x310],0x0
  402a91:	c7 84 24 14 03 00 00 0c 00 00 00 	mov    DWORD PTR [rsp+0x314],0xc
  402a9c:	48 c7 84 24 18 03 00 00 00 00 00 00 	mov    QWORD PTR [rsp+0x318],0x0
  402aa8:	48 c7 84 24 20 03 00 00 00 00 00 00 	mov    QWORD PTR [rsp+0x320],0x0
  402ab4:	48 c7 84 24 40 03 00 00 30 50 40 00 	mov    QWORD PTR [rsp+0x340],0x405030
  402ac0:	48 c7 84 24 48 03 00 00 00 00 00 00 	mov    QWORD PTR [rsp+0x348],0x0
  402acc:	4d 85 e4             	test   r12,r12
  402acf:	0f 84 18 01 00 00    	je     402bed <main+0x51d>
  402ad5:	b9 03 00 00 00       	mov    ecx,0x3
  402ada:	4b 8d 04 a4          	lea    rax,[r12+r12*4]
  402ade:	31 d2                	xor    edx,edx
  402ae0:	be b0 2d 41 00       	mov    esi,0x412db0
  402ae5:	48 f7 f1             	div    rcx
  402ae8:	49 8d 6c 24 41       	lea    rbp,[r12+0x41]
  402aed:	48 83 e5 c0          	and    rbp,0xffffffffffffffc0
  402af1:	48 83 c0 5f          	add    rax,0x5f
  402af5:	48 83 e0 c0          	and    rax,0xffffffffffffffc0
  402af9:	48 89 c7             	mov    rdi,rax
  402afc:	e8 0f f8 ff ff       	call   402310 <operator new[](unsigned long, std::nothrow_t const&)@plt>
  402b01:	48 8b bc 24 20 03 00 00 	mov    rdi,QWORD PTR [rsp+0x320]
  402b09:	48 89 84 24 20 03 00 00 	mov    QWORD PTR [rsp+0x320],rax
  402b11:	48 85 ff             	test   rdi,rdi
  402b14:	74 05                	je     402b1b <main+0x44b>
  402b16:	e8 25 f7 ff ff       	call   402240 <operator delete[](void*)@plt>
  402b1b:	48 b8 ff ff ff ff ff ff ff 0f 	movabs rax,0xfffffffffffffff
  402b25:	48 39 c5             	cmp    rbp,rax
  402b28:	0f 87 8c fb ff ff    	ja     4026ba <main.cold.191+0x2db>
  402b2e:	48 8d 3c ed 00 00 00 00 	lea    rdi,[rbp*8+0x0]
  402b36:	be b0 2d 41 00       	mov    esi,0x412db0
  402b3b:	e8 d0 f7 ff ff       	call   402310 <operator new[](unsigned long, std::nothrow_t const&)@plt>
  402b40:	48 8b bc 24 18 03 00 00 	mov    rdi,QWORD PTR [rsp+0x318]
  402b48:	48 89 84 24 18 03 00 00 	mov    QWORD PTR [rsp+0x318],rax
  402b50:	48 85 ff             	test   rdi,rdi
  402b53:	74 05                	je     402b5a <main+0x48a>
  402b55:	e8 e6 f6 ff ff       	call   402240 <operator delete[](void*)@plt>
  402b5a:	48 83 bc 24 20 03 00 00 00 	cmp    QWORD PTR [rsp+0x320],0x0
  402b63:	0f 84 82 10 00 00    	je     403beb <main+0x151b>
  402b69:	48 83 bc 24 18 03 00 00 00 	cmp    QWORD PTR [rsp+0x318],0x0
  402b72:	0f 84 73 10 00 00    	je     403beb <main+0x151b>
  402b78:	48 ba fe ff ff ff ff ff ff 1f 	movabs rdx,0x1ffffffffffffffe
  402b82:	49 8d 44 24 3f       	lea    rax,[r12+0x3f]
  402b87:	48 83 e0 c0          	and    rax,0xffffffffffffffc0
  402b8b:	48 83 c0 09          	add    rax,0x9
  402b8f:	48 39 d0             	cmp    rax,rdx
  402b92:	0f 87 1d fb ff ff    	ja     4026b5 <main.cold.191+0x2d6>
  402b98:	48 8d 3c 85 00 00 00 00 	lea    rdi,[rax*4+0x0]
  402ba0:	be b0 2d 41 00       	mov    esi,0x412db0
  402ba5:	e8 66 f7 ff ff       	call   402310 <operator new[](unsigned long, std::nothrow_t const&)@plt>
  402baa:	48 8b bc 24 f8 02 00 00 	mov    rdi,QWORD PTR [rsp+0x2f8]
  402bb2:	48 89 84 24 f8 02 00 00 	mov    QWORD PTR [rsp+0x2f8],rax
  402bba:	48 85 ff             	test   rdi,rdi
  402bbd:	74 05                	je     402bc4 <main+0x4f4>
  402bbf:	e8 7c f6 ff ff       	call   402240 <operator delete[](void*)@plt>
  402bc4:	48 83 bc 24 f8 02 00 00 00 	cmp    QWORD PTR [rsp+0x2f8],0x0
  402bcd:	0f 84 18 10 00 00    	je     403beb <main+0x151b>
  402bd3:	48 81 bc 24 38 03 00 00 00 04 00 00 	cmp    QWORD PTR [rsp+0x338],0x400
  402bdf:	4c 89 a4 24 30 03 00 00 	mov    QWORD PTR [rsp+0x330],r12
  402be7:	0f 84 88 00 00 00    	je     402c75 <main+0x5a5>
  402bed:	bf 00 20 00 00       	mov    edi,0x2000
  402bf2:	be b0 2d 41 00       	mov    esi,0x412db0
  402bf7:	48 c7 84 24 38 03 00 00 00 00 00 00 	mov    QWORD PTR [rsp+0x338],0x0
  402c03:	e8 08 f7 ff ff       	call   402310 <operator new[](unsigned long, std::nothrow_t const&)@plt>
  402c08:	48 8b bc 24 00 03 00 00 	mov    rdi,QWORD PTR [rsp+0x300]
  402c10:	48 89 84 24 00 03 00 00 	mov    QWORD PTR [rsp+0x300],rax
  402c18:	48 85 ff             	test   rdi,rdi
  402c1b:	74 05                	je     402c22 <main+0x552>
  402c1d:	e8 1e f6 ff ff       	call   402240 <operator delete[](void*)@plt>
  402c22:	bf 00 20 00 00       	mov    edi,0x2000
  402c27:	be b0 2d 41 00       	mov    esi,0x412db0
  402c2c:	e8 df f6 ff ff       	call   402310 <operator new[](unsigned long, std::nothrow_t const&)@plt>
  402c31:	48 8b bc 24 08 03 00 00 	mov    rdi,QWORD PTR [rsp+0x308]
  402c39:	48 89 84 24 08 03 00 00 	mov    QWORD PTR [rsp+0x308],rax
  402c41:	48 85 ff             	test   rdi,rdi
  402c44:	74 05                	je     402c4b <main+0x57b>
  402c46:	e8 f5 f5 ff ff       	call   402240 <operator delete[](void*)@plt>
  402c4b:	48 83 bc 24 08 03 00 00 00 	cmp    QWORD PTR [rsp+0x308],0x0
  402c54:	0f 84 91 0f 00 00    	je     403beb <main+0x151b>
  402c5a:	48 83 bc 24 00 03 00 00 00 	cmp    QWORD PTR [rsp+0x300],0x0
  402c63:	0f 84 82 0f 00 00    	je     403beb <main+0x151b>
  402c69:	48 c7 84 24 38 03 00 00 00 04 00 00 	mov    QWORD PTR [rsp+0x338],0x400
  402c75:	48 8b 6b 18          	mov    rbp,QWORD PTR [rbx+0x18]
  402c79:	e8 d2 f5 ff ff       	call   402250 <std::chrono::_V2::steady_clock::now()@plt>
  402c7e:	48 8d 75 08          	lea    rsi,[rbp+0x8]
  402c82:	48 8d 7d 28          	lea    rdi,[rbp+0x28]
  402c86:	49 89 c4             	mov    r12,rax
  402c89:	e8 e2 78 00 00       	call   40a570 <LinuxEvents<0>::end(std::vector<unsigned long long, std::allocator<unsigned long long> >&)>
  402c8e:	4c 2b 65 20          	sub    r12,QWORD PTR [rbp+0x20]
  402c92:	66 0f ef c0          	pxor   xmm0,xmm0
  402c96:	f2 0f 10 25 ea d0 00 00 	movsd  xmm4,QWORD PTR [rip+0xd0ea]        # 40fd88 <._114+0x28>
  402c9e:	f2 49 0f 2a c4       	cvtsi2sd xmm0,r12
  402ca3:	4c 8b 65 10          	mov    r12,QWORD PTR [rbp+0x10]
  402ca7:	4c 2b 65 08          	sub    r12,QWORD PTR [rbp+0x8]
  402cab:	4c 89 e2             	mov    rdx,r12
  402cae:	f2 0f 11 64 24 10    	movsd  QWORD PTR [rsp+0x10],xmm4
  402cb4:	48 c1 fa 03          	sar    rdx,0x3
  402cb8:	f2 0f 5e c4          	divsd  xmm0,xmm4
  402cbc:	f2 0f 11 45 00       	movsd  QWORD PTR [rbp+0x0],xmm0
  402cc1:	f2 0f 11 84 24 d0 00 00 00 	movsd  QWORD PTR [rsp+0xd0],xmm0
  402cca:	48 c7 84 24 d8 00 00 00 00 00 00 00 	mov    QWORD PTR [rsp+0xd8],0x0
  402cd6:	48 c7 84 24 e0 00 00 00 00 00 00 00 	mov    QWORD PTR [rsp+0xe0],0x0
  402ce2:	48 c7 84 24 e8 00 00 00 00 00 00 00 	mov    QWORD PTR [rsp+0xe8],0x0
  402cee:	0f 84 d5 15 00 00    	je     4042c9 <main+0x1bf9>
  402cf4:	48 b8 ff ff ff ff ff ff ff 1f 	movabs rax,0x1fffffffffffffff
  402cfe:	48 39 c2             	cmp    rdx,rax
  402d01:	0f 87 75 1f 00 00    	ja     404c7c <main+0x25ac>
  402d07:	4c 89 e7             	mov    rdi,r12
  402d0a:	e8 81 f4 ff ff       	call   402190 <operator new(unsigned long)@plt>
  402d0f:	48 89 c1             	mov    rcx,rax
  402d12:	48 89 4c 24 08       	mov    QWORD PTR [rsp+0x8],rcx
  402d17:	f3 0f 7e 44 24 08    	movq   xmm0,QWORD PTR [rsp+0x8]
  402d1d:	49 01 cc             	add    r12,rcx
  402d20:	4c 89 a4 24 e8 00 00 00 	mov    QWORD PTR [rsp+0xe8],r12
  402d28:	66 0f 6c c0          	punpcklqdq xmm0,xmm0
  402d2c:	0f 11 84 24 d8 00 00 00 	movups XMMWORD PTR [rsp+0xd8],xmm0
  402d34:	48 8b 45 10          	mov    rax,QWORD PTR [rbp+0x10]
  402d38:	48 8b 75 08          	mov    rsi,QWORD PTR [rbp+0x8]
  402d3c:	48 89 c5             	mov    rbp,rax
  402d3f:	48 29 f5             	sub    rbp,rsi
  402d42:	48 39 f0             	cmp    rax,rsi
  402d45:	74 0e                	je     402d55 <main+0x685>
  402d47:	48 89 cf             	mov    rdi,rcx
  402d4a:	48 89 ea             	mov    rdx,rbp
  402d4d:	e8 ae f5 ff ff       	call   402300 <memmove@plt>
  402d52:	48 89 c1             	mov    rcx,rax
  402d55:	48 01 e9             	add    rcx,rbp
  402d58:	83 bb 60 01 00 00 00 	cmp    DWORD PTR [rbx+0x160],0x0
  402d5f:	48 89 8c 24 e0 00 00 00 	mov    QWORD PTR [rsp+0xe0],rcx
  402d67:	0f 84 8c 12 00 00    	je     403ff9 <main+0x1929>
  402d6d:	f2 0f 10 83 88 01 00 00 	movsd  xmm0,QWORD PTR [rbx+0x188]
  402d75:	66 0f 2f 84 24 d0 00 00 00 	comisd xmm0,QWORD PTR [rsp+0xd0]
  402d7e:	0f 87 75 12 00 00    	ja     403ff9 <main+0x1929>
  402d84:	f2 0f 10 84 24 d0 00 00 00 	movsd  xmm0,QWORD PTR [rsp+0xd0]
  402d8d:	66 0f 2f 83 a8 01 00 00 	comisd xmm0,QWORD PTR [rbx+0x1a8]
  402d95:	48 8d ac 24 d0 00 00 00 	lea    rbp,[rsp+0xd0]
  402d9d:	76 31                	jbe    402dd0 <main+0x700>
  402d9f:	f2 0f 10 84 24 d0 00 00 00 	movsd  xmm0,QWORD PTR [rsp+0xd0]
  402da8:	48 8d 84 24 d0 00 00 00 	lea    rax,[rsp+0xd0]
  402db0:	48 8d bb b0 01 00 00 	lea    rdi,[rbx+0x1b0]
  402db7:	48 8d 70 08          	lea    rsi,[rax+0x8]
  402dbb:	4c 8d bc 24 f0 02 00 00 	lea    r15,[rsp+0x2f0]
  402dc3:	f2 0f 11 83 a8 01 00 00 	movsd  QWORD PTR [rbx+0x1a8],xmm0
  402dcb:	e8 60 5c 00 00       	call   408a30 <std::vector<unsigned long long, std::allocator<unsigned long long> >::operator=(std::vector<unsigned long long, std::allocator<unsigned long long> > const&)>
  402dd0:	48 8b 93 70 01 00 00 	mov    rdx,QWORD PTR [rbx+0x170]
  402dd7:	48 8b 84 24 d8 00 00 00 	mov    rax,QWORD PTR [rsp+0xd8]
  402ddf:	bf 28 00 00 00       	mov    edi,0x28
  402de4:	4c 8d bc 24 f0 02 00 00 	lea    r15,[rsp+0x2f0]
  402dec:	83 83 60 01 00 00 01 	add    DWORD PTR [rbx+0x160],0x1
  402df3:	48 8d ac 24 d0 00 00 00 	lea    rbp,[rsp+0xd0]
  402dfb:	f3 0f 6f 40 10       	movdqu xmm0,XMMWORD PTR [rax+0x10]
  402e00:	f3 0f 6f 08          	movdqu xmm1,XMMWORD PTR [rax]
  402e04:	f3 0f 6f 7a 10       	movdqu xmm7,XMMWORD PTR [rdx+0x10]
  402e09:	f3 0f 6f 12          	movdqu xmm2,XMMWORD PTR [rdx]
  402e0d:	66 0f d4 c7          	paddq  xmm0,xmm7
  402e11:	66 0f d4 ca          	paddq  xmm1,xmm2
  402e15:	0f 29 8c 24 c0 01 00 00 	movaps XMMWORD PTR [rsp+0x1c0],xmm1
  402e1d:	0f 29 84 24 d0 01 00 00 	movaps XMMWORD PTR [rsp+0x1d0],xmm0
  402e25:	48 8b 40 20          	mov    rax,QWORD PTR [rax+0x20]
  402e29:	48 03 42 20          	add    rax,QWORD PTR [rdx+0x20]
  402e2d:	48 89 84 24 e0 01 00 00 	mov    QWORD PTR [rsp+0x1e0],rax
  402e35:	e8 56 f3 ff ff       	call   402190 <operator new(unsigned long)@plt>
  402e3a:	48 8d b4 24 c0 01 00 00 	lea    rsi,[rsp+0x1c0]
  402e42:	b9 0a 00 00 00       	mov    ecx,0xa
  402e47:	48 89 c7             	mov    rdi,rax
  402e4a:	48 89 c5             	mov    rbp,rax
  402e4d:	48 89 74 24 08       	mov    QWORD PTR [rsp+0x8],rsi
  402e52:	f3 a5                	rep movs DWORD PTR es:[rdi],DWORD PTR ds:[rsi]
  402e54:	bf 28 00 00 00       	mov    edi,0x28
  402e59:	48 c7 84 24 48 01 00 00 00 00 00 00 	mov    QWORD PTR [rsp+0x148],0x0
  402e65:	f2 0f 10 83 68 01 00 00 	movsd  xmm0,QWORD PTR [rbx+0x168]
  402e6d:	f2 0f 58 84 24 d0 00 00 00 	addsd  xmm0,QWORD PTR [rsp+0xd0]
  402e76:	f2 0f 11 84 24 30 01 00 00 	movsd  QWORD PTR [rsp+0x130],xmm0
  402e7f:	66 0f ef c0          	pxor   xmm0,xmm0
  402e83:	0f 11 84 24 38 01 00 00 	movups XMMWORD PTR [rsp+0x138],xmm0
  402e8b:	e8 00 f3 ff ff       	call   402190 <operator new(unsigned long)@plt>
  402e90:	48 89 c7             	mov    rdi,rax
  402e93:	b9 0a 00 00 00       	mov    ecx,0xa
  402e98:	48 8d 50 28          	lea    rdx,[rax+0x28]
  402e9c:	48 89 ee             	mov    rsi,rbp
  402e9f:	f3 a5                	rep movs DWORD PTR es:[rdi],DWORD PTR ds:[rsi]
  402ea1:	48 89 ef             	mov    rdi,rbp
  402ea4:	48 89 84 24 38 01 00 00 	mov    QWORD PTR [rsp+0x138],rax
  402eac:	48 89 94 24 48 01 00 00 	mov    QWORD PTR [rsp+0x148],rdx
  402eb4:	48 89 94 24 40 01 00 00 	mov    QWORD PTR [rsp+0x140],rdx
  402ebc:	e8 af f2 ff ff       	call   402170 <operator delete(void*)@plt>
  402ec1:	48 8d bb 70 01 00 00 	lea    rdi,[rbx+0x170]
  402ec8:	f2 0f 10 84 24 30 01 00 00 	movsd  xmm0,QWORD PTR [rsp+0x130]
  402ed1:	48 8d b4 24 38 01 00 00 	lea    rsi,[rsp+0x138]
  402ed9:	f2 0f 11 83 68 01 00 00 	movsd  QWORD PTR [rbx+0x168],xmm0
  402ee1:	e8 4a 5b 00 00       	call   408a30 <std::vector<unsigned long long, std::allocator<unsigned long long> >::operator=(std::vector<unsigned long long, std::allocator<unsigned long long> > const&)>
  402ee6:	48 8b bc 24 38 01 00 00 	mov    rdi,QWORD PTR [rsp+0x138]
  402eee:	48 85 ff             	test   rdi,rdi
  402ef1:	74 05                	je     402ef8 <main+0x828>
  402ef3:	e8 78 f2 ff ff       	call   402170 <operator delete(void*)@plt>
  402ef8:	80 7c 24 3f 00       	cmp    BYTE PTR [rsp+0x3f],0x0
  402efd:	4c 8d bc 24 f0 02 00 00 	lea    r15,[rsp+0x2f0]
  402f05:	74 2f                	je     402f36 <main+0x866>
  402f07:	48 8b 53 08          	mov    rdx,QWORD PTR [rbx+0x8]
  402f0b:	4c 8d bc 24 f0 02 00 00 	lea    r15,[rsp+0x2f0]
  402f13:	48 8b 0b             	mov    rcx,QWORD PTR [rbx]
  402f16:	48 8d bc 24 70 01 00 00 	lea    rdi,[rsp+0x170]
  402f1e:	4c 89 fe             	mov    rsi,r15
  402f21:	e8 8a 24 00 00       	call   4053b0 <simdjson::dom::parser::parse(unsigned char const*, unsigned long, bool) & [clone .constprop.187]>
  402f26:	48 63 84 24 80 01 00 00 	movsxd rax,DWORD PTR [rsp+0x180]
  402f2e:	85 c0                	test   eax,eax
  402f30:	0f 85 62 1a 00 00    	jne    404998 <main+0x22c8>
  402f36:	4c 8b 25 b3 02 01 00 	mov    r12,QWORD PTR [rip+0x102b3]        # 4131f0 <verbose_stream>
  402f3d:	ba 2b 00 00 00       	mov    edx,0x2b
  402f42:	be a0 f3 40 00       	mov    esi,0x40f3a0
  402f47:	48 8d ac 24 d0 00 00 00 	lea    rbp,[rsp+0xd0]
  402f4f:	4c 89 e7             	mov    rdi,r12
  402f52:	e8 69 f2 ff ff       	call   4021c0 <std::basic_ostream<char, std::char_traits<char> >& std::__ostream_insert<char, std::char_traits<char> >(std::basic_ostream<char, std::char_traits<char> >&, char const*, long)@plt>
  402f57:	4c 89 e7             	mov    rdi,r12
  402f5a:	48 8d ac 24 d0 00 00 00 	lea    rbp,[rsp+0xd0]
  402f62:	e8 79 f1 ff ff       	call   4020e0 <std::basic_ostream<char, std::char_traits<char> >& std::endl<char, std::char_traits<char> >(std::basic_ostream<char, std::char_traits<char> >&)@plt>
  402f67:	4c 8b 63 18          	mov    r12,QWORD PTR [rbx+0x18]
  402f6b:	48 8d ac 24 d0 00 00 00 	lea    rbp,[rsp+0xd0]
  402f73:	49 8d 7c 24 28       	lea    rdi,[r12+0x28]
  402f78:	e8 c3 7a 00 00       	call   40aa40 <LinuxEvents<0>::start()>
  402f7d:	e8 ce f2 ff ff       	call   402250 <std::chrono::_V2::steady_clock::now()@plt>
  402f82:	45 31 c0             	xor    r8d,r8d
  402f85:	4c 89 f9             	mov    rcx,r15
  402f88:	48 8d ac 24 d0 00 00 00 	lea    rbp,[rsp+0xd0]
  402f90:	49 89 44 24 20       	mov    QWORD PTR [r12+0x20],rax
  402f95:	48 8b 3d c4 07 01 00 	mov    rdi,QWORD PTR [rip+0x107c4]        # 413760 <simdjson::active_implementation>
  402f9c:	48 8b 07             	mov    rax,QWORD PTR [rdi]
  402f9f:	48 8b 73 08          	mov    rsi,QWORD PTR [rbx+0x8]
  402fa3:	48 8b 13             	mov    rdx,QWORD PTR [rbx]
  402fa6:	ff 50 28             	call   QWORD PTR [rax+0x28]
  402fa9:	4c 8b 63 18          	mov    r12,QWORD PTR [rbx+0x18]
  402fad:	89 44 24 30          	mov    DWORD PTR [rsp+0x30],eax
  402fb1:	e8 9a f2 ff ff       	call   402250 <std::chrono::_V2::steady_clock::now()@plt>
  402fb6:	49 8d 74 24 08       	lea    rsi,[r12+0x8]
  402fbb:	49 8d 7c 24 28       	lea    rdi,[r12+0x28]
  402fc0:	49 89 c5             	mov    r13,rax
  402fc3:	e8 a8 75 00 00       	call   40a570 <LinuxEvents<0>::end(std::vector<unsigned long long, std::allocator<unsigned long long> >&)>
  402fc8:	4d 2b 6c 24 20       	sub    r13,QWORD PTR [r12+0x20]
  402fcd:	66 0f ef c0          	pxor   xmm0,xmm0
  402fd1:	f2 49 0f 2a c5       	cvtsi2sd xmm0,r13
  402fd6:	4d 8b 6c 24 10       	mov    r13,QWORD PTR [r12+0x10]
  402fdb:	4d 2b 6c 24 08       	sub    r13,QWORD PTR [r12+0x8]
  402fe0:	f2 0f 5e 44 24 10    	divsd  xmm0,QWORD PTR [rsp+0x10]
  402fe6:	4c 89 ea             	mov    rdx,r13
  402fe9:	f2 41 0f 11 04 24    	movsd  QWORD PTR [r12],xmm0
  402fef:	f2 0f 11 84 24 f0 00 00 00 	movsd  QWORD PTR [rsp+0xf0],xmm0
  402ff8:	48 c1 fa 03          	sar    rdx,0x3
  402ffc:	48 c7 84 24 f8 00 00 00 00 00 00 00 	mov    QWORD PTR [rsp+0xf8],0x0
  403008:	48 c7 84 24 00 01 00 00 00 00 00 00 	mov    QWORD PTR [rsp+0x100],0x0
  403014:	48 c7 84 24 08 01 00 00 00 00 00 00 	mov    QWORD PTR [rsp+0x108],0x0
  403020:	0f 84 aa 12 00 00    	je     4042d0 <main+0x1c00>
  403026:	48 b8 ff ff ff ff ff ff ff 1f 	movabs rax,0x1fffffffffffffff
  403030:	48 8d ac 24 d0 00 00 00 	lea    rbp,[rsp+0xd0]
  403038:	48 39 c2             	cmp    rdx,rax
  40303b:	0f 87 4f 1c 00 00    	ja     404c90 <main+0x25c0>
  403041:	4c 89 ef             	mov    rdi,r13
  403044:	e8 47 f1 ff ff       	call   402190 <operator new(unsigned long)@plt>
  403049:	48 89 c1             	mov    rcx,rax
  40304c:	48 89 4c 24 48       	mov    QWORD PTR [rsp+0x48],rcx
  403051:	f3 0f 7e 44 24 48    	movq   xmm0,QWORD PTR [rsp+0x48]
  403057:	49 01 cd             	add    r13,rcx
  40305a:	4c 89 ac 24 08 01 00 00 	mov    QWORD PTR [rsp+0x108],r13
  403062:	66 0f 6c c0          	punpcklqdq xmm0,xmm0
  403066:	0f 11 84 24 f8 00 00 00 	movups XMMWORD PTR [rsp+0xf8],xmm0
  40306e:	49 8b 44 24 10       	mov    rax,QWORD PTR [r12+0x10]
  403073:	49 8b 74 24 08       	mov    rsi,QWORD PTR [r12+0x8]
  403078:	48 89 c5             	mov    rbp,rax
  40307b:	48 29 f5             	sub    rbp,rsi
  40307e:	48 39 f0             	cmp    rax,rsi
  403081:	74 0e                	je     403091 <main+0x9c1>
  403083:	48 89 cf             	mov    rdi,rcx
  403086:	48 89 ea             	mov    rdx,rbp
  403089:	e8 72 f2 ff ff       	call   402300 <memmove@plt>
  40308e:	48 89 c1             	mov    rcx,rax
  403091:	48 01 e9             	add    rcx,rbp
  403094:	83 bb 90 00 00 00 00 	cmp    DWORD PTR [rbx+0x90],0x0
  40309b:	48 89 8c 24 00 01 00 00 	mov    QWORD PTR [rsp+0x100],rcx
  4030a3:	0f 84 94 0f 00 00    	je     40403d <main+0x196d>
  4030a9:	f2 0f 10 83 b8 00 00 00 	movsd  xmm0,QWORD PTR [rbx+0xb8]
  4030b1:	66 0f 2f 84 24 f0 00 00 00 	comisd xmm0,QWORD PTR [rsp+0xf0]
  4030ba:	0f 87 7d 0f 00 00    	ja     40403d <main+0x196d>
  4030c0:	f2 0f 10 84 24 f0 00 00 00 	movsd  xmm0,QWORD PTR [rsp+0xf0]
  4030c9:	66 0f 2f 83 d8 00 00 00 	comisd xmm0,QWORD PTR [rbx+0xd8]
  4030d1:	4c 8d a4 24 f0 00 00 00 	lea    r12,[rsp+0xf0]
  4030d9:	76 22                	jbe    4030fd <main+0xa2d>
  4030db:	f2 0f 10 84 24 f0 00 00 00 	movsd  xmm0,QWORD PTR [rsp+0xf0]
  4030e4:	49 8d 74 24 08       	lea    rsi,[r12+0x8]
  4030e9:	48 8d bb e0 00 00 00 	lea    rdi,[rbx+0xe0]
  4030f0:	f2 0f 11 83 d8 00 00 00 	movsd  QWORD PTR [rbx+0xd8],xmm0
  4030f8:	e8 33 59 00 00       	call   408a30 <std::vector<unsigned long long, std::allocator<unsigned long long> >::operator=(std::vector<unsigned long long, std::allocator<unsigned long long> > const&)>
  4030fd:	48 8b 93 a0 00 00 00 	mov    rdx,QWORD PTR [rbx+0xa0]
  403104:	48 8b 84 24 f8 00 00 00 	mov    rax,QWORD PTR [rsp+0xf8]
  40310c:	bf 28 00 00 00       	mov    edi,0x28
  403111:	4c 8d a4 24 f0 00 00 00 	lea    r12,[rsp+0xf0]
  403119:	83 83 90 00 00 00 01 	add    DWORD PTR [rbx+0x90],0x1
  403120:	f3 0f 6f 40 10       	movdqu xmm0,XMMWORD PTR [rax+0x10]
  403125:	f3 0f 6f 08          	movdqu xmm1,XMMWORD PTR [rax]
  403129:	f3 0f 6f 72 10       	movdqu xmm6,XMMWORD PTR [rdx+0x10]
  40312e:	f3 0f 6f 3a          	movdqu xmm7,XMMWORD PTR [rdx]
  403132:	66 0f d4 c6          	paddq  xmm0,xmm6
  403136:	66 0f d4 cf          	paddq  xmm1,xmm7
  40313a:	0f 29 8c 24 f0 01 00 00 	movaps XMMWORD PTR [rsp+0x1f0],xmm1
  403142:	0f 29 84 24 00 02 00 00 	movaps XMMWORD PTR [rsp+0x200],xmm0
  40314a:	48 8b 40 20          	mov    rax,QWORD PTR [rax+0x20]
  40314e:	48 03 42 20          	add    rax,QWORD PTR [rdx+0x20]
  403152:	48 89 84 24 10 02 00 00 	mov    QWORD PTR [rsp+0x210],rax
  40315a:	e8 31 f0 ff ff       	call   402190 <operator new(unsigned long)@plt>
  40315f:	4c 8d ac 24 f0 01 00 00 	lea    r13,[rsp+0x1f0]
  403167:	b9 0a 00 00 00       	mov    ecx,0xa
  40316c:	48 89 c7             	mov    rdi,rax
  40316f:	48 89 c5             	mov    rbp,rax
  403172:	48 c7 84 24 68 01 00 00 00 00 00 00 	mov    QWORD PTR [rsp+0x168],0x0
  40317e:	4c 89 ee             	mov    rsi,r13
  403181:	f3 a5                	rep movs DWORD PTR es:[rdi],DWORD PTR ds:[rsi]
  403183:	bf 28 00 00 00       	mov    edi,0x28
  403188:	f2 0f 10 83 98 00 00 00 	movsd  xmm0,QWORD PTR [rbx+0x98]
  403190:	f2 0f 58 84 24 f0 00 00 00 	addsd  xmm0,QWORD PTR [rsp+0xf0]
  403199:	f2 0f 11 84 24 50 01 00 00 	movsd  QWORD PTR [rsp+0x150],xmm0
  4031a2:	66 0f ef c0          	pxor   xmm0,xmm0
  4031a6:	0f 11 84 24 58 01 00 00 	movups XMMWORD PTR [rsp+0x158],xmm0
  4031ae:	e8 dd ef ff ff       	call   402190 <operator new(unsigned long)@plt>
  4031b3:	48 89 c7             	mov    rdi,rax
  4031b6:	b9 0a 00 00 00       	mov    ecx,0xa
  4031bb:	48 8d 50 28          	lea    rdx,[rax+0x28]
  4031bf:	48 89 ee             	mov    rsi,rbp
  4031c2:	f3 a5                	rep movs DWORD PTR es:[rdi],DWORD PTR ds:[rsi]
  4031c4:	48 89 ef             	mov    rdi,rbp
  4031c7:	48 89 84 24 58 01 00 00 	mov    QWORD PTR [rsp+0x158],rax
  4031cf:	48 89 94 24 68 01 00 00 	mov    QWORD PTR [rsp+0x168],rdx
  4031d7:	48 89 94 24 60 01 00 00 	mov    QWORD PTR [rsp+0x160],rdx
  4031df:	e8 8c ef ff ff       	call   402170 <operator delete(void*)@plt>
  4031e4:	48 8d bb a0 00 00 00 	lea    rdi,[rbx+0xa0]
  4031eb:	f2 0f 10 84 24 50 01 00 00 	movsd  xmm0,QWORD PTR [rsp+0x150]
  4031f4:	48 8d b4 24 58 01 00 00 	lea    rsi,[rsp+0x158]
  4031fc:	f2 0f 11 83 98 00 00 00 	movsd  QWORD PTR [rbx+0x98],xmm0
  403204:	e8 27 58 00 00       	call   408a30 <std::vector<unsigned long long, std::allocator<unsigned long long> >::operator=(std::vector<unsigned long long, std::allocator<unsigned long long> > const&)>
  403209:	48 8b bc 24 58 01 00 00 	mov    rdi,QWORD PTR [rsp+0x158]
  403211:	48 85 ff             	test   rdi,rdi
  403214:	74 05                	je     40321b <main+0xb4b>
  403216:	e8 55 ef ff ff       	call   402170 <operator delete(void*)@plt>
  40321b:	83 7c 24 30 00       	cmp    DWORD PTR [rsp+0x30],0x0
  403220:	0f 85 38 14 00 00    	jne    40465e <main+0x1f8e>
  403226:	66 0f ef c0          	pxor   xmm0,xmm0
  40322a:	bf 28 00 00 00       	mov    edi,0x28
  40322f:	48 c7 84 24 c0 01 00 00 00 00 00 00 	mov    QWORD PTR [rsp+0x1c0],0x0
  40323b:	0f 11 84 24 c8 01 00 00 	movups XMMWORD PTR [rsp+0x1c8],xmm0
  403243:	48 c7 84 24 d8 01 00 00 00 00 00 00 	mov    QWORD PTR [rsp+0x1d8],0x0
  40324f:	e8 3c ef ff ff       	call   402190 <operator new(unsigned long)@plt>
  403254:	be 60 fd 40 00       	mov    esi,0x40fd60
  403259:	b9 0a 00 00 00       	mov    ecx,0xa
  40325e:	48 8d 50 28          	lea    rdx,[rax+0x28]
  403262:	48 89 c7             	mov    rdi,rax
  403265:	f3 a5                	rep movs DWORD PTR es:[rdi],DWORD PTR ds:[rsi]
  403267:	48 89 84 24 c8 01 00 00 	mov    QWORD PTR [rsp+0x1c8],rax
  40326f:	48 89 94 24 d8 01 00 00 	mov    QWORD PTR [rsp+0x1d8],rdx
  403277:	48 8b 6b 18          	mov    rbp,QWORD PTR [rbx+0x18]
  40327b:	48 89 94 24 d0 01 00 00 	mov    QWORD PTR [rsp+0x1d0],rdx
  403283:	48 8d 7d 28          	lea    rdi,[rbp+0x28]
  403287:	e8 b4 77 00 00       	call   40aa40 <LinuxEvents<0>::start()>
  40328c:	e8 bf ef ff ff       	call   402250 <std::chrono::_V2::steady_clock::now()@plt>
  403291:	4c 89 f9             	mov    rcx,r15
  403294:	48 89 45 20          	mov    QWORD PTR [rbp+0x20],rax
  403298:	48 8b 3d c1 04 01 00 	mov    rdi,QWORD PTR [rip+0x104c1]        # 413760 <simdjson::active_implementation>
  40329f:	48 8b 07             	mov    rax,QWORD PTR [rdi]
  4032a2:	48 8b 73 08          	mov    rsi,QWORD PTR [rbx+0x8]
  4032a6:	48 8b 13             	mov    rdx,QWORD PTR [rbx]
  4032a9:	ff 50 30             	call   QWORD PTR [rax+0x30]
  4032ac:	85 c0                	test   eax,eax
  4032ae:	0f 84 23 10 00 00    	je     4042d7 <main+0x1c07>
  4032b4:	48 98                	cdqe   
  4032b6:	48 8d ac 24 80 02 00 00 	lea    rbp,[rsp+0x280]
  4032be:	bf f1 f4 40 00       	mov    edi,0x40f4f1
  4032c3:	48 8b 5b 10          	mov    rbx,QWORD PTR [rbx+0x10]
  4032c7:	48 6b c0 28          	imul   rax,rax,0x28
  4032cb:	4c 8d 75 10          	lea    r14,[rbp+0x10]
  4032cf:	4c 89 b4 24 80 02 00 00 	mov    QWORD PTR [rsp+0x280],r14
  4032d7:	48 8b 80 68 33 41 00 	mov    rax,QWORD PTR [rax+0x413368]
  4032de:	48 89 44 24 10       	mov    QWORD PTR [rsp+0x10],rax
  4032e3:	e8 e8 2f 00 00       	call   4062d0 <std::char_traits<char>::length(char const*)>
  4032e8:	49 89 c4             	mov    r12,rax
  4032eb:	48 83 f8 0f          	cmp    rax,0xf
  4032ef:	0f 87 e8 14 00 00    	ja     4047dd <main+0x210d>
  4032f5:	48 83 f8 01          	cmp    rax,0x1
  4032f9:	0f 85 1f 18 00 00    	jne    404b1e <main+0x244e>
  4032ff:	c6 84 24 90 02 00 00 46 	mov    BYTE PTR [rsp+0x290],0x46
  403307:	48 8b 84 24 80 02 00 00 	mov    rax,QWORD PTR [rsp+0x280]
  40330f:	4c 89 a4 24 88 02 00 00 	mov    QWORD PTR [rsp+0x288],r12
  403317:	48 89 da             	mov    rdx,rbx
  40331a:	48 89 ee             	mov    rsi,rbp
  40331d:	4c 8d b4 24 50 02 00 00 	lea    r14,[rsp+0x250]
  403325:	42 c6 04 20 00       	mov    BYTE PTR [rax+r12*1],0x0
  40332a:	4c 89 f7             	mov    rdi,r14
  40332d:	e8 3e 60 00 00       	call   409370 <std::__cxx11::basic_string<char, std::char_traits<char>, std::allocator<char> > std::operator+<char, std::char_traits<char>, std::allocator<char> >(std::__cxx11::basic_string<char, std::char_traits<char>, std::allocator<char> >&&, char const*)>
  403332:	bf 14 f5 40 00       	mov    edi,0x40f514
  403337:	e8 94 2f 00 00       	call   4062d0 <std::char_traits<char>::length(char const*)>
  40333c:	48 b9 ff ff ff ff ff ff ff 7f 	movabs rcx,0x7fffffffffffffff
  403346:	48 2b 8c 24 58 02 00 00 	sub    rcx,QWORD PTR [rsp+0x258]
  40334e:	48 39 c8             	cmp    rax,rcx
  403351:	0f 87 f5 18 00 00    	ja     404c4c <main+0x257c>
  403357:	48 89 c2             	mov    rdx,rax
  40335a:	be 14 f5 40 00       	mov    esi,0x40f514
  40335f:	4c 89 f7             	mov    rdi,r14
  403362:	e8 b9 5c 00 00       	call   409020 <std::__cxx11::basic_string<char, std::char_traits<char>, std::allocator<char> >::_M_append(char const*, unsigned long)>
  403367:	4c 8d a4 24 20 02 00 00 	lea    r12,[rsp+0x220]
  40336f:	49 8d 54 24 10       	lea    rdx,[r12+0x10]
  403374:	48 89 94 24 20 02 00 00 	mov    QWORD PTR [rsp+0x220],rdx
  40337c:	48 8b 08             	mov    rcx,QWORD PTR [rax]
  40337f:	48 8d 50 10          	lea    rdx,[rax+0x10]
  403383:	48 39 d1             	cmp    rcx,rdx
  403386:	0f 84 80 17 00 00    	je     404b0c <main+0x243c>
  40338c:	48 89 8c 24 20 02 00 00 	mov    QWORD PTR [rsp+0x220],rcx
  403394:	48 8b 48 10          	mov    rcx,QWORD PTR [rax+0x10]
  403398:	48 89 8c 24 30 02 00 00 	mov    QWORD PTR [rsp+0x230],rcx
  4033a0:	48 8b 48 08          	mov    rcx,QWORD PTR [rax+0x8]
  4033a4:	4c 89 e6             	mov    rsi,r12
  4033a7:	4c 89 ef             	mov    rdi,r13
  4033aa:	48 89 8c 24 28 02 00 00 	mov    QWORD PTR [rsp+0x228],rcx
  4033b2:	48 89 10             	mov    QWORD PTR [rax],rdx
  4033b5:	48 8b 54 24 10       	mov    rdx,QWORD PTR [rsp+0x10]
  4033ba:	48 c7 40 08 00 00 00 00 	mov    QWORD PTR [rax+0x8],0x0
  4033c2:	c6 40 10 00          	mov    BYTE PTR [rax+0x10],0x0
  4033c6:	e8 a5 5f 00 00       	call   409370 <std::__cxx11::basic_string<char, std::char_traits<char>, std::allocator<char> > std::operator+<char, std::char_traits<char>, std::allocator<char> >(std::__cxx11::basic_string<char, std::char_traits<char>, std::allocator<char> >&&, char const*)>
  4033cb:	4c 89 ef             	mov    rdi,r13
  4033ce:	e8 2d 24 00 00       	call   405800 <exit_error(std::__cxx11::basic_string<char, std::char_traits<char>, std::allocator<char> >)>
  4033d3:	48 8d 84 24 b8 00 00 00 	lea    rax,[rsp+0xb8]
  4033db:	45 31 ed             	xor    r13d,r13d
  4033de:	48 89 44 24 20       	mov    QWORD PTR [rsp+0x20],rax
  4033e3:	0f b6 84 24 b4 01 00 00 	movzx  eax,BYTE PTR [rsp+0x1b4]
  4033eb:	44 39 ac 24 ac 01 00 00 	cmp    DWORD PTR [rsp+0x1ac],r13d
  4033f3:	0f 8e 80 0c 00 00    	jle    404079 <main+0x19a9>
  4033f9:	84 c0                	test   al,al
  4033fb:	0f 84 39 09 00 00    	je     403d3a <main+0x166a>
  403401:	45 31 f6             	xor    r14d,r14d
  403404:	48 8b 84 24 98 01 00 00 	mov    rax,QWORD PTR [rsp+0x198]
  40340c:	48 2b 84 24 90 01 00 00 	sub    rax,QWORD PTR [rsp+0x190]
  403414:	48 c1 f8 03          	sar    rax,0x3
  403418:	49 39 c6             	cmp    r14,rax
  40341b:	0f 83 5f 13 00 00    	jae    404780 <main+0x20b0>
  403421:	bf 9f f4 40 00       	mov    edi,0x40f49f
  403426:	48 8b 1d c3 fd 00 00 	mov    rbx,QWORD PTR [rip+0xfdc3]        # 4131f0 <verbose_stream>
  40342d:	e8 9e 2e 00 00       	call   4062d0 <std::char_traits<char>::length(char const*)>
  403432:	be 9f f4 40 00       	mov    esi,0x40f49f
  403437:	48 89 c2             	mov    rdx,rax
  40343a:	48 89 df             	mov    rdi,rbx
  40343d:	e8 7e ed ff ff       	call   4021c0 <std::basic_ostream<char, std::char_traits<char> >& std::__ostream_insert<char, std::char_traits<char> >(std::basic_ostream<char, std::char_traits<char> >&, char const*, long)@plt>
  403442:	48 8b 44 24 50       	mov    rax,QWORD PTR [rsp+0x50]
  403447:	4a 8d 2c f5 00 00 00 00 	lea    rbp,[r14*8+0x0]
  40344f:	4a 8b 04 f0          	mov    rax,QWORD PTR [rax+r14*8]
  403453:	4c 8b 60 10          	mov    r12,QWORD PTR [rax+0x10]
  403457:	4d 85 e4             	test   r12,r12
  40345a:	0f 84 ec 08 00 00    	je     403d4c <main+0x167c>
  403460:	4c 89 e7             	mov    rdi,r12
  403463:	e8 68 2e 00 00       	call   4062d0 <std::char_traits<char>::length(char const*)>
  403468:	4c 89 e6             	mov    rsi,r12
  40346b:	48 89 df             	mov    rdi,rbx
  40346e:	48 89 c2             	mov    rdx,rax
  403471:	e8 4a ed ff ff       	call   4021c0 <std::basic_ostream<char, std::char_traits<char> >& std::__ostream_insert<char, std::char_traits<char> >(std::basic_ostream<char, std::char_traits<char> >&, char const*, long)@plt>
  403476:	bf aa f4 40 00       	mov    edi,0x40f4aa
  40347b:	e8 50 2e 00 00       	call   4062d0 <std::char_traits<char>::length(char const*)>
  403480:	be aa f4 40 00       	mov    esi,0x40f4aa
  403485:	48 89 df             	mov    rdi,rbx
  403488:	48 89 c2             	mov    rdx,rax
  40348b:	e8 30 ed ff ff       	call   4021c0 <std::basic_ostream<char, std::char_traits<char> >& std::__ostream_insert<char, std::char_traits<char> >(std::basic_ostream<char, std::char_traits<char> >&, char const*, long)@plt>
  403490:	44 89 ee             	mov    esi,r13d
  403493:	48 89 df             	mov    rdi,rbx
  403496:	e8 b5 ee ff ff       	call   402350 <std::ostream::operator<<(int)@plt>
  40349b:	bf b8 f4 40 00       	mov    edi,0x40f4b8
  4034a0:	48 89 c3             	mov    rbx,rax
  4034a3:	e8 28 2e 00 00       	call   4062d0 <std::char_traits<char>::length(char const*)>
  4034a8:	be b8 f4 40 00       	mov    esi,0x40f4b8
  4034ad:	48 89 df             	mov    rdi,rbx
  4034b0:	48 89 c2             	mov    rdx,rax
  4034b3:	e8 08 ed ff ff       	call   4021c0 <std::basic_ostream<char, std::char_traits<char> >& std::__ostream_insert<char, std::char_traits<char> >(std::basic_ostream<char, std::char_traits<char> >&, char const*, long)@plt>
  4034b8:	8b b4 24 b0 01 00 00 	mov    esi,DWORD PTR [rsp+0x1b0]
  4034bf:	48 89 df             	mov    rdi,rbx
  4034c2:	44 01 ee             	add    esi,r13d
  4034c5:	83 ee 01             	sub    esi,0x1
  4034c8:	e8 83 ee ff ff       	call   402350 <std::ostream::operator<<(int)@plt>
  4034cd:	48 89 c7             	mov    rdi,rax
  4034d0:	e8 0b ec ff ff       	call   4020e0 <std::basic_ostream<char, std::char_traits<char> >& std::endl<char, std::char_traits<char> >(std::basic_ostream<char, std::char_traits<char> >&)@plt>
  4034d5:	48 8b 44 24 50       	mov    rax,QWORD PTR [rsp+0x50]
  4034da:	4c 63 bc 24 b0 01 00 00 	movsxd r15,DWORD PTR [rsp+0x1b0]
  4034e2:	48 8b 1c 28          	mov    rbx,QWORD PTR [rax+rbp*1]
  4034e6:	0f b6 84 24 b6 01 00 00 	movzx  eax,BYTE PTR [rsp+0x1b6]
  4034ee:	88 44 24 28          	mov    BYTE PTR [rsp+0x28],al
  4034f2:	4d 85 ff             	test   r15,r15
  4034f5:	0f 84 57 06 00 00    	je     403b52 <main+0x1482>
  4034fb:	48 c7 44 24 08 00 00 00 00 	mov    QWORD PTR [rsp+0x8],0x0
  403504:	48 8b 6b 18          	mov    rbp,QWORD PTR [rbx+0x18]
  403508:	48 8d 7d 28          	lea    rdi,[rbp+0x28]
  40350c:	e8 2f 75 00 00       	call   40aa40 <LinuxEvents<0>::start()>
  403511:	e8 3a ed ff ff       	call   402250 <std::chrono::_V2::steady_clock::now()@plt>
  403516:	66 0f 6f 15 c2 c8 00 00 	movdqa xmm2,XMMWORD PTR [rip+0xc8c2]        # 40fde0 <._114+0x80>
  40351e:	48 89 45 20          	mov    QWORD PTR [rbp+0x20],rax
  403522:	0f 11 94 24 b8 02 00 00 	movups XMMWORD PTR [rsp+0x2b8],xmm2
  40352a:	48 c7 84 24 c8 02 00 00 00 00 00 00 	mov    QWORD PTR [rsp+0x2c8],0x0
  403536:	48 c7 84 24 e0 02 00 00 00 00 00 00 	mov    QWORD PTR [rsp+0x2e0],0x0
  403542:	48 8b 2b             	mov    rbp,QWORD PTR [rbx]
  403545:	48 c7 84 24 80 02 00 00 00 00 00 00 	mov    QWORD PTR [rsp+0x280],0x0
  403551:	48 c7 84 24 88 02 00 00 00 00 00 00 	mov    QWORD PTR [rsp+0x288],0x0
  40355d:	48 c7 84 24 90 02 00 00 00 00 00 00 	mov    QWORD PTR [rsp+0x290],0x0
  403569:	48 c7 84 24 98 02 00 00 00 00 00 00 	mov    QWORD PTR [rsp+0x298],0x0
  403575:	c6 84 24 a0 02 00 00 00 	mov    BYTE PTR [rsp+0x2a0],0x0
  40357d:	c7 84 24 a4 02 00 00 0c 00 00 00 	mov    DWORD PTR [rsp+0x2a4],0xc
  403588:	48 c7 84 24 a8 02 00 00 00 00 00 00 	mov    QWORD PTR [rsp+0x2a8],0x0
  403594:	48 c7 84 24 b0 02 00 00 00 00 00 00 	mov    QWORD PTR [rsp+0x2b0],0x0
  4035a0:	48 c7 84 24 d0 02 00 00 30 50 40 00 	mov    QWORD PTR [rsp+0x2d0],0x405030
  4035ac:	48 c7 84 24 d8 02 00 00 00 00 00 00 	mov    QWORD PTR [rsp+0x2d8],0x0
  4035b8:	48 85 ed             	test   rbp,rbp
  4035bb:	0f 84 17 01 00 00    	je     4036d8 <main+0x1008>
  4035c1:	b9 03 00 00 00       	mov    ecx,0x3
  4035c6:	48 8d 44 ad 00       	lea    rax,[rbp+rbp*4+0x0]
  4035cb:	4c 8d 65 41          	lea    r12,[rbp+0x41]
  4035cf:	31 d2                	xor    edx,edx
  4035d1:	48 f7 f1             	div    rcx
  4035d4:	be b0 2d 41 00       	mov    esi,0x412db0
  4035d9:	49 83 e4 c0          	and    r12,0xffffffffffffffc0
  4035dd:	48 83 c0 5f          	add    rax,0x5f
  4035e1:	48 83 e0 c0          	and    rax,0xffffffffffffffc0
  4035e5:	48 89 c7             	mov    rdi,rax
  4035e8:	e8 23 ed ff ff       	call   402310 <operator new[](unsigned long, std::nothrow_t const&)@plt>
  4035ed:	48 8b bc 24 b0 02 00 00 	mov    rdi,QWORD PTR [rsp+0x2b0]
  4035f5:	48 89 84 24 b0 02 00 00 	mov    QWORD PTR [rsp+0x2b0],rax
  4035fd:	48 85 ff             	test   rdi,rdi
  403600:	74 05                	je     403607 <main+0xf37>
  403602:	e8 39 ec ff ff       	call   402240 <operator delete[](void*)@plt>
  403607:	48 b8 ff ff ff ff ff ff ff 0f 	movabs rax,0xfffffffffffffff
  403611:	49 39 c4             	cmp    r12,rax
  403614:	0f 87 38 f0 ff ff    	ja     402652 <main.cold.191+0x273>
  40361a:	4a 8d 3c e5 00 00 00 00 	lea    rdi,[r12*8+0x0]
  403622:	be b0 2d 41 00       	mov    esi,0x412db0
  403627:	e8 e4 ec ff ff       	call   402310 <operator new[](unsigned long, std::nothrow_t const&)@plt>
  40362c:	48 8b bc 24 a8 02 00 00 	mov    rdi,QWORD PTR [rsp+0x2a8]
  403634:	48 89 84 24 a8 02 00 00 	mov    QWORD PTR [rsp+0x2a8],rax
  40363c:	48 85 ff             	test   rdi,rdi
  40363f:	74 05                	je     403646 <main+0xf76>
  403641:	e8 fa eb ff ff       	call   402240 <operator delete[](void*)@plt>
  403646:	48 83 bc 24 b0 02 00 00 00 	cmp    QWORD PTR [rsp+0x2b0],0x0
  40364f:	0f 84 29 05 00 00    	je     403b7e <main+0x14ae>
  403655:	48 83 bc 24 a8 02 00 00 00 	cmp    QWORD PTR [rsp+0x2a8],0x0
  40365e:	0f 84 1a 05 00 00    	je     403b7e <main+0x14ae>
  403664:	48 ba fe ff ff ff ff ff ff 1f 	movabs rdx,0x1ffffffffffffffe
  40366e:	48 8d 45 3f          	lea    rax,[rbp+0x3f]
  403672:	48 83 e0 c0          	and    rax,0xffffffffffffffc0
  403676:	48 83 c0 09          	add    rax,0x9
  40367a:	48 39 d0             	cmp    rax,rdx
  40367d:	0f 87 3c f0 ff ff    	ja     4026bf <main.cold.191+0x2e0>
  403683:	48 8d 3c 85 00 00 00 00 	lea    rdi,[rax*4+0x0]
  40368b:	be b0 2d 41 00       	mov    esi,0x412db0
  403690:	e8 7b ec ff ff       	call   402310 <operator new[](unsigned long, std::nothrow_t const&)@plt>
  403695:	48 8b bc 24 88 02 00 00 	mov    rdi,QWORD PTR [rsp+0x288]
  40369d:	48 89 84 24 88 02 00 00 	mov    QWORD PTR [rsp+0x288],rax
  4036a5:	48 85 ff             	test   rdi,rdi
  4036a8:	74 05                	je     4036af <main+0xfdf>
  4036aa:	e8 91 eb ff ff       	call   402240 <operator delete[](void*)@plt>
  4036af:	48 83 bc 24 88 02 00 00 00 	cmp    QWORD PTR [rsp+0x288],0x0
  4036b8:	0f 84 c0 04 00 00    	je     403b7e <main+0x14ae>
  4036be:	48 81 bc 24 c8 02 00 00 00 04 00 00 	cmp    QWORD PTR [rsp+0x2c8],0x400
  4036ca:	48 89 ac 24 c0 02 00 00 	mov    QWORD PTR [rsp+0x2c0],rbp
  4036d2:	0f 84 88 00 00 00    	je     403760 <main+0x1090>
  4036d8:	bf 00 20 00 00       	mov    edi,0x2000
  4036dd:	be b0 2d 41 00       	mov    esi,0x412db0
  4036e2:	48 c7 84 24 c8 02 00 00 00 00 00 00 	mov    QWORD PTR [rsp+0x2c8],0x0
  4036ee:	e8 1d ec ff ff       	call   402310 <operator new[](unsigned long, std::nothrow_t const&)@plt>
  4036f3:	48 8b bc 24 90 02 00 00 	mov    rdi,QWORD PTR [rsp+0x290]
  4036fb:	48 89 84 24 90 02 00 00 	mov    QWORD PTR [rsp+0x290],rax
  403703:	48 85 ff             	test   rdi,rdi
  403706:	74 05                	je     40370d <main+0x103d>
  403708:	e8 33 eb ff ff       	call   402240 <operator delete[](void*)@plt>
  40370d:	bf 00 20 00 00       	mov    edi,0x2000
  403712:	be b0 2d 41 00       	mov    esi,0x412db0
  403717:	e8 f4 eb ff ff       	call   402310 <operator new[](unsigned long, std::nothrow_t const&)@plt>
  40371c:	48 8b bc 24 98 02 00 00 	mov    rdi,QWORD PTR [rsp+0x298]
  403724:	48 89 84 24 98 02 00 00 	mov    QWORD PTR [rsp+0x298],rax
  40372c:	48 85 ff             	test   rdi,rdi
  40372f:	74 05                	je     403736 <main+0x1066>
  403731:	e8 0a eb ff ff       	call   402240 <operator delete[](void*)@plt>
  403736:	48 83 bc 24 98 02 00 00 00 	cmp    QWORD PTR [rsp+0x298],0x0
  40373f:	0f 84 39 04 00 00    	je     403b7e <main+0x14ae>
  403745:	48 83 bc 24 90 02 00 00 00 	cmp    QWORD PTR [rsp+0x290],0x0
  40374e:	0f 84 2a 04 00 00    	je     403b7e <main+0x14ae>
  403754:	48 c7 84 24 c8 02 00 00 00 04 00 00 	mov    QWORD PTR [rsp+0x2c8],0x400
  403760:	48 8b 6b 18          	mov    rbp,QWORD PTR [rbx+0x18]
  403764:	e8 e7 ea ff ff       	call   402250 <std::chrono::_V2::steady_clock::now()@plt>
  403769:	48 8d 75 08          	lea    rsi,[rbp+0x8]
  40376d:	48 8d 7d 28          	lea    rdi,[rbp+0x28]
  403771:	49 89 c4             	mov    r12,rax
  403774:	e8 f7 6d 00 00       	call   40a570 <LinuxEvents<0>::end(std::vector<unsigned long long, std::allocator<unsigned long long> >&)>
  403779:	4c 2b 65 20          	sub    r12,QWORD PTR [rbp+0x20]
  40377d:	66 0f ef c0          	pxor   xmm0,xmm0
  403781:	f2 0f 10 1d ff c5 00 00 	movsd  xmm3,QWORD PTR [rip+0xc5ff]        # 40fd88 <._114+0x28>
  403789:	f2 49 0f 2a c4       	cvtsi2sd xmm0,r12
  40378e:	4c 8b 65 10          	mov    r12,QWORD PTR [rbp+0x10]
  403792:	4c 2b 65 08          	sub    r12,QWORD PTR [rbp+0x8]
  403796:	4c 89 e2             	mov    rdx,r12
  403799:	f2 0f 11 5c 24 10    	movsd  QWORD PTR [rsp+0x10],xmm3
  40379f:	48 c1 fa 03          	sar    rdx,0x3
  4037a3:	f2 0f 5e c3          	divsd  xmm0,xmm3
  4037a7:	f2 0f 11 45 00       	movsd  QWORD PTR [rbp+0x0],xmm0
  4037ac:	f2 0f 11 84 24 90 00 00 00 	movsd  QWORD PTR [rsp+0x90],xmm0
  4037b5:	48 c7 84 24 98 00 00 00 00 00 00 00 	mov    QWORD PTR [rsp+0x98],0x0
  4037c1:	48 c7 84 24 a0 00 00 00 00 00 00 00 	mov    QWORD PTR [rsp+0xa0],0x0
  4037cd:	48 c7 84 24 a8 00 00 00 00 00 00 00 	mov    QWORD PTR [rsp+0xa8],0x0
  4037d9:	0f 84 ae 0a 00 00    	je     40428d <main+0x1bbd>
  4037df:	48 b8 ff ff ff ff ff ff ff 1f 	movabs rax,0x1fffffffffffffff
  4037e9:	48 39 c2             	cmp    rdx,rax
  4037ec:	0f 87 99 14 00 00    	ja     404c8b <main+0x25bb>
  4037f2:	4c 89 e7             	mov    rdi,r12
  4037f5:	e8 96 e9 ff ff       	call   402190 <operator new(unsigned long)@plt>
  4037fa:	48 89 c1             	mov    rcx,rax
  4037fd:	48 89 4c 24 18       	mov    QWORD PTR [rsp+0x18],rcx
  403802:	f3 0f 7e 44 24 18    	movq   xmm0,QWORD PTR [rsp+0x18]
  403808:	49 01 cc             	add    r12,rcx
  40380b:	4c 89 a4 24 a8 00 00 00 	mov    QWORD PTR [rsp+0xa8],r12
  403813:	66 0f 6c c0          	punpcklqdq xmm0,xmm0
  403817:	0f 11 84 24 98 00 00 00 	movups XMMWORD PTR [rsp+0x98],xmm0
  40381f:	48 8b 45 10          	mov    rax,QWORD PTR [rbp+0x10]
  403823:	48 8b 75 08          	mov    rsi,QWORD PTR [rbp+0x8]
  403827:	48 89 c5             	mov    rbp,rax
  40382a:	48 29 f5             	sub    rbp,rsi
  40382d:	48 39 f0             	cmp    rax,rsi
  403830:	74 0e                	je     403840 <main+0x1170>
  403832:	48 89 cf             	mov    rdi,rcx
  403835:	48 89 ea             	mov    rdx,rbp
  403838:	e8 c3 ea ff ff       	call   402300 <memmove@plt>
  40383d:	48 89 c1             	mov    rcx,rax
  403840:	48 01 e9             	add    rcx,rbp
  403843:	48 8d bb 60 01 00 00 	lea    rdi,[rbx+0x160]
  40384a:	48 8d b4 24 90 00 00 00 	lea    rsi,[rsp+0x90]
  403852:	48 89 8c 24 a0 00 00 00 	mov    QWORD PTR [rsp+0xa0],rcx
  40385a:	48 8d ac 24 80 02 00 00 	lea    rbp,[rsp+0x280]
  403862:	e8 09 53 00 00       	call   408b70 <event_aggregate::operator<<(event_count const&)>
  403867:	80 7c 24 28 00       	cmp    BYTE PTR [rsp+0x28],0x0
  40386c:	48 8d ac 24 80 02 00 00 	lea    rbp,[rsp+0x280]
  403874:	0f 85 06 05 00 00    	jne    403d80 <main+0x16b0>
  40387a:	4c 8b 25 6f f9 00 00 	mov    r12,QWORD PTR [rip+0xf96f]        # 4131f0 <verbose_stream>
  403881:	ba 2b 00 00 00       	mov    edx,0x2b
  403886:	be a0 f3 40 00       	mov    esi,0x40f3a0
  40388b:	4c 89 e7             	mov    rdi,r12
  40388e:	e8 2d e9 ff ff       	call   4021c0 <std::basic_ostream<char, std::char_traits<char> >& std::__ostream_insert<char, std::char_traits<char> >(std::basic_ostream<char, std::char_traits<char> >&, char const*, long)@plt>
  403893:	49 8b 04 24          	mov    rax,QWORD PTR [r12]
  403897:	48 8b 78 e8          	mov    rdi,QWORD PTR [rax-0x18]
  40389b:	4c 01 e7             	add    rdi,r12
  40389e:	e8 ad 17 00 00       	call   405050 <std::basic_ios<char, std::char_traits<char> >::widen(char) const [clone .constprop.184]>
  4038a3:	0f be f0             	movsx  esi,al
  4038a6:	4c 89 e7             	mov    rdi,r12
  4038a9:	e8 92 e7 ff ff       	call   402040 <std::ostream::put(char)@plt>
  4038ae:	48 89 c7             	mov    rdi,rax
  4038b1:	e8 7a e8 ff ff       	call   402130 <std::ostream::flush()@plt>
  4038b6:	4c 8b 63 18          	mov    r12,QWORD PTR [rbx+0x18]
  4038ba:	49 8d 7c 24 28       	lea    rdi,[r12+0x28]
  4038bf:	e8 7c 71 00 00       	call   40aa40 <LinuxEvents<0>::start()>
  4038c4:	e8 87 e9 ff ff       	call   402250 <std::chrono::_V2::steady_clock::now()@plt>
  4038c9:	45 31 c0             	xor    r8d,r8d
  4038cc:	48 89 e9             	mov    rcx,rbp
  4038cf:	49 89 44 24 20       	mov    QWORD PTR [r12+0x20],rax
  4038d4:	48 8b 3d 85 fe 00 00 	mov    rdi,QWORD PTR [rip+0xfe85]        # 413760 <simdjson::active_implementation>
  4038db:	48 8b 07             	mov    rax,QWORD PTR [rdi]
  4038de:	48 8b 73 08          	mov    rsi,QWORD PTR [rbx+0x8]
  4038e2:	48 8b 13             	mov    rdx,QWORD PTR [rbx]
  4038e5:	ff 50 28             	call   QWORD PTR [rax+0x28]
  4038e8:	4c 8b 63 18          	mov    r12,QWORD PTR [rbx+0x18]
  4038ec:	89 44 24 18          	mov    DWORD PTR [rsp+0x18],eax
  4038f0:	e8 5b e9 ff ff       	call   402250 <std::chrono::_V2::steady_clock::now()@plt>
  4038f5:	49 8d 74 24 08       	lea    rsi,[r12+0x8]
  4038fa:	49 8d 7c 24 28       	lea    rdi,[r12+0x28]
  4038ff:	48 89 44 24 30       	mov    QWORD PTR [rsp+0x30],rax
  403904:	e8 67 6c 00 00       	call   40a570 <LinuxEvents<0>::end(std::vector<unsigned long long, std::allocator<unsigned long long> >&)>
  403909:	48 8b 44 24 30       	mov    rax,QWORD PTR [rsp+0x30]
  40390e:	66 0f ef c0          	pxor   xmm0,xmm0
  403912:	49 2b 44 24 20       	sub    rax,QWORD PTR [r12+0x20]
  403917:	f2 48 0f 2a c0       	cvtsi2sd xmm0,rax
  40391c:	49 8b 44 24 10       	mov    rax,QWORD PTR [r12+0x10]
  403921:	49 2b 44 24 08       	sub    rax,QWORD PTR [r12+0x8]
  403926:	f2 0f 5e 44 24 10    	divsd  xmm0,QWORD PTR [rsp+0x10]
  40392c:	48 89 44 24 10       	mov    QWORD PTR [rsp+0x10],rax
  403931:	48 c1 f8 03          	sar    rax,0x3
  403935:	f2 41 0f 11 04 24    	movsd  QWORD PTR [r12],xmm0
  40393b:	48 89 c2             	mov    rdx,rax
  40393e:	f2 0f 11 84 24 b0 00 00 00 	movsd  QWORD PTR [rsp+0xb0],xmm0
  403947:	48 c7 84 24 b8 00 00 00 00 00 00 00 	mov    QWORD PTR [rsp+0xb8],0x0
  403953:	48 c7 84 24 c0 00 00 00 00 00 00 00 	mov    QWORD PTR [rsp+0xc0],0x0
  40395f:	48 c7 84 24 c8 00 00 00 00 00 00 00 	mov    QWORD PTR [rsp+0xc8],0x0
  40396b:	0f 84 81 06 00 00    	je     403ff2 <main+0x1922>
  403971:	48 b8 ff ff ff ff ff ff ff 1f 	movabs rax,0x1fffffffffffffff
  40397b:	48 39 c2             	cmp    rdx,rax
  40397e:	0f 87 77 12 00 00    	ja     404bfb <main+0x252b>
  403984:	48 8b 7c 24 10       	mov    rdi,QWORD PTR [rsp+0x10]
  403989:	e8 02 e8 ff ff       	call   402190 <operator new(unsigned long)@plt>
  40398e:	48 89 c1             	mov    rcx,rax
  403991:	48 89 4c 24 30       	mov    QWORD PTR [rsp+0x30],rcx
  403996:	48 8b 44 24 10       	mov    rax,QWORD PTR [rsp+0x10]
  40399b:	f3 0f 7e 44 24 30    	movq   xmm0,QWORD PTR [rsp+0x30]
  4039a1:	48 01 c8             	add    rax,rcx
  4039a4:	66 0f 6c c0          	punpcklqdq xmm0,xmm0
  4039a8:	48 89 84 24 c8 00 00 00 	mov    QWORD PTR [rsp+0xc8],rax
  4039b0:	0f 11 84 24 b8 00 00 00 	movups XMMWORD PTR [rsp+0xb8],xmm0
  4039b8:	49 8b 44 24 10       	mov    rax,QWORD PTR [r12+0x10]
  4039bd:	49 8b 74 24 08       	mov    rsi,QWORD PTR [r12+0x8]
  4039c2:	49 89 c4             	mov    r12,rax
  4039c5:	49 29 f4             	sub    r12,rsi
  4039c8:	48 39 f0             	cmp    rax,rsi
  4039cb:	74 0e                	je     4039db <main+0x130b>
  4039cd:	48 89 cf             	mov    rdi,rcx
  4039d0:	4c 89 e2             	mov    rdx,r12
  4039d3:	e8 28 e9 ff ff       	call   402300 <memmove@plt>
  4039d8:	48 89 c1             	mov    rcx,rax
  4039db:	4c 01 e1             	add    rcx,r12
  4039de:	48 8d bb 90 00 00 00 	lea    rdi,[rbx+0x90]
  4039e5:	48 8d b4 24 b0 00 00 00 	lea    rsi,[rsp+0xb0]
  4039ed:	48 89 8c 24 c0 00 00 00 	mov    QWORD PTR [rsp+0xc0],rcx
  4039f5:	e8 76 51 00 00       	call   408b70 <event_aggregate::operator<<(event_count const&)>
  4039fa:	83 7c 24 18 00       	cmp    DWORD PTR [rsp+0x18],0x0
  4039ff:	0f 85 2d 08 00 00    	jne    404232 <main+0x1b62>
  403a05:	83 7b 28 00          	cmp    DWORD PTR [rbx+0x28],0x0
  403a09:	0f 84 7e 07 00 00    	je     40418d <main+0x1abd>
  403a0f:	f2 0f 10 43 50       	movsd  xmm0,QWORD PTR [rbx+0x50]
  403a14:	66 0f 2f 84 24 b0 00 00 00 	comisd xmm0,QWORD PTR [rsp+0xb0]
  403a1d:	0f 87 6a 07 00 00    	ja     40418d <main+0x1abd>
  403a23:	f2 0f 10 84 24 b0 00 00 00 	movsd  xmm0,QWORD PTR [rsp+0xb0]
  403a2c:	66 0f 2f 43 70       	comisd xmm0,QWORD PTR [rbx+0x70]
  403a31:	76 1c                	jbe    403a4f <main+0x137f>
  403a33:	f2 0f 10 84 24 b0 00 00 00 	movsd  xmm0,QWORD PTR [rsp+0xb0]
  403a3c:	48 8b 74 24 20       	mov    rsi,QWORD PTR [rsp+0x20]
  403a41:	48 8d 7b 78          	lea    rdi,[rbx+0x78]
  403a45:	f2 0f 11 43 70       	movsd  QWORD PTR [rbx+0x70],xmm0
  403a4a:	e8 e1 4f 00 00       	call   408a30 <std::vector<unsigned long long, std::allocator<unsigned long long> >::operator=(std::vector<unsigned long long, std::allocator<unsigned long long> > const&)>
  403a4f:	83 43 28 01          	add    DWORD PTR [rbx+0x28],0x1
  403a53:	48 8d 73 30          	lea    rsi,[rbx+0x30]
  403a57:	48 8d 94 24 b0 00 00 00 	lea    rdx,[rsp+0xb0]
  403a5f:	48 8d bc 24 10 01 00 00 	lea    rdi,[rsp+0x110]
  403a67:	e8 04 29 00 00       	call   406370 <event_count::operator+(event_count const&) const>
  403a6c:	f2 0f 10 84 24 10 01 00 00 	movsd  xmm0,QWORD PTR [rsp+0x110]
  403a75:	48 8d 84 24 10 01 00 00 	lea    rax,[rsp+0x110]
  403a7d:	48 8d 7b 38          	lea    rdi,[rbx+0x38]
  403a81:	48 8d 70 08          	lea    rsi,[rax+0x8]
  403a85:	f2 0f 11 43 30       	movsd  QWORD PTR [rbx+0x30],xmm0
  403a8a:	e8 a1 4f 00 00       	call   408a30 <std::vector<unsigned long long, std::allocator<unsigned long long> >::operator=(std::vector<unsigned long long, std::allocator<unsigned long long> > const&)>
  403a8f:	48 8b bc 24 18 01 00 00 	mov    rdi,QWORD PTR [rsp+0x118]
  403a97:	48 85 ff             	test   rdi,rdi
  403a9a:	74 05                	je     403aa1 <main+0x13d1>
  403a9c:	e8 cf e6 ff ff       	call   402170 <operator delete(void*)@plt>
  403aa1:	48 83 7b 20 00       	cmp    QWORD PTR [rbx+0x20],0x0
  403aa6:	0f 84 43 07 00 00    	je     4041ef <main+0x1b1f>
  403aac:	48 8b bc 24 b8 00 00 00 	mov    rdi,QWORD PTR [rsp+0xb8]
  403ab4:	48 85 ff             	test   rdi,rdi
  403ab7:	74 05                	je     403abe <main+0x13ee>
  403ab9:	e8 b2 e6 ff ff       	call   402170 <operator delete(void*)@plt>
  403abe:	48 8b bc 24 98 00 00 00 	mov    rdi,QWORD PTR [rsp+0x98]
  403ac6:	48 85 ff             	test   rdi,rdi
  403ac9:	74 05                	je     403ad0 <main+0x1400>
  403acb:	e8 a0 e6 ff ff       	call   402170 <operator delete(void*)@plt>
  403ad0:	48 8b bc 24 d8 02 00 00 	mov    rdi,QWORD PTR [rsp+0x2d8]
  403ad8:	48 85 ff             	test   rdi,rdi
  403adb:	74 07                	je     403ae4 <main+0x1414>
  403add:	ff 94 24 d0 02 00 00 	call   QWORD PTR [rsp+0x2d0]
  403ae4:	48 8b bc 24 b0 02 00 00 	mov    rdi,QWORD PTR [rsp+0x2b0]
  403aec:	48 85 ff             	test   rdi,rdi
  403aef:	74 05                	je     403af6 <main+0x1426>
  403af1:	e8 4a e7 ff ff       	call   402240 <operator delete[](void*)@plt>
  403af6:	48 8b bc 24 a8 02 00 00 	mov    rdi,QWORD PTR [rsp+0x2a8]
  403afe:	48 85 ff             	test   rdi,rdi
  403b01:	74 05                	je     403b08 <main+0x1438>
  403b03:	e8 38 e7 ff ff       	call   402240 <operator delete[](void*)@plt>
  403b08:	48 8b bc 24 98 02 00 00 	mov    rdi,QWORD PTR [rsp+0x298]
  403b10:	48 85 ff             	test   rdi,rdi
  403b13:	74 05                	je     403b1a <main+0x144a>
  403b15:	e8 26 e7 ff ff       	call   402240 <operator delete[](void*)@plt>
  403b1a:	48 8b bc 24 90 02 00 00 	mov    rdi,QWORD PTR [rsp+0x290]
  403b22:	48 85 ff             	test   rdi,rdi
  403b25:	74 05                	je     403b2c <main+0x145c>
  403b27:	e8 14 e7 ff ff       	call   402240 <operator delete[](void*)@plt>
  403b2c:	48 8b bc 24 88 02 00 00 	mov    rdi,QWORD PTR [rsp+0x288]
  403b34:	48 85 ff             	test   rdi,rdi
  403b37:	74 05                	je     403b3e <main+0x146e>
  403b39:	e8 02 e7 ff ff       	call   402240 <operator delete[](void*)@plt>
  403b3e:	48 83 44 24 08 01    	add    QWORD PTR [rsp+0x8],0x1
  403b44:	48 8b 44 24 08       	mov    rax,QWORD PTR [rsp+0x8]
  403b49:	49 39 c7             	cmp    r15,rax
  403b4c:	0f 87 b2 f9 ff ff    	ja     403504 <main+0xe34>
  403b52:	4c 89 fe             	mov    rsi,r15
  403b55:	48 89 df             	mov    rdi,rbx
  403b58:	e8 43 77 00 00       	call   40b2a0 <benchmarker::run_loop(unsigned long)>
  403b5d:	49 83 c6 01          	add    r14,0x1
  403b61:	e9 9e f8 ff ff       	jmp    403404 <main+0xd34>
  403b66:	8b b4 24 ac 01 00 00 	mov    esi,DWORD PTR [rsp+0x1ac]
  403b6d:	bf 85 f4 40 00       	mov    edi,0x40f485
  403b72:	31 c0                	xor    eax,eax
  403b74:	e8 e7 e4 ff ff       	call   402060 <printf@plt>
  403b79:	e9 f0 eb ff ff       	jmp    40276e <main+0x9e>
  403b7e:	4c 8b 03             	mov    r8,QWORD PTR [rbx]
  403b81:	b9 2f f4 40 00       	mov    ecx,0x40f42f
  403b86:	ba 20 00 00 00       	mov    edx,0x20
  403b8b:	31 c0                	xor    eax,eax
  403b8d:	4c 8d b4 24 50 02 00 00 	lea    r14,[rsp+0x250]
  403b95:	be 20 21 40 00       	mov    esi,0x402120
  403b9a:	48 8b 2d 3f f8 00 00 	mov    rbp,QWORD PTR [rip+0xf83f]        # 4133e0 <simdjson::internal::error_codes+0x80>
  403ba1:	4c 89 f7             	mov    rdi,r14
  403ba4:	e8 77 16 00 00       	call   405220 <std::__cxx11::basic_string<char, std::char_traits<char>, std::allocator<char> > __gnu_cxx::__to_xstring<std::__cxx11::basic_string<char, std::char_traits<char>, std::allocator<char> >, char>(int (*)(char*, unsigned long, char const*, __va_list_tag*), unsigned long, char const*, ...) [clone .constprop.175]>
  403ba9:	4c 8d bc 24 f0 02 00 00 	lea    r15,[rsp+0x2f0]
  403bb1:	bf ba f4 40 00       	mov    edi,0x40f4ba
  403bb6:	4d 8d 67 10          	lea    r12,[r15+0x10]
  403bba:	4c 89 a4 24 f0 02 00 00 	mov    QWORD PTR [rsp+0x2f0],r12
  403bc2:	e8 09 27 00 00       	call   4062d0 <std::char_traits<char>::length(char const*)>
  403bc7:	48 89 c3             	mov    rbx,rax
  403bca:	48 83 f8 0f          	cmp    rax,0xf
  403bce:	0f 87 e4 05 00 00    	ja     4041b8 <main+0x1ae8>
  403bd4:	48 83 f8 01          	cmp    rax,0x1
  403bd8:	0f 85 db 02 00 00    	jne    403eb9 <main+0x17e9>
  403bde:	c6 84 24 00 03 00 00 55 	mov    BYTE PTR [rsp+0x300],0x55
  403be6:	e9 d7 02 00 00       	jmp    403ec2 <main+0x17f2>
  403beb:	4c 8b 03             	mov    r8,QWORD PTR [rbx]
  403bee:	b9 2f f4 40 00       	mov    ecx,0x40f42f
  403bf3:	ba 20 00 00 00       	mov    edx,0x20
  403bf8:	31 c0                	xor    eax,eax
  403bfa:	4c 8d b4 24 50 02 00 00 	lea    r14,[rsp+0x250]
  403c02:	be 20 21 40 00       	mov    esi,0x402120
  403c07:	4c 8b 3d d2 f7 00 00 	mov    r15,QWORD PTR [rip+0xf7d2]        # 4133e0 <simdjson::internal::error_codes+0x80>
  403c0e:	4c 89 f7             	mov    rdi,r14
  403c11:	e8 0a 16 00 00       	call   405220 <std::__cxx11::basic_string<char, std::char_traits<char>, std::allocator<char> > __gnu_cxx::__to_xstring<std::__cxx11::basic_string<char, std::char_traits<char>, std::allocator<char> >, char>(int (*)(char*, unsigned long, char const*, __va_list_tag*), unsigned long, char const*, ...) [clone .constprop.175]>
  403c16:	48 8d ac 24 80 02 00 00 	lea    rbp,[rsp+0x280]
  403c1e:	bf ba f4 40 00       	mov    edi,0x40f4ba
  403c23:	4c 8d 65 10          	lea    r12,[rbp+0x10]
  403c27:	4c 89 a4 24 80 02 00 00 	mov    QWORD PTR [rsp+0x280],r12
  403c2f:	e8 9c 26 00 00       	call   4062d0 <std::char_traits<char>::length(char const*)>
  403c34:	48 89 c3             	mov    rbx,rax
  403c37:	48 83 f8 0f          	cmp    rax,0xf
  403c3b:	0f 87 7a 03 00 00    	ja     403fbb <main+0x18eb>
  403c41:	48 83 f8 01          	cmp    rax,0x1
  403c45:	0f 85 6d 06 00 00    	jne    4042b8 <main+0x1be8>
  403c4b:	c6 84 24 90 02 00 00 55 	mov    BYTE PTR [rsp+0x290],0x55
  403c53:	48 8b 84 24 80 02 00 00 	mov    rax,QWORD PTR [rsp+0x280]
  403c5b:	48 89 9c 24 88 02 00 00 	mov    QWORD PTR [rsp+0x288],rbx
  403c63:	4c 89 f2             	mov    rdx,r14
  403c66:	48 89 ee             	mov    rsi,rbp
  403c69:	4c 8d a4 24 20 02 00 00 	lea    r12,[rsp+0x220]
  403c71:	c6 04 18 00          	mov    BYTE PTR [rax+rbx*1],0x0
  403c75:	4c 89 e7             	mov    rdi,r12
  403c78:	e8 03 58 00 00       	call   409480 <std::__cxx11::basic_string<char, std::char_traits<char>, std::allocator<char> > std::operator+<char, std::char_traits<char>, std::allocator<char> >(std::__cxx11::basic_string<char, std::char_traits<char>, std::allocator<char> >&&, std::__cxx11::basic_string<char, std::char_traits<char>, std::allocator<char> >&&)>
  403c7d:	bf d4 f4 40 00       	mov    edi,0x40f4d4
  403c82:	e8 49 26 00 00       	call   4062d0 <std::char_traits<char>::length(char const*)>
  403c87:	48 b9 ff ff ff ff ff ff ff 7f 	movabs rcx,0x7fffffffffffffff
  403c91:	48 2b 8c 24 28 02 00 00 	sub    rcx,QWORD PTR [rsp+0x228]
  403c99:	48 39 c8             	cmp    rax,rcx
  403c9c:	0f 87 df 0f 00 00    	ja     404c81 <main+0x25b1>
  403ca2:	48 89 c2             	mov    rdx,rax
  403ca5:	be d4 f4 40 00       	mov    esi,0x40f4d4
  403caa:	4c 89 e7             	mov    rdi,r12
  403cad:	e8 6e 53 00 00       	call   409020 <std::__cxx11::basic_string<char, std::char_traits<char>, std::allocator<char> >::_M_append(char const*, unsigned long)>
  403cb2:	4c 8d ac 24 f0 01 00 00 	lea    r13,[rsp+0x1f0]
  403cba:	49 8d 55 10          	lea    rdx,[r13+0x10]
  403cbe:	48 89 94 24 f0 01 00 00 	mov    QWORD PTR [rsp+0x1f0],rdx
  403cc6:	48 8b 08             	mov    rcx,QWORD PTR [rax]
  403cc9:	48 8d 50 10          	lea    rdx,[rax+0x10]
  403ccd:	48 39 d1             	cmp    rcx,rdx
  403cd0:	0f 84 d0 05 00 00    	je     4042a6 <main+0x1bd6>
  403cd6:	48 89 8c 24 f0 01 00 00 	mov    QWORD PTR [rsp+0x1f0],rcx
  403cde:	48 8b 48 10          	mov    rcx,QWORD PTR [rax+0x10]
  403ce2:	48 89 8c 24 00 02 00 00 	mov    QWORD PTR [rsp+0x200],rcx
  403cea:	48 8b 48 08          	mov    rcx,QWORD PTR [rax+0x8]
  403cee:	48 8d 9c 24 c0 01 00 00 	lea    rbx,[rsp+0x1c0]
  403cf6:	4c 89 ee             	mov    rsi,r13
  403cf9:	48 89 df             	mov    rdi,rbx
  403cfc:	48 89 5c 24 08       	mov    QWORD PTR [rsp+0x8],rbx
  403d01:	48 89 8c 24 f8 01 00 00 	mov    QWORD PTR [rsp+0x1f8],rcx
  403d09:	48 89 10             	mov    QWORD PTR [rax],rdx
  403d0c:	4c 89 fa             	mov    rdx,r15
  403d0f:	48 c7 40 08 00 00 00 00 	mov    QWORD PTR [rax+0x8],0x0
  403d17:	c6 40 10 00          	mov    BYTE PTR [rax+0x10],0x0
  403d1b:	e8 50 56 00 00       	call   409370 <std::__cxx11::basic_string<char, std::char_traits<char>, std::allocator<char> > std::operator+<char, std::char_traits<char>, std::allocator<char> >(std::__cxx11::basic_string<char, std::char_traits<char>, std::allocator<char> >&&, char const*)>
  403d20:	48 89 df             	mov    rdi,rbx
  403d23:	e8 d8 1a 00 00       	call   405800 <exit_error(std::__cxx11::basic_string<char, std::char_traits<char>, std::allocator<char> >)>
  403d28:	44 89 f6             	mov    esi,r14d
  403d2b:	48 8d 7c 24 70       	lea    rdi,[rsp+0x70]
  403d30:	e8 7b 2a 00 00       	call   4067b0 <progress_bar::print(int)>
  403d35:	e9 c4 eb ff ff       	jmp    4028fe <main+0x22e>
  403d3a:	44 89 ee             	mov    esi,r13d
  403d3d:	48 8d 7c 24 70       	lea    rdi,[rsp+0x70]
  403d42:	e8 69 2a 00 00       	call   4067b0 <progress_bar::print(int)>
  403d47:	e9 b5 f6 ff ff       	jmp    403401 <main+0xd31>
  403d4c:	48 8b 03             	mov    rax,QWORD PTR [rbx]
  403d4f:	48 8b 78 e8          	mov    rdi,QWORD PTR [rax-0x18]
  403d53:	48 01 df             	add    rdi,rbx
  403d56:	8b 77 20             	mov    esi,DWORD PTR [rdi+0x20]
  403d59:	83 ce 01             	or     esi,0x1
  403d5c:	e8 cf e5 ff ff       	call   402330 <std::basic_ios<char, std::char_traits<char> >::clear(std::_Ios_Iostate)@plt>
  403d61:	e9 10 f7 ff ff       	jmp    403476 <main+0xda6>
  403d66:	48 8b 03             	mov    rax,QWORD PTR [rbx]
  403d69:	48 8b 78 e8          	mov    rdi,QWORD PTR [rax-0x18]
  403d6d:	48 01 df             	add    rdi,rbx
  403d70:	8b 77 20             	mov    esi,DWORD PTR [rdi+0x20]
  403d73:	83 ce 01             	or     esi,0x1
  403d76:	e8 b5 e5 ff ff       	call   402330 <std::basic_ios<char, std::char_traits<char> >::clear(std::_Ios_Iostate)@plt>
  403d7b:	e9 fe eb ff ff       	jmp    40297e <main+0x2ae>
  403d80:	48 8b 53 08          	mov    rdx,QWORD PTR [rbx+0x8]
  403d84:	48 8d ac 24 80 02 00 00 	lea    rbp,[rsp+0x280]
  403d8c:	48 8b 0b             	mov    rcx,QWORD PTR [rbx]
  403d8f:	48 8d bc 24 70 01 00 00 	lea    rdi,[rsp+0x170]
  403d97:	48 89 ee             	mov    rsi,rbp
  403d9a:	e8 11 16 00 00       	call   4053b0 <simdjson::dom::parser::parse(unsigned char const*, unsigned long, bool) & [clone .constprop.187]>
  403d9f:	48 63 84 24 80 01 00 00 	movsxd rax,DWORD PTR [rsp+0x180]
  403da7:	85 c0                	test   eax,eax
  403da9:	0f 84 cb fa ff ff    	je     40387a <main+0x11aa>
  403daf:	48 6b c0 28          	imul   rax,rax,0x28
  403db3:	4c 8d a4 24 20 02 00 00 	lea    r12,[rsp+0x220]
  403dbb:	bf 4a f4 40 00       	mov    edi,0x40f44a
  403dc0:	4d 8d 74 24 10       	lea    r14,[r12+0x10]
  403dc5:	4c 89 b4 24 20 02 00 00 	mov    QWORD PTR [rsp+0x220],r14
  403dcd:	48 8b 80 68 33 41 00 	mov    rax,QWORD PTR [rax+0x413368]
  403dd4:	48 89 44 24 10       	mov    QWORD PTR [rsp+0x10],rax
  403dd9:	e8 f2 24 00 00       	call   4062d0 <std::char_traits<char>::length(char const*)>
  403dde:	49 89 c5             	mov    r13,rax
  403de1:	48 83 f8 0f          	cmp    rax,0xf
  403de5:	0f 87 44 0b 00 00    	ja     40492f <main+0x225f>
  403deb:	48 83 f8 01          	cmp    rax,0x1
  403def:	0f 85 7f 0d 00 00    	jne    404b74 <main+0x24a4>
  403df5:	c6 84 24 30 02 00 00 3a 	mov    BYTE PTR [rsp+0x230],0x3a
  403dfd:	48 8b 84 24 20 02 00 00 	mov    rax,QWORD PTR [rsp+0x220]
  403e05:	4c 89 ac 24 28 02 00 00 	mov    QWORD PTR [rsp+0x228],r13
  403e0d:	bf f1 f4 40 00       	mov    edi,0x40f4f1
  403e12:	4c 8d bc 24 f0 02 00 00 	lea    r15,[rsp+0x2f0]
  403e1a:	4d 8d 77 10          	lea    r14,[r15+0x10]
  403e1e:	42 c6 04 28 00       	mov    BYTE PTR [rax+r13*1],0x0
  403e23:	48 8b 5b 10          	mov    rbx,QWORD PTR [rbx+0x10]
  403e27:	4c 89 b4 24 f0 02 00 00 	mov    QWORD PTR [rsp+0x2f0],r14
  403e2f:	e8 9c 24 00 00       	call   4062d0 <std::char_traits<char>::length(char const*)>
  403e34:	49 89 c5             	mov    r13,rax
  403e37:	48 83 f8 0f          	cmp    rax,0xf
  403e3b:	0f 87 0f 0d 00 00    	ja     404b50 <main+0x2480>
  403e41:	48 83 f8 01          	cmp    rax,0x1
  403e45:	0f 85 e4 0c 00 00    	jne    404b2f <main+0x245f>
  403e4b:	c6 84 24 00 03 00 00 46 	mov    BYTE PTR [rsp+0x300],0x46
  403e53:	48 8b 84 24 f0 02 00 00 	mov    rax,QWORD PTR [rsp+0x2f0]
  403e5b:	4c 89 ac 24 f8 02 00 00 	mov    QWORD PTR [rsp+0x2f8],r13
  403e63:	48 89 da             	mov    rdx,rbx
  403e66:	4c 89 fe             	mov    rsi,r15
  403e69:	4c 8d b4 24 50 02 00 00 	lea    r14,[rsp+0x250]
  403e71:	42 c6 04 28 00       	mov    BYTE PTR [rax+r13*1],0x0
  403e76:	4c 89 f7             	mov    rdi,r14
  403e79:	e8 f2 54 00 00       	call   409370 <std::__cxx11::basic_string<char, std::char_traits<char>, std::allocator<char> > std::operator+<char, std::char_traits<char>, std::allocator<char> >(std::__cxx11::basic_string<char, std::char_traits<char>, std::allocator<char> >&&, char const*)>
  403e7e:	4c 8d ac 24 f0 01 00 00 	lea    r13,[rsp+0x1f0]
  403e86:	4c 89 e2             	mov    rdx,r12
  403e89:	4c 89 f6             	mov    rsi,r14
  403e8c:	4c 89 ef             	mov    rdi,r13
  403e8f:	e8 ec 55 00 00       	call   409480 <std::__cxx11::basic_string<char, std::char_traits<char>, std::allocator<char> > std::operator+<char, std::char_traits<char>, std::allocator<char> >(std::__cxx11::basic_string<char, std::char_traits<char>, std::allocator<char> >&&, std::__cxx11::basic_string<char, std::char_traits<char>, std::allocator<char> >&&)>
  403e94:	48 8d 9c 24 c0 01 00 00 	lea    rbx,[rsp+0x1c0]
  403e9c:	48 8b 54 24 10       	mov    rdx,QWORD PTR [rsp+0x10]
  403ea1:	4c 89 ee             	mov    rsi,r13
  403ea4:	48 89 df             	mov    rdi,rbx
  403ea7:	48 89 5c 24 08       	mov    QWORD PTR [rsp+0x8],rbx
  403eac:	e8 bf 54 00 00       	call   409370 <std::__cxx11::basic_string<char, std::char_traits<char>, std::allocator<char> > std::operator+<char, std::char_traits<char>, std::allocator<char> >(std::__cxx11::basic_string<char, std::char_traits<char>, std::allocator<char> >&&, char const*)>
  403eb1:	48 89 df             	mov    rdi,rbx
  403eb4:	e8 47 19 00 00       	call   405800 <exit_error(std::__cxx11::basic_string<char, std::char_traits<char>, std::allocator<char> >)>
  403eb9:	48 85 c0             	test   rax,rax
  403ebc:	0f 85 3e 0d 00 00    	jne    404c00 <main+0x2530>
  403ec2:	48 8b 84 24 f0 02 00 00 	mov    rax,QWORD PTR [rsp+0x2f0]
  403eca:	48 89 9c 24 f8 02 00 00 	mov    QWORD PTR [rsp+0x2f8],rbx
  403ed2:	4c 89 f2             	mov    rdx,r14
  403ed5:	4c 89 fe             	mov    rsi,r15
  403ed8:	4c 8d a4 24 20 02 00 00 	lea    r12,[rsp+0x220]
  403ee0:	c6 04 18 00          	mov    BYTE PTR [rax+rbx*1],0x0
  403ee4:	4c 89 e7             	mov    rdi,r12
  403ee7:	e8 94 55 00 00       	call   409480 <std::__cxx11::basic_string<char, std::char_traits<char>, std::allocator<char> > std::operator+<char, std::char_traits<char>, std::allocator<char> >(std::__cxx11::basic_string<char, std::char_traits<char>, std::allocator<char> >&&, std::__cxx11::basic_string<char, std::char_traits<char>, std::allocator<char> >&&)>
  403eec:	bf d4 f4 40 00       	mov    edi,0x40f4d4
  403ef1:	e8 da 23 00 00       	call   4062d0 <std::char_traits<char>::length(char const*)>
  403ef6:	48 b9 ff ff ff ff ff ff ff 7f 	movabs rcx,0x7fffffffffffffff
  403f00:	48 2b 8c 24 28 02 00 00 	sub    rcx,QWORD PTR [rsp+0x228]
  403f08:	48 39 c8             	cmp    rax,rcx
  403f0b:	0f 87 31 0d 00 00    	ja     404c42 <main+0x2572>
  403f11:	48 89 c2             	mov    rdx,rax
  403f14:	be d4 f4 40 00       	mov    esi,0x40f4d4
  403f19:	4c 89 e7             	mov    rdi,r12
  403f1c:	e8 ff 50 00 00       	call   409020 <std::__cxx11::basic_string<char, std::char_traits<char>, std::allocator<char> >::_M_append(char const*, unsigned long)>
  403f21:	4c 8d ac 24 f0 01 00 00 	lea    r13,[rsp+0x1f0]
  403f29:	49 8d 55 10          	lea    rdx,[r13+0x10]
  403f2d:	48 89 94 24 f0 01 00 00 	mov    QWORD PTR [rsp+0x1f0],rdx
  403f35:	48 8b 08             	mov    rcx,QWORD PTR [rax]
  403f38:	48 8d 50 10          	lea    rdx,[rax+0x10]
  403f3c:	48 39 d1             	cmp    rcx,rdx
  403f3f:	0f 84 4f 03 00 00    	je     404294 <main+0x1bc4>
  403f45:	48 89 8c 24 f0 01 00 00 	mov    QWORD PTR [rsp+0x1f0],rcx
  403f4d:	48 8b 48 10          	mov    rcx,QWORD PTR [rax+0x10]
  403f51:	48 89 8c 24 00 02 00 00 	mov    QWORD PTR [rsp+0x200],rcx
  403f59:	48 8b 48 08          	mov    rcx,QWORD PTR [rax+0x8]
  403f5d:	4c 89 ee             	mov    rsi,r13
  403f60:	48 89 8c 24 f8 01 00 00 	mov    QWORD PTR [rsp+0x1f8],rcx
  403f68:	48 89 10             	mov    QWORD PTR [rax],rdx
  403f6b:	48 89 ea             	mov    rdx,rbp
  403f6e:	48 c7 40 08 00 00 00 00 	mov    QWORD PTR [rax+0x8],0x0
  403f76:	c6 40 10 00          	mov    BYTE PTR [rax+0x10],0x0
  403f7a:	48 8d 84 24 c0 01 00 00 	lea    rax,[rsp+0x1c0]
  403f82:	48 89 c7             	mov    rdi,rax
  403f85:	48 89 44 24 08       	mov    QWORD PTR [rsp+0x8],rax
  403f8a:	e8 e1 53 00 00       	call   409370 <std::__cxx11::basic_string<char, std::char_traits<char>, std::allocator<char> > std::operator+<char, std::char_traits<char>, std::allocator<char> >(std::__cxx11::basic_string<char, std::char_traits<char>, std::allocator<char> >&&, char const*)>
  403f8f:	48 8b 94 24 c8 01 00 00 	mov    rdx,QWORD PTR [rsp+0x1c8]
  403f97:	48 8b b4 24 c0 01 00 00 	mov    rsi,QWORD PTR [rsp+0x1c0]
  403f9f:	bf 80 37 41 00       	mov    edi,0x413780
  403fa4:	e8 17 e2 ff ff       	call   4021c0 <std::basic_ostream<char, std::char_traits<char> >& std::__ostream_insert<char, std::char_traits<char> >(std::basic_ostream<char, std::char_traits<char> >&, char const*, long)@plt>
  403fa9:	48 89 c7             	mov    rdi,rax
  403fac:	e8 2f e1 ff ff       	call   4020e0 <std::basic_ostream<char, std::char_traits<char> >& std::endl<char, std::char_traits<char> >(std::basic_ostream<char, std::char_traits<char> >&)@plt>
  403fb1:	bf 01 00 00 00       	mov    edi,0x1
  403fb6:	e8 45 e2 ff ff       	call   402200 <exit@plt>
  403fbb:	48 85 c0             	test   rax,rax
  403fbe:	0f 88 74 0c 00 00    	js     404c38 <main+0x2568>
  403fc4:	48 8d 78 01          	lea    rdi,[rax+0x1]
  403fc8:	e8 c3 e1 ff ff       	call   402190 <operator new(unsigned long)@plt>
  403fcd:	48 89 84 24 80 02 00 00 	mov    QWORD PTR [rsp+0x280],rax
  403fd5:	48 89 9c 24 90 02 00 00 	mov    QWORD PTR [rsp+0x290],rbx
  403fdd:	48 89 da             	mov    rdx,rbx
  403fe0:	be ba f4 40 00       	mov    esi,0x40f4ba
  403fe5:	48 89 c7             	mov    rdi,rax
  403fe8:	e8 63 e1 ff ff       	call   402150 <memcpy@plt>
  403fed:	e9 61 fc ff ff       	jmp    403c53 <main+0x1583>
  403ff2:	31 c9                	xor    ecx,ecx
  403ff4:	e9 98 f9 ff ff       	jmp    403991 <main+0x12c1>
  403ff9:	f2 0f 10 84 24 d0 00 00 00 	movsd  xmm0,QWORD PTR [rsp+0xd0]
  404002:	48 8b 74 24 40       	mov    rsi,QWORD PTR [rsp+0x40]
  404007:	48 8d bb 90 01 00 00 	lea    rdi,[rbx+0x190]
  40400e:	48 8d ac 24 d0 00 00 00 	lea    rbp,[rsp+0xd0]
  404016:	4c 8d bc 24 f0 02 00 00 	lea    r15,[rsp+0x2f0]
  40401e:	f2 0f 11 83 88 01 00 00 	movsd  QWORD PTR [rbx+0x188],xmm0
  404026:	e8 05 4a 00 00       	call   408a30 <std::vector<unsigned long long, std::allocator<unsigned long long> >::operator=(std::vector<unsigned long long, std::allocator<unsigned long long> > const&)>
  40402b:	83 bb 60 01 00 00 00 	cmp    DWORD PTR [rbx+0x160],0x0
  404032:	0f 85 4c ed ff ff    	jne    402d84 <main+0x6b4>
  404038:	e9 62 ed ff ff       	jmp    402d9f <main+0x6cf>
  40403d:	f2 0f 10 84 24 f0 00 00 00 	movsd  xmm0,QWORD PTR [rsp+0xf0]
  404046:	4c 8d a4 24 f0 00 00 00 	lea    r12,[rsp+0xf0]
  40404e:	48 8d bb c0 00 00 00 	lea    rdi,[rbx+0xc0]
  404055:	49 8d 74 24 08       	lea    rsi,[r12+0x8]
  40405a:	f2 0f 11 83 b8 00 00 00 	movsd  QWORD PTR [rbx+0xb8],xmm0
  404062:	e8 c9 49 00 00       	call   408a30 <std::vector<unsigned long long, std::allocator<unsigned long long> >::operator=(std::vector<unsigned long long, std::allocator<unsigned long long> > const&)>
  404067:	83 bb 90 00 00 00 00 	cmp    DWORD PTR [rbx+0x90],0x0
  40406e:	0f 85 4c f0 ff ff    	jne    4030c0 <main+0x9f0>
  404074:	e9 62 f0 ff ff       	jmp    4030db <main+0xa0b>
  404079:	80 bc 24 b4 01 00 00 00 	cmp    BYTE PTR [rsp+0x1b4],0x0
  404081:	0f 84 fe 0a 00 00    	je     404b85 <main+0x24b5>
  404087:	31 db                	xor    ebx,ebx
  404089:	48 8b 84 24 90 01 00 00 	mov    rax,QWORD PTR [rsp+0x190]
  404091:	48 39 84 24 98 01 00 00 	cmp    QWORD PTR [rsp+0x198],rax
  404099:	0f 84 ac 00 00 00    	je     40414b <main+0x1a7b>
  40409f:	48 8b 44 24 50       	mov    rax,QWORD PTR [rsp+0x50]
  4040a4:	0f b6 b4 24 b5 01 00 00 	movzx  esi,BYTE PTR [rsp+0x1b5]
  4040ac:	48 8b 3c d8          	mov    rdi,QWORD PTR [rax+rbx*8]
  4040b0:	e8 db 27 00 00       	call   406890 <benchmarker::print(bool) const>
  4040b5:	48 8b 44 24 50       	mov    rax,QWORD PTR [rsp+0x50]
  4040ba:	48 8b 2c d8          	mov    rbp,QWORD PTR [rax+rbx*8]
  4040be:	48 85 ed             	test   rbp,rbp
  4040c1:	74 67                	je     40412a <main+0x1a5a>
  4040c3:	48 8b 7d 20          	mov    rdi,QWORD PTR [rbp+0x20]
  4040c7:	48 85 ff             	test   rdi,rdi
  4040ca:	74 0a                	je     4040d6 <main+0x1a06>
  4040cc:	be 78 00 00 00       	mov    esi,0x78
  4040d1:	e8 ca e0 ff ff       	call   4021a0 <operator delete(void*, unsigned long)@plt>
  4040d6:	48 8d bd c8 01 00 00 	lea    rdi,[rbp+0x1c8]
  4040dd:	e8 6e 27 00 00       	call   406850 <event_aggregate::~event_aggregate()>
  4040e2:	48 8d bd 60 01 00 00 	lea    rdi,[rbp+0x160]
  4040e9:	e8 62 27 00 00       	call   406850 <event_aggregate::~event_aggregate()>
  4040ee:	48 8d bd f8 00 00 00 	lea    rdi,[rbp+0xf8]
  4040f5:	e8 56 27 00 00       	call   406850 <event_aggregate::~event_aggregate()>
  4040fa:	48 8d bd 90 00 00 00 	lea    rdi,[rbp+0x90]
  404101:	e8 4a 27 00 00       	call   406850 <event_aggregate::~event_aggregate()>
  404106:	48 8d 7d 28          	lea    rdi,[rbp+0x28]
  40410a:	e8 41 27 00 00       	call   406850 <event_aggregate::~event_aggregate()>
  40410f:	48 8b 7d 08          	mov    rdi,QWORD PTR [rbp+0x8]
  404113:	48 85 ff             	test   rdi,rdi
  404116:	74 05                	je     40411d <main+0x1a4d>
  404118:	e8 d3 e0 ff ff       	call   4021f0 <free@plt>
  40411d:	be 30 02 00 00       	mov    esi,0x230
  404122:	48 89 ef             	mov    rdi,rbp
  404125:	e8 76 e0 ff ff       	call   4021a0 <operator delete(void*, unsigned long)@plt>
  40412a:	48 8b 84 24 98 01 00 00 	mov    rax,QWORD PTR [rsp+0x198]
  404132:	48 2b 84 24 90 01 00 00 	sub    rax,QWORD PTR [rsp+0x190]
  40413a:	48 83 c3 01          	add    rbx,0x1
  40413e:	48 c1 f8 03          	sar    rax,0x3
  404142:	48 39 c3             	cmp    rbx,rax
  404145:	0f 82 54 ff ff ff    	jb     40409f <main+0x19cf>
  40414b:	48 8b 7c 24 50       	mov    rdi,QWORD PTR [rsp+0x50]
  404150:	48 85 ff             	test   rdi,rdi
  404153:	74 05                	je     40415a <main+0x1a8a>
  404155:	e8 16 e0 ff ff       	call   402170 <operator delete(void*)@plt>
  40415a:	48 8d bc 24 60 03 00 00 	lea    rdi,[rsp+0x360]
  404162:	e8 59 48 00 00       	call   4089c0 <event_collector::~event_collector()>
  404167:	48 8b bc 24 90 01 00 00 	mov    rdi,QWORD PTR [rsp+0x190]
  40416f:	48 85 ff             	test   rdi,rdi
  404172:	74 05                	je     404179 <main+0x1aa9>
  404174:	e8 f7 df ff ff       	call   402170 <operator delete(void*)@plt>
  404179:	48 81 c4 48 04 00 00 	add    rsp,0x448
  404180:	31 c0                	xor    eax,eax
  404182:	5b                   	pop    rbx
  404183:	5d                   	pop    rbp
  404184:	41 5c                	pop    r12
  404186:	41 5d                	pop    r13
  404188:	41 5e                	pop    r14
  40418a:	41 5f                	pop    r15
  40418c:	c3                   	ret    
  40418d:	f2 0f 10 84 24 b0 00 00 00 	movsd  xmm0,QWORD PTR [rsp+0xb0]
  404196:	48 8b 74 24 20       	mov    rsi,QWORD PTR [rsp+0x20]
  40419b:	48 8d 7b 58          	lea    rdi,[rbx+0x58]
  40419f:	f2 0f 11 43 50       	movsd  QWORD PTR [rbx+0x50],xmm0
  4041a4:	e8 87 48 00 00       	call   408a30 <std::vector<unsigned long long, std::allocator<unsigned long long> >::operator=(std::vector<unsigned long long, std::allocator<unsigned long long> > const&)>
  4041a9:	83 7b 28 00          	cmp    DWORD PTR [rbx+0x28],0x0
  4041ad:	0f 85 70 f8 ff ff    	jne    403a23 <main+0x1353>
  4041b3:	e9 7b f8 ff ff       	jmp    403a33 <main+0x1363>
  4041b8:	48 85 c0             	test   rax,rax
  4041bb:	0f 88 63 0a 00 00    	js     404c24 <main+0x2554>
  4041c1:	48 8d 78 01          	lea    rdi,[rax+0x1]
  4041c5:	e8 c6 df ff ff       	call   402190 <operator new(unsigned long)@plt>
  4041ca:	48 89 84 24 f0 02 00 00 	mov    QWORD PTR [rsp+0x2f0],rax
  4041d2:	48 89 9c 24 00 03 00 00 	mov    QWORD PTR [rsp+0x300],rbx
  4041da:	48 89 da             	mov    rdx,rbx
  4041dd:	be ba f4 40 00       	mov    esi,0x40f4ba
  4041e2:	48 89 c7             	mov    rdi,rax
  4041e5:	e8 66 df ff ff       	call   402150 <memcpy@plt>
  4041ea:	e9 d3 fc ff ff       	jmp    403ec2 <main+0x17f2>
  4041ef:	48 89 e9             	mov    rcx,rbp
  4041f2:	48 8b 3d 67 f5 00 00 	mov    rdi,QWORD PTR [rip+0xf567]        # 413760 <simdjson::active_implementation>
  4041f9:	48 8b 07             	mov    rax,QWORD PTR [rdi]
  4041fc:	48 8b 73 08          	mov    rsi,QWORD PTR [rbx+0x8]
  404200:	48 8b 13             	mov    rdx,QWORD PTR [rbx]
  404203:	ff 50 30             	call   QWORD PTR [rax+0x30]
  404206:	85 c0                	test   eax,eax
  404208:	0f 85 ef 08 00 00    	jne    404afd <main+0x242d>
  40420e:	bf 78 00 00 00       	mov    edi,0x78
  404213:	e8 78 df ff ff       	call   402190 <operator new(unsigned long)@plt>
  404218:	49 89 c4             	mov    r12,rax
  40421b:	48 89 ea             	mov    rdx,rbp
  40421e:	48 89 de             	mov    rsi,rbx
  404221:	48 89 c7             	mov    rdi,rax
  404224:	e8 37 22 00 00       	call   406460 <json_stats::json_stats(simdjson::padded_string const&, simdjson::dom::parser const&)>
  404229:	4c 89 63 20          	mov    QWORD PTR [rbx+0x20],r12
  40422d:	e9 7a f8 ff ff       	jmp    403aac <main+0x13dc>
  404232:	48 63 44 24 18       	movsxd rax,DWORD PTR [rsp+0x18]
  404237:	4c 8d bc 24 f0 02 00 00 	lea    r15,[rsp+0x2f0]
  40423f:	bf f1 f4 40 00       	mov    edi,0x40f4f1
  404244:	4c 8b 63 10          	mov    r12,QWORD PTR [rbx+0x10]
  404248:	4d 8d 6f 10          	lea    r13,[r15+0x10]
  40424c:	48 6b c0 28          	imul   rax,rax,0x28
  404250:	4c 89 ac 24 f0 02 00 00 	mov    QWORD PTR [rsp+0x2f0],r13
  404258:	48 8b 80 68 33 41 00 	mov    rax,QWORD PTR [rax+0x413368]
  40425f:	48 89 44 24 08       	mov    QWORD PTR [rsp+0x8],rax
  404264:	e8 67 20 00 00       	call   4062d0 <std::char_traits<char>::length(char const*)>
  404269:	48 89 c3             	mov    rbx,rax
  40426c:	48 83 f8 0f          	cmp    rax,0xf
  404270:	0f 87 50 08 00 00    	ja     404ac6 <main+0x23f6>
  404276:	48 83 f8 01          	cmp    rax,0x1
  40427a:	0f 85 94 05 00 00    	jne    404814 <main+0x2144>
  404280:	c6 84 24 00 03 00 00 46 	mov    BYTE PTR [rsp+0x300],0x46
  404288:	e9 90 05 00 00       	jmp    40481d <main+0x214d>
  40428d:	31 c9                	xor    ecx,ecx
  40428f:	e9 69 f5 ff ff       	jmp    4037fd <main+0x112d>
  404294:	f3 0f 6f 68 10       	movdqu xmm5,XMMWORD PTR [rax+0x10]
  404299:	0f 29 ac 24 00 02 00 00 	movaps XMMWORD PTR [rsp+0x200],xmm5
  4042a1:	e9 b3 fc ff ff       	jmp    403f59 <main+0x1889>
  4042a6:	f3 0f 6f 70 10       	movdqu xmm6,XMMWORD PTR [rax+0x10]
  4042ab:	0f 29 b4 24 00 02 00 00 	movaps XMMWORD PTR [rsp+0x200],xmm6
  4042b3:	e9 32 fa ff ff       	jmp    403cea <main+0x161a>
  4042b8:	48 85 c0             	test   rax,rax
  4042bb:	0f 84 92 f9 ff ff    	je     403c53 <main+0x1583>
  4042c1:	4c 89 e0             	mov    rax,r12
  4042c4:	e9 14 fd ff ff       	jmp    403fdd <main+0x190d>
  4042c9:	31 c9                	xor    ecx,ecx
  4042cb:	e9 42 ea ff ff       	jmp    402d12 <main+0x642>
  4042d0:	31 c9                	xor    ecx,ecx
  4042d2:	e9 75 ed ff ff       	jmp    40304c <main+0x97c>
  4042d7:	4c 8b 63 18          	mov    r12,QWORD PTR [rbx+0x18]
  4042db:	e8 70 df ff ff       	call   402250 <std::chrono::_V2::steady_clock::now()@plt>
  4042e0:	4d 8d 6c 24 08       	lea    r13,[r12+0x8]
  4042e5:	49 8d 7c 24 28       	lea    rdi,[r12+0x28]
  4042ea:	48 89 c5             	mov    rbp,rax
  4042ed:	4c 89 ee             	mov    rsi,r13
  4042f0:	e8 7b 62 00 00       	call   40a570 <LinuxEvents<0>::end(std::vector<unsigned long long, std::allocator<unsigned long long> >&)>
  4042f5:	49 2b 6c 24 20       	sub    rbp,QWORD PTR [r12+0x20]
  4042fa:	66 0f ef c0          	pxor   xmm0,xmm0
  4042fe:	4c 89 ee             	mov    rsi,r13
  404301:	f2 48 0f 2a c5       	cvtsi2sd xmm0,rbp
  404306:	48 8b 6c 24 08       	mov    rbp,QWORD PTR [rsp+0x8]
  40430b:	f2 0f 5e 44 24 10    	divsd  xmm0,QWORD PTR [rsp+0x10]
  404311:	f2 41 0f 11 04 24    	movsd  QWORD PTR [r12],xmm0
  404317:	f2 0f 11 84 24 c0 01 00 00 	movsd  QWORD PTR [rsp+0x1c0],xmm0
  404320:	48 8d 7d 08          	lea    rdi,[rbp+0x8]
  404324:	e8 07 47 00 00       	call   408a30 <std::vector<unsigned long long, std::allocator<unsigned long long> >::operator=(std::vector<unsigned long long, std::allocator<unsigned long long> > const&)>
  404329:	48 8d bb f8 00 00 00 	lea    rdi,[rbx+0xf8]
  404330:	48 89 ee             	mov    rsi,rbp
  404333:	e8 38 48 00 00       	call   408b70 <event_aggregate::operator<<(event_count const&)>
  404338:	48 8b 94 24 d8 00 00 00 	mov    rdx,QWORD PTR [rsp+0xd8]
  404340:	48 8b 84 24 f8 00 00 00 	mov    rax,QWORD PTR [rsp+0xf8]
  404348:	bf 28 00 00 00       	mov    edi,0x28
  40434d:	f3 0f 6f 40 10       	movdqu xmm0,XMMWORD PTR [rax+0x10]
  404352:	f3 0f 6f 08          	movdqu xmm1,XMMWORD PTR [rax]
  404356:	f3 0f 6f 7a 10       	movdqu xmm7,XMMWORD PTR [rdx+0x10]
  40435b:	f3 0f 6f 1a          	movdqu xmm3,XMMWORD PTR [rdx]
  40435f:	66 0f d4 c7          	paddq  xmm0,xmm7
  404363:	66 0f d4 cb          	paddq  xmm1,xmm3
  404367:	0f 29 8c 24 20 02 00 00 	movaps XMMWORD PTR [rsp+0x220],xmm1
  40436f:	0f 29 84 24 30 02 00 00 	movaps XMMWORD PTR [rsp+0x230],xmm0
  404377:	48 8b 40 20          	mov    rax,QWORD PTR [rax+0x20]
  40437b:	48 03 42 20          	add    rax,QWORD PTR [rdx+0x20]
  40437f:	48 89 84 24 40 02 00 00 	mov    QWORD PTR [rsp+0x240],rax
  404387:	e8 04 de ff ff       	call   402190 <operator new(unsigned long)@plt>
  40438c:	4c 8d a4 24 20 02 00 00 	lea    r12,[rsp+0x220]
  404394:	48 89 c7             	mov    rdi,rax
  404397:	48 89 c5             	mov    rbp,rax
  40439a:	b9 0a 00 00 00       	mov    ecx,0xa
  40439f:	f2 0f 10 84 24 d0 00 00 00 	movsd  xmm0,QWORD PTR [rsp+0xd0]
  4043a8:	4c 89 e6             	mov    rsi,r12
  4043ab:	f2 0f 58 84 24 f0 00 00 00 	addsd  xmm0,QWORD PTR [rsp+0xf0]
  4043b4:	48 c7 84 24 98 02 00 00 00 00 00 00 	mov    QWORD PTR [rsp+0x298],0x0
  4043c0:	f3 a5                	rep movs DWORD PTR es:[rdi],DWORD PTR ds:[rsi]
  4043c2:	bf 28 00 00 00       	mov    edi,0x28
  4043c7:	f2 0f 11 84 24 80 02 00 00 	movsd  QWORD PTR [rsp+0x280],xmm0
  4043d0:	66 0f ef c0          	pxor   xmm0,xmm0
  4043d4:	0f 11 84 24 88 02 00 00 	movups XMMWORD PTR [rsp+0x288],xmm0
  4043dc:	e8 af dd ff ff       	call   402190 <operator new(unsigned long)@plt>
  4043e1:	48 89 c7             	mov    rdi,rax
  4043e4:	b9 0a 00 00 00       	mov    ecx,0xa
  4043e9:	48 8d 50 28          	lea    rdx,[rax+0x28]
  4043ed:	48 89 ee             	mov    rsi,rbp
  4043f0:	f3 a5                	rep movs DWORD PTR es:[rdi],DWORD PTR ds:[rsi]
  4043f2:	48 89 ef             	mov    rdi,rbp
  4043f5:	48 89 84 24 88 02 00 00 	mov    QWORD PTR [rsp+0x288],rax
  4043fd:	48 89 94 24 98 02 00 00 	mov    QWORD PTR [rsp+0x298],rdx
  404405:	48 89 94 24 90 02 00 00 	mov    QWORD PTR [rsp+0x290],rdx
  40440d:	e8 5e dd ff ff       	call   402170 <operator delete(void*)@plt>
  404412:	48 8b 94 24 88 02 00 00 	mov    rdx,QWORD PTR [rsp+0x288]
  40441a:	bf 28 00 00 00       	mov    edi,0x28
  40441f:	48 8b 84 24 c8 01 00 00 	mov    rax,QWORD PTR [rsp+0x1c8]
  404427:	f3 0f 6f 62 10       	movdqu xmm4,XMMWORD PTR [rdx+0x10]
  40442c:	f3 0f 6f 40 10       	movdqu xmm0,XMMWORD PTR [rax+0x10]
  404431:	f3 0f 6f 08          	movdqu xmm1,XMMWORD PTR [rax]
  404435:	f3 0f 6f 12          	movdqu xmm2,XMMWORD PTR [rdx]
  404439:	66 0f d4 c4          	paddq  xmm0,xmm4
  40443d:	66 0f d4 ca          	paddq  xmm1,xmm2
  404441:	0f 29 84 24 60 02 00 00 	movaps XMMWORD PTR [rsp+0x260],xmm0
  404449:	0f 29 8c 24 50 02 00 00 	movaps XMMWORD PTR [rsp+0x250],xmm1
  404451:	48 8b 40 20          	mov    rax,QWORD PTR [rax+0x20]
  404455:	48 03 42 20          	add    rax,QWORD PTR [rdx+0x20]
  404459:	48 89 84 24 70 02 00 00 	mov    QWORD PTR [rsp+0x270],rax
  404461:	e8 2a dd ff ff       	call   402190 <operator new(unsigned long)@plt>
  404466:	48 8d b4 24 50 02 00 00 	lea    rsi,[rsp+0x250]
  40446e:	48 89 c7             	mov    rdi,rax
  404471:	48 89 c5             	mov    rbp,rax
  404474:	b9 0a 00 00 00       	mov    ecx,0xa
  404479:	f3 a5                	rep movs DWORD PTR es:[rdi],DWORD PTR ds:[rsi]
  40447b:	f2 0f 10 84 24 80 02 00 00 	movsd  xmm0,QWORD PTR [rsp+0x280]
  404484:	f2 0f 58 84 24 c0 01 00 00 	addsd  xmm0,QWORD PTR [rsp+0x1c0]
  40448d:	bf 28 00 00 00       	mov    edi,0x28
  404492:	48 c7 84 24 38 02 00 00 00 00 00 00 	mov    QWORD PTR [rsp+0x238],0x0
  40449e:	f2 0f 11 84 24 20 02 00 00 	movsd  QWORD PTR [rsp+0x220],xmm0
  4044a7:	66 0f ef c0          	pxor   xmm0,xmm0
  4044ab:	0f 11 84 24 28 02 00 00 	movups XMMWORD PTR [rsp+0x228],xmm0
  4044b3:	e8 d8 dc ff ff       	call   402190 <operator new(unsigned long)@plt>
  4044b8:	48 89 c7             	mov    rdi,rax
  4044bb:	b9 0a 00 00 00       	mov    ecx,0xa
  4044c0:	48 8d 50 28          	lea    rdx,[rax+0x28]
  4044c4:	48 89 ee             	mov    rsi,rbp
  4044c7:	f3 a5                	rep movs DWORD PTR es:[rdi],DWORD PTR ds:[rsi]
  4044c9:	48 89 ef             	mov    rdi,rbp
  4044cc:	48 89 84 24 28 02 00 00 	mov    QWORD PTR [rsp+0x228],rax
  4044d4:	48 89 94 24 38 02 00 00 	mov    QWORD PTR [rsp+0x238],rdx
  4044dc:	48 89 94 24 30 02 00 00 	mov    QWORD PTR [rsp+0x230],rdx
  4044e4:	e8 87 dc ff ff       	call   402170 <operator delete(void*)@plt>
  4044e9:	83 7b 28 00          	cmp    DWORD PTR [rbx+0x28],0x0
  4044ed:	0f 84 bf 02 00 00    	je     4047b2 <main+0x20e2>
  4044f3:	f2 0f 10 43 50       	movsd  xmm0,QWORD PTR [rbx+0x50]
  4044f8:	66 0f 2f 84 24 20 02 00 00 	comisd xmm0,QWORD PTR [rsp+0x220]
  404501:	0f 87 ab 02 00 00    	ja     4047b2 <main+0x20e2>
  404507:	f2 0f 10 84 24 20 02 00 00 	movsd  xmm0,QWORD PTR [rsp+0x220]
  404510:	66 0f 2f 43 70       	comisd xmm0,QWORD PTR [rbx+0x70]
  404515:	76 1c                	jbe    404533 <main+0x1e63>
  404517:	f2 0f 10 84 24 20 02 00 00 	movsd  xmm0,QWORD PTR [rsp+0x220]
  404520:	49 8d 74 24 08       	lea    rsi,[r12+0x8]
  404525:	48 8d 7b 78          	lea    rdi,[rbx+0x78]
  404529:	f2 0f 11 43 70       	movsd  QWORD PTR [rbx+0x70],xmm0
  40452e:	e8 fd 44 00 00       	call   408a30 <std::vector<unsigned long long, std::allocator<unsigned long long> >::operator=(std::vector<unsigned long long, std::allocator<unsigned long long> > const&)>
  404533:	83 43 28 01          	add    DWORD PTR [rbx+0x28],0x1
  404537:	48 8d 73 30          	lea    rsi,[rbx+0x30]
  40453b:	4c 89 e2             	mov    rdx,r12
  40453e:	48 8d bc 24 70 01 00 00 	lea    rdi,[rsp+0x170]
  404546:	e8 25 1e 00 00       	call   406370 <event_count::operator+(event_count const&) const>
  40454b:	f2 0f 10 84 24 70 01 00 00 	movsd  xmm0,QWORD PTR [rsp+0x170]
  404554:	48 8d 84 24 70 01 00 00 	lea    rax,[rsp+0x170]
  40455c:	48 8d 7b 38          	lea    rdi,[rbx+0x38]
  404560:	48 8d 70 08          	lea    rsi,[rax+0x8]
  404564:	f2 0f 11 43 30       	movsd  QWORD PTR [rbx+0x30],xmm0
  404569:	e8 c2 44 00 00       	call   408a30 <std::vector<unsigned long long, std::allocator<unsigned long long> >::operator=(std::vector<unsigned long long, std::allocator<unsigned long long> > const&)>
  40456e:	48 8b bc 24 78 01 00 00 	mov    rdi,QWORD PTR [rsp+0x178]
  404576:	48 85 ff             	test   rdi,rdi
  404579:	74 05                	je     404580 <main+0x1eb0>
  40457b:	e8 f0 db ff ff       	call   402170 <operator delete(void*)@plt>
  404580:	48 8b bc 24 28 02 00 00 	mov    rdi,QWORD PTR [rsp+0x228]
  404588:	48 85 ff             	test   rdi,rdi
  40458b:	74 05                	je     404592 <main+0x1ec2>
  40458d:	e8 de db ff ff       	call   402170 <operator delete(void*)@plt>
  404592:	48 8b bc 24 88 02 00 00 	mov    rdi,QWORD PTR [rsp+0x288]
  40459a:	48 85 ff             	test   rdi,rdi
  40459d:	74 05                	je     4045a4 <main+0x1ed4>
  40459f:	e8 cc db ff ff       	call   402170 <operator delete(void*)@plt>
  4045a4:	48 8b bc 24 c8 01 00 00 	mov    rdi,QWORD PTR [rsp+0x1c8]
  4045ac:	48 85 ff             	test   rdi,rdi
  4045af:	74 05                	je     4045b6 <main+0x1ee6>
  4045b1:	e8 ba db ff ff       	call   402170 <operator delete(void*)@plt>
  4045b6:	48 83 7b 20 00       	cmp    QWORD PTR [rbx+0x20],0x0
  4045bb:	0f 84 d9 04 00 00    	je     404a9a <main+0x23ca>
  4045c1:	48 8b bc 24 f8 00 00 00 	mov    rdi,QWORD PTR [rsp+0xf8]
  4045c9:	48 85 ff             	test   rdi,rdi
  4045cc:	74 05                	je     4045d3 <main+0x1f03>
  4045ce:	e8 9d db ff ff       	call   402170 <operator delete(void*)@plt>
  4045d3:	48 8b bc 24 d8 00 00 00 	mov    rdi,QWORD PTR [rsp+0xd8]
  4045db:	48 85 ff             	test   rdi,rdi
  4045de:	74 05                	je     4045e5 <main+0x1f15>
  4045e0:	e8 8b db ff ff       	call   402170 <operator delete(void*)@plt>
  4045e5:	48 8b bc 24 48 03 00 00 	mov    rdi,QWORD PTR [rsp+0x348]
  4045ed:	48 85 ff             	test   rdi,rdi
  4045f0:	74 07                	je     4045f9 <main+0x1f29>
  4045f2:	ff 94 24 40 03 00 00 	call   QWORD PTR [rsp+0x340]
  4045f9:	48 8b bc 24 20 03 00 00 	mov    rdi,QWORD PTR [rsp+0x320]
  404601:	48 85 ff             	test   rdi,rdi
  404604:	74 05                	je     40460b <main+0x1f3b>
  404606:	e8 35 dc ff ff       	call   402240 <operator delete[](void*)@plt>
  40460b:	48 8b bc 24 18 03 00 00 	mov    rdi,QWORD PTR [rsp+0x318]
  404613:	48 85 ff             	test   rdi,rdi
  404616:	74 05                	je     40461d <main+0x1f4d>
  404618:	e8 23 dc ff ff       	call   402240 <operator delete[](void*)@plt>
  40461d:	48 8b bc 24 08 03 00 00 	mov    rdi,QWORD PTR [rsp+0x308]
  404625:	48 85 ff             	test   rdi,rdi
  404628:	74 05                	je     40462f <main+0x1f5f>
  40462a:	e8 11 dc ff ff       	call   402240 <operator delete[](void*)@plt>
  40462f:	48 8b bc 24 00 03 00 00 	mov    rdi,QWORD PTR [rsp+0x300]
  404637:	48 85 ff             	test   rdi,rdi
  40463a:	74 05                	je     404641 <main+0x1f71>
  40463c:	e8 ff db ff ff       	call   402240 <operator delete[](void*)@plt>
  404641:	48 8b bc 24 f8 02 00 00 	mov    rdi,QWORD PTR [rsp+0x2f8]
  404649:	48 85 ff             	test   rdi,rdi
  40464c:	74 05                	je     404653 <main+0x1f83>
  40464e:	e8 ed db ff ff       	call   402240 <operator delete[](void*)@plt>
  404653:	48 83 44 24 28 01    	add    QWORD PTR [rsp+0x28],0x1
  404659:	e9 aa e3 ff ff       	jmp    402a08 <main+0x338>
  40465e:	48 63 44 24 30       	movsxd rax,DWORD PTR [rsp+0x30]
  404663:	48 8d ac 24 80 02 00 00 	lea    rbp,[rsp+0x280]
  40466b:	bf f1 f4 40 00       	mov    edi,0x40f4f1
  404670:	48 8b 5b 10          	mov    rbx,QWORD PTR [rbx+0x10]
  404674:	4c 8d 65 10          	lea    r12,[rbp+0x10]
  404678:	48 6b c0 28          	imul   rax,rax,0x28
  40467c:	4c 89 a4 24 80 02 00 00 	mov    QWORD PTR [rsp+0x280],r12
  404684:	48 8b 80 68 33 41 00 	mov    rax,QWORD PTR [rax+0x413368]
  40468b:	48 89 44 24 08       	mov    QWORD PTR [rsp+0x8],rax
  404690:	e8 3b 1c 00 00       	call   4062d0 <std::char_traits<char>::length(char const*)>
  404695:	49 89 c6             	mov    r14,rax
  404698:	48 83 f8 0f          	cmp    rax,0xf
  40469c:	0f 87 4e 02 00 00    	ja     4048f0 <main+0x2220>
  4046a2:	48 83 f8 01          	cmp    rax,0x1
  4046a6:	0f 85 ba 02 00 00    	jne    404966 <main+0x2296>
  4046ac:	c6 84 24 90 02 00 00 46 	mov    BYTE PTR [rsp+0x290],0x46
  4046b4:	48 8b 84 24 80 02 00 00 	mov    rax,QWORD PTR [rsp+0x280]
  4046bc:	4c 89 b4 24 88 02 00 00 	mov    QWORD PTR [rsp+0x288],r14
  4046c4:	48 89 da             	mov    rdx,rbx
  4046c7:	48 89 ee             	mov    rsi,rbp
  4046ca:	42 c6 04 30 00       	mov    BYTE PTR [rax+r14*1],0x0
  4046cf:	4c 8d b4 24 50 02 00 00 	lea    r14,[rsp+0x250]
  4046d7:	4c 89 f7             	mov    rdi,r14
  4046da:	e8 91 4c 00 00       	call   409370 <std::__cxx11::basic_string<char, std::char_traits<char>, std::allocator<char> > std::operator+<char, std::char_traits<char>, std::allocator<char> >(std::__cxx11::basic_string<char, std::char_traits<char>, std::allocator<char> >&&, char const*)>
  4046df:	bf 02 f5 40 00       	mov    edi,0x40f502
  4046e4:	e8 e7 1b 00 00       	call   4062d0 <std::char_traits<char>::length(char const*)>
  4046e9:	48 b9 ff ff ff ff ff ff ff 7f 	movabs rcx,0x7fffffffffffffff
  4046f3:	48 2b 8c 24 58 02 00 00 	sub    rcx,QWORD PTR [rsp+0x258]
  4046fb:	48 39 c8             	cmp    rax,rcx
  4046fe:	0f 87 ed 04 00 00    	ja     404bf1 <main+0x2521>
  404704:	48 89 c2             	mov    rdx,rax
  404707:	be 02 f5 40 00       	mov    esi,0x40f502
  40470c:	4c 89 f7             	mov    rdi,r14
  40470f:	e8 0c 49 00 00       	call   409020 <std::__cxx11::basic_string<char, std::char_traits<char>, std::allocator<char> >::_M_append(char const*, unsigned long)>
  404714:	4c 8d a4 24 20 02 00 00 	lea    r12,[rsp+0x220]
  40471c:	49 8d 54 24 10       	lea    rdx,[r12+0x10]
  404721:	48 89 94 24 20 02 00 00 	mov    QWORD PTR [rsp+0x220],rdx
  404729:	48 8b 08             	mov    rcx,QWORD PTR [rax]
  40472c:	48 8d 50 10          	lea    rdx,[rax+0x10]
  404730:	48 39 d1             	cmp    rcx,rdx
  404733:	0f 84 3b 02 00 00    	je     404974 <main+0x22a4>
  404739:	48 89 8c 24 20 02 00 00 	mov    QWORD PTR [rsp+0x220],rcx
  404741:	48 8b 48 10          	mov    rcx,QWORD PTR [rax+0x10]
  404745:	48 89 8c 24 30 02 00 00 	mov    QWORD PTR [rsp+0x230],rcx
  40474d:	48 8b 48 08          	mov    rcx,QWORD PTR [rax+0x8]
  404751:	4c 89 e6             	mov    rsi,r12
  404754:	4c 89 ef             	mov    rdi,r13
  404757:	48 89 8c 24 28 02 00 00 	mov    QWORD PTR [rsp+0x228],rcx
  40475f:	48 89 10             	mov    QWORD PTR [rax],rdx
  404762:	48 8b 54 24 08       	mov    rdx,QWORD PTR [rsp+0x8]
  404767:	48 c7 40 08 00 00 00 00 	mov    QWORD PTR [rax+0x8],0x0
  40476f:	c6 40 10 00          	mov    BYTE PTR [rax+0x10],0x0
  404773:	e8 f8 4b 00 00       	call   409370 <std::__cxx11::basic_string<char, std::char_traits<char>, std::allocator<char> > std::operator+<char, std::char_traits<char>, std::allocator<char> >(std::__cxx11::basic_string<char, std::char_traits<char>, std::allocator<char> >&&, char const*)>
  404778:	4c 89 ef             	mov    rdi,r13
  40477b:	e8 80 10 00 00       	call   405800 <exit_error(std::__cxx11::basic_string<char, std::char_traits<char>, std::allocator<char> >)>
  404780:	44 03 ac 24 b0 01 00 00 	add    r13d,DWORD PTR [rsp+0x1b0]
  404788:	e9 56 ec ff ff       	jmp    4033e3 <main+0xd13>
  40478d:	48 8b 74 24 18       	mov    rsi,QWORD PTR [rsp+0x18]
  404792:	48 89 df             	mov    rdi,rbx
  404795:	e8 06 6b 00 00       	call   40b2a0 <benchmarker::run_loop(unsigned long)>
  40479a:	48 83 44 24 20 01    	add    QWORD PTR [rsp+0x20],0x1
  4047a0:	e9 62 e1 ff ff       	jmp    402907 <main+0x237>
  4047a5:	44 03 b4 24 b0 01 00 00 	add    r14d,DWORD PTR [rsp+0x1b0]
  4047ad:	e9 2e e1 ff ff       	jmp    4028e0 <main+0x210>
  4047b2:	f2 0f 10 84 24 20 02 00 00 	movsd  xmm0,QWORD PTR [rsp+0x220]
  4047bb:	49 8d 74 24 08       	lea    rsi,[r12+0x8]
  4047c0:	48 8d 7b 58          	lea    rdi,[rbx+0x58]
  4047c4:	f2 0f 11 43 50       	movsd  QWORD PTR [rbx+0x50],xmm0
  4047c9:	e8 62 42 00 00       	call   408a30 <std::vector<unsigned long long, std::allocator<unsigned long long> >::operator=(std::vector<unsigned long long, std::allocator<unsigned long long> > const&)>
  4047ce:	83 7b 28 00          	cmp    DWORD PTR [rbx+0x28],0x0
  4047d2:	0f 85 2f fd ff ff    	jne    404507 <main+0x1e37>
  4047d8:	e9 3a fd ff ff       	jmp    404517 <main+0x1e47>
  4047dd:	48 85 c0             	test   rax,rax
  4047e0:	0f 88 22 04 00 00    	js     404c08 <main+0x2538>
  4047e6:	48 8d 78 01          	lea    rdi,[rax+0x1]
  4047ea:	e8 a1 d9 ff ff       	call   402190 <operator new(unsigned long)@plt>
  4047ef:	48 89 84 24 80 02 00 00 	mov    QWORD PTR [rsp+0x280],rax
  4047f7:	4c 89 a4 24 90 02 00 00 	mov    QWORD PTR [rsp+0x290],r12
  4047ff:	4c 89 e2             	mov    rdx,r12
  404802:	be f1 f4 40 00       	mov    esi,0x40f4f1
  404807:	48 89 c7             	mov    rdi,rax
  40480a:	e8 41 d9 ff ff       	call   402150 <memcpy@plt>
  40480f:	e9 f3 ea ff ff       	jmp    403307 <main+0xc37>
  404814:	48 85 c0             	test   rax,rax
  404817:	0f 85 43 04 00 00    	jne    404c60 <main+0x2590>
  40481d:	48 8b 84 24 f0 02 00 00 	mov    rax,QWORD PTR [rsp+0x2f0]
  404825:	48 89 9c 24 f8 02 00 00 	mov    QWORD PTR [rsp+0x2f8],rbx
  40482d:	4c 89 e2             	mov    rdx,r12
  404830:	4c 89 fe             	mov    rsi,r15
  404833:	4c 8d b4 24 50 02 00 00 	lea    r14,[rsp+0x250]
  40483b:	c6 04 18 00          	mov    BYTE PTR [rax+rbx*1],0x0
  40483f:	4c 89 f7             	mov    rdi,r14
  404842:	e8 29 4b 00 00       	call   409370 <std::__cxx11::basic_string<char, std::char_traits<char>, std::allocator<char> > std::operator+<char, std::char_traits<char>, std::allocator<char> >(std::__cxx11::basic_string<char, std::char_traits<char>, std::allocator<char> >&&, char const*)>
  404847:	bf 02 f5 40 00       	mov    edi,0x40f502
  40484c:	e8 7f 1a 00 00       	call   4062d0 <std::char_traits<char>::length(char const*)>
  404851:	48 b9 ff ff ff ff ff ff ff 7f 	movabs rcx,0x7fffffffffffffff
  40485b:	48 2b 8c 24 58 02 00 00 	sub    rcx,QWORD PTR [rsp+0x258]
  404863:	48 39 c8             	cmp    rax,rcx
  404866:	0f 87 ea 03 00 00    	ja     404c56 <main+0x2586>
  40486c:	48 89 c2             	mov    rdx,rax
  40486f:	be 02 f5 40 00       	mov    esi,0x40f502
  404874:	4c 89 f7             	mov    rdi,r14
  404877:	e8 a4 47 00 00       	call   409020 <std::__cxx11::basic_string<char, std::char_traits<char>, std::allocator<char> >::_M_append(char const*, unsigned long)>
  40487c:	4c 8d a4 24 20 02 00 00 	lea    r12,[rsp+0x220]
  404884:	49 8d 54 24 10       	lea    rdx,[r12+0x10]
  404889:	48 89 94 24 20 02 00 00 	mov    QWORD PTR [rsp+0x220],rdx
  404891:	48 8b 08             	mov    rcx,QWORD PTR [rax]
  404894:	48 8d 50 10          	lea    rdx,[rax+0x10]
  404898:	48 39 d1             	cmp    rcx,rdx
  40489b:	0f 84 e5 00 00 00    	je     404986 <main+0x22b6>
  4048a1:	48 89 8c 24 20 02 00 00 	mov    QWORD PTR [rsp+0x220],rcx
  4048a9:	48 8b 48 10          	mov    rcx,QWORD PTR [rax+0x10]
  4048ad:	48 89 8c 24 30 02 00 00 	mov    QWORD PTR [rsp+0x230],rcx
  4048b5:	48 8b 48 08          	mov    rcx,QWORD PTR [rax+0x8]
  4048b9:	4c 8d ac 24 f0 01 00 00 	lea    r13,[rsp+0x1f0]
  4048c1:	4c 89 e6             	mov    rsi,r12
  4048c4:	4c 89 ef             	mov    rdi,r13
  4048c7:	48 89 8c 24 28 02 00 00 	mov    QWORD PTR [rsp+0x228],rcx
  4048cf:	48 89 10             	mov    QWORD PTR [rax],rdx
  4048d2:	48 8b 54 24 08       	mov    rdx,QWORD PTR [rsp+0x8]
  4048d7:	48 c7 40 08 00 00 00 00 	mov    QWORD PTR [rax+0x8],0x0
  4048df:	c6 40 10 00          	mov    BYTE PTR [rax+0x10],0x0
  4048e3:	e8 88 4a 00 00       	call   409370 <std::__cxx11::basic_string<char, std::char_traits<char>, std::allocator<char> > std::operator+<char, std::char_traits<char>, std::allocator<char> >(std::__cxx11::basic_string<char, std::char_traits<char>, std::allocator<char> >&&, char const*)>
  4048e8:	4c 89 ef             	mov    rdi,r13
  4048eb:	e8 10 0f 00 00       	call   405800 <exit_error(std::__cxx11::basic_string<char, std::char_traits<char>, std::allocator<char> >)>
  4048f0:	48 85 c0             	test   rax,rax
  4048f3:	0f 88 19 03 00 00    	js     404c12 <main+0x2542>
  4048f9:	48 8d 78 01          	lea    rdi,[rax+0x1]
  4048fd:	4c 8d a4 24 f0 00 00 00 	lea    r12,[rsp+0xf0]
  404905:	e8 86 d8 ff ff       	call   402190 <operator new(unsigned long)@plt>
  40490a:	48 89 84 24 80 02 00 00 	mov    QWORD PTR [rsp+0x280],rax
  404912:	4c 89 b4 24 90 02 00 00 	mov    QWORD PTR [rsp+0x290],r14
  40491a:	4c 89 f2             	mov    rdx,r14
  40491d:	be f1 f4 40 00       	mov    esi,0x40f4f1
  404922:	48 89 c7             	mov    rdi,rax
  404925:	e8 26 d8 ff ff       	call   402150 <memcpy@plt>
  40492a:	e9 85 fd ff ff       	jmp    4046b4 <main+0x1fe4>
  40492f:	48 85 c0             	test   rax,rax
  404932:	0f 88 30 03 00 00    	js     404c68 <main+0x2598>
  404938:	48 8d 78 01          	lea    rdi,[rax+0x1]
  40493c:	e8 4f d8 ff ff       	call   402190 <operator new(unsigned long)@plt>
  404941:	48 89 84 24 20 02 00 00 	mov    QWORD PTR [rsp+0x220],rax
  404949:	4c 89 ac 24 30 02 00 00 	mov    QWORD PTR [rsp+0x230],r13
  404951:	4c 89 ea             	mov    rdx,r13
  404954:	be 4a f4 40 00       	mov    esi,0x40f44a
  404959:	48 89 c7             	mov    rdi,rax
  40495c:	e8 ef d7 ff ff       	call   402150 <memcpy@plt>
  404961:	e9 97 f4 ff ff       	jmp    403dfd <main+0x172d>
  404966:	48 85 c0             	test   rax,rax
  404969:	0f 84 45 fd ff ff    	je     4046b4 <main+0x1fe4>
  40496f:	4c 89 e0             	mov    rax,r12
  404972:	eb a6                	jmp    40491a <main+0x224a>
  404974:	f3 0f 6f 50 10       	movdqu xmm2,XMMWORD PTR [rax+0x10]
  404979:	0f 29 94 24 30 02 00 00 	movaps XMMWORD PTR [rsp+0x230],xmm2
  404981:	e9 c7 fd ff ff       	jmp    40474d <main+0x207d>
  404986:	f3 0f 6f 78 10       	movdqu xmm7,XMMWORD PTR [rax+0x10]
  40498b:	0f 29 bc 24 30 02 00 00 	movaps XMMWORD PTR [rsp+0x230],xmm7
  404993:	e9 1d ff ff ff       	jmp    4048b5 <main+0x21e5>
  404998:	48 6b c0 28          	imul   rax,rax,0x28
  40499c:	4c 8d a4 24 20 02 00 00 	lea    r12,[rsp+0x220]
  4049a4:	bf 4a f4 40 00       	mov    edi,0x40f44a
  4049a9:	49 8d 6c 24 10       	lea    rbp,[r12+0x10]
  4049ae:	48 89 ac 24 20 02 00 00 	mov    QWORD PTR [rsp+0x220],rbp
  4049b6:	48 8b 80 68 33 41 00 	mov    rax,QWORD PTR [rax+0x413368]
  4049bd:	48 89 44 24 10       	mov    QWORD PTR [rsp+0x10],rax
  4049c2:	e8 09 19 00 00       	call   4062d0 <std::char_traits<char>::length(char const*)>
  4049c7:	49 89 c5             	mov    r13,rax
  4049ca:	48 83 f8 0f          	cmp    rax,0xf
  4049ce:	0f 87 23 03 00 00    	ja     404cf7 <main+0x2627>
  4049d4:	48 83 f8 01          	cmp    rax,0x1
  4049d8:	0f 85 f8 02 00 00    	jne    404cd6 <main+0x2606>
  4049de:	c6 84 24 30 02 00 00 3a 	mov    BYTE PTR [rsp+0x230],0x3a
  4049e6:	48 8b 84 24 20 02 00 00 	mov    rax,QWORD PTR [rsp+0x220]
  4049ee:	4c 89 ac 24 28 02 00 00 	mov    QWORD PTR [rsp+0x228],r13
  4049f6:	bf f1 f4 40 00       	mov    edi,0x40f4f1
  4049fb:	48 8d ac 24 80 02 00 00 	lea    rbp,[rsp+0x280]
  404a03:	4c 8d 75 10          	lea    r14,[rbp+0x10]
  404a07:	42 c6 04 28 00       	mov    BYTE PTR [rax+r13*1],0x0
  404a0c:	48 8b 5b 10          	mov    rbx,QWORD PTR [rbx+0x10]
  404a10:	4c 89 b4 24 80 02 00 00 	mov    QWORD PTR [rsp+0x280],r14
  404a18:	e8 b3 18 00 00       	call   4062d0 <std::char_traits<char>::length(char const*)>
  404a1d:	49 89 c5             	mov    r13,rax
  404a20:	48 83 f8 0f          	cmp    rax,0xf
  404a24:	0f 87 8c 02 00 00    	ja     404cb6 <main+0x25e6>
  404a2a:	48 83 f8 01          	cmp    rax,0x1
  404a2e:	0f 85 61 02 00 00    	jne    404c95 <main+0x25c5>
  404a34:	c6 84 24 90 02 00 00 46 	mov    BYTE PTR [rsp+0x290],0x46
  404a3c:	48 8b 84 24 80 02 00 00 	mov    rax,QWORD PTR [rsp+0x280]
  404a44:	4c 89 ac 24 88 02 00 00 	mov    QWORD PTR [rsp+0x288],r13
  404a4c:	48 89 da             	mov    rdx,rbx
  404a4f:	48 89 ee             	mov    rsi,rbp
  404a52:	4c 8d b4 24 50 02 00 00 	lea    r14,[rsp+0x250]
  404a5a:	42 c6 04 28 00       	mov    BYTE PTR [rax+r13*1],0x0
  404a5f:	4c 89 f7             	mov    rdi,r14
  404a62:	e8 09 49 00 00       	call   409370 <std::__cxx11::basic_string<char, std::char_traits<char>, std::allocator<char> > std::operator+<char, std::char_traits<char>, std::allocator<char> >(std::__cxx11::basic_string<char, std::char_traits<char>, std::allocator<char> >&&, char const*)>
  404a67:	4c 8d ac 24 f0 01 00 00 	lea    r13,[rsp+0x1f0]
  404a6f:	4c 89 e2             	mov    rdx,r12
  404a72:	4c 89 f6             	mov    rsi,r14
  404a75:	4c 89 ef             	mov    rdi,r13
  404a78:	e8 03 4a 00 00       	call   409480 <std::__cxx11::basic_string<char, std::char_traits<char>, std::allocator<char> > std::operator+<char, std::char_traits<char>, std::allocator<char> >(std::__cxx11::basic_string<char, std::char_traits<char>, std::allocator<char> >&&, std::__cxx11::basic_string<char, std::char_traits<char>, std::allocator<char> >&&)>
  404a7d:	48 8b 5c 24 08       	mov    rbx,QWORD PTR [rsp+0x8]
  404a82:	48 8b 54 24 10       	mov    rdx,QWORD PTR [rsp+0x10]
  404a87:	4c 89 ee             	mov    rsi,r13
  404a8a:	48 89 df             	mov    rdi,rbx
  404a8d:	e8 de 48 00 00       	call   409370 <std::__cxx11::basic_string<char, std::char_traits<char>, std::allocator<char> > std::operator+<char, std::char_traits<char>, std::allocator<char> >(std::__cxx11::basic_string<char, std::char_traits<char>, std::allocator<char> >&&, char const*)>
  404a92:	48 89 df             	mov    rdi,rbx
  404a95:	e8 66 0d 00 00       	call   405800 <exit_error(std::__cxx11::basic_string<char, std::char_traits<char>, std::allocator<char> >)>
  404a9a:	bf 78 00 00 00       	mov    edi,0x78
  404a9f:	4c 8d a4 24 f0 00 00 00 	lea    r12,[rsp+0xf0]
  404aa7:	e8 e4 d6 ff ff       	call   402190 <operator new(unsigned long)@plt>
  404aac:	48 89 c5             	mov    rbp,rax
  404aaf:	4c 89 fa             	mov    rdx,r15
  404ab2:	48 89 de             	mov    rsi,rbx
  404ab5:	48 89 c7             	mov    rdi,rax
  404ab8:	e8 a3 19 00 00       	call   406460 <json_stats::json_stats(simdjson::padded_string const&, simdjson::dom::parser const&)>
  404abd:	48 89 6b 20          	mov    QWORD PTR [rbx+0x20],rbp
  404ac1:	e9 fb fa ff ff       	jmp    4045c1 <main+0x1ef1>
  404ac6:	48 85 c0             	test   rax,rax
  404ac9:	0f 88 5f 01 00 00    	js     404c2e <main+0x255e>
  404acf:	48 8d 78 01          	lea    rdi,[rax+0x1]
  404ad3:	e8 b8 d6 ff ff       	call   402190 <operator new(unsigned long)@plt>
  404ad8:	48 89 84 24 f0 02 00 00 	mov    QWORD PTR [rsp+0x2f0],rax
  404ae0:	48 89 9c 24 00 03 00 00 	mov    QWORD PTR [rsp+0x300],rbx
  404ae8:	48 89 da             	mov    rdx,rbx
  404aeb:	be f1 f4 40 00       	mov    esi,0x40f4f1
  404af0:	48 89 c7             	mov    rdi,rax
  404af3:	e8 58 d6 ff ff       	call   402150 <memcpy@plt>
  404af8:	e9 20 fd ff ff       	jmp    40481d <main+0x214d>
  404afd:	bf d0 f3 40 00       	mov    edi,0x40f3d0
  404b02:	e8 e9 d7 ff ff       	call   4022f0 <puts@plt>
  404b07:	e9 02 f7 ff ff       	jmp    40420e <main+0x1b3e>
  404b0c:	f3 0f 6f 68 10       	movdqu xmm5,XMMWORD PTR [rax+0x10]
  404b11:	0f 29 ac 24 30 02 00 00 	movaps XMMWORD PTR [rsp+0x230],xmm5
  404b19:	e9 82 e8 ff ff       	jmp    4033a0 <main+0xcd0>
  404b1e:	48 85 c0             	test   rax,rax
  404b21:	0f 84 e0 e7 ff ff    	je     403307 <main+0xc37>
  404b27:	4c 89 f0             	mov    rax,r14
  404b2a:	e9 d0 fc ff ff       	jmp    4047ff <main+0x212f>
  404b2f:	48 85 c0             	test   rax,rax
  404b32:	0f 84 1b f3 ff ff    	je     403e53 <main+0x1783>
  404b38:	4c 89 f0             	mov    rax,r14
  404b3b:	4c 89 ea             	mov    rdx,r13
  404b3e:	be f1 f4 40 00       	mov    esi,0x40f4f1
  404b43:	48 89 c7             	mov    rdi,rax
  404b46:	e8 05 d6 ff ff       	call   402150 <memcpy@plt>
  404b4b:	e9 03 f3 ff ff       	jmp    403e53 <main+0x1783>
  404b50:	48 85 c0             	test   rax,rax
  404b53:	0f 88 19 01 00 00    	js     404c72 <main+0x25a2>
  404b59:	48 8d 78 01          	lea    rdi,[rax+0x1]
  404b5d:	e8 2e d6 ff ff       	call   402190 <operator new(unsigned long)@plt>
  404b62:	48 89 84 24 f0 02 00 00 	mov    QWORD PTR [rsp+0x2f0],rax
  404b6a:	4c 89 ac 24 00 03 00 00 	mov    QWORD PTR [rsp+0x300],r13
  404b72:	eb c7                	jmp    404b3b <main+0x246b>
  404b74:	48 85 c0             	test   rax,rax
  404b77:	0f 84 80 f2 ff ff    	je     403dfd <main+0x172d>
  404b7d:	4c 89 f0             	mov    rax,r14
  404b80:	e9 cc fd ff ff       	jmp    404951 <main+0x2281>
  404b85:	31 db                	xor    ebx,ebx
  404b87:	eb 14                	jmp    404b9d <main+0x24cd>
  404b89:	48 8b 35 b0 e7 00 00 	mov    rsi,QWORD PTR [rip+0xe7b0]        # 413340 <stderr@@GLIBC_2.2.5>
  404b90:	bf 08 00 00 00       	mov    edi,0x8
  404b95:	e8 86 d6 ff ff       	call   402220 <fputc@plt>
  404b9a:	83 c3 01             	add    ebx,0x1
  404b9d:	39 9c 24 80 00 00 00 	cmp    DWORD PTR [rsp+0x80],ebx
  404ba4:	7d e3                	jge    404b89 <main+0x24b9>
  404ba6:	31 db                	xor    ebx,ebx
  404ba8:	eb 14                	jmp    404bbe <main+0x24ee>
  404baa:	48 8b 35 8f e7 00 00 	mov    rsi,QWORD PTR [rip+0xe78f]        # 413340 <stderr@@GLIBC_2.2.5>
  404bb1:	bf 20 00 00 00       	mov    edi,0x20
  404bb6:	e8 65 d6 ff ff       	call   402220 <fputc@plt>
  404bbb:	83 c3 01             	add    ebx,0x1
  404bbe:	8b 44 24 74          	mov    eax,DWORD PTR [rsp+0x74]
  404bc2:	8d 50 02             	lea    edx,[rax+0x2]
  404bc5:	39 da                	cmp    edx,ebx
  404bc7:	7d e1                	jge    404baa <main+0x24da>
  404bc9:	31 db                	xor    ebx,ebx
  404bcb:	eb 18                	jmp    404be5 <main+0x2515>
  404bcd:	48 8b 35 6c e7 00 00 	mov    rsi,QWORD PTR [rip+0xe76c]        # 413340 <stderr@@GLIBC_2.2.5>
  404bd4:	bf 08 00 00 00       	mov    edi,0x8
  404bd9:	e8 42 d6 ff ff       	call   402220 <fputc@plt>
  404bde:	8b 44 24 74          	mov    eax,DWORD PTR [rsp+0x74]
  404be2:	83 c3 01             	add    ebx,0x1
  404be5:	83 c0 02             	add    eax,0x2
  404be8:	39 d8                	cmp    eax,ebx
  404bea:	7d e1                	jge    404bcd <main+0x24fd>
  404bec:	e9 96 f4 ff ff       	jmp    404087 <main+0x19b7>
  404bf1:	bf 4b fa 40 00       	mov    edi,0x40fa4b
  404bf6:	e8 05 d5 ff ff       	call   402100 <std::__throw_length_error(char const*)@plt>
  404bfb:	e8 b0 d4 ff ff       	call   4020b0 <std::__throw_bad_alloc()@plt>
  404c00:	4c 89 e0             	mov    rax,r12
  404c03:	e9 d2 f5 ff ff       	jmp    4041da <main+0x1b0a>
  404c08:	bf 17 f4 40 00       	mov    edi,0x40f417
  404c0d:	e8 ee d4 ff ff       	call   402100 <std::__throw_length_error(char const*)@plt>
  404c12:	bf 17 f4 40 00       	mov    edi,0x40f417
  404c17:	4c 8d a4 24 f0 00 00 00 	lea    r12,[rsp+0xf0]
  404c1f:	e8 dc d4 ff ff       	call   402100 <std::__throw_length_error(char const*)@plt>
  404c24:	bf 17 f4 40 00       	mov    edi,0x40f417
  404c29:	e8 d2 d4 ff ff       	call   402100 <std::__throw_length_error(char const*)@plt>
  404c2e:	bf 17 f4 40 00       	mov    edi,0x40f417
  404c33:	e8 c8 d4 ff ff       	call   402100 <std::__throw_length_error(char const*)@plt>
  404c38:	bf 17 f4 40 00       	mov    edi,0x40f417
  404c3d:	e8 be d4 ff ff       	call   402100 <std::__throw_length_error(char const*)@plt>
  404c42:	bf 4b fa 40 00       	mov    edi,0x40fa4b
  404c47:	e8 b4 d4 ff ff       	call   402100 <std::__throw_length_error(char const*)@plt>
  404c4c:	bf 4b fa 40 00       	mov    edi,0x40fa4b
  404c51:	e8 aa d4 ff ff       	call   402100 <std::__throw_length_error(char const*)@plt>
  404c56:	bf 4b fa 40 00       	mov    edi,0x40fa4b
  404c5b:	e8 a0 d4 ff ff       	call   402100 <std::__throw_length_error(char const*)@plt>
  404c60:	4c 89 e8             	mov    rax,r13
  404c63:	e9 80 fe ff ff       	jmp    404ae8 <main+0x2418>
  404c68:	bf 17 f4 40 00       	mov    edi,0x40f417
  404c6d:	e8 8e d4 ff ff       	call   402100 <std::__throw_length_error(char const*)@plt>
  404c72:	bf 17 f4 40 00       	mov    edi,0x40f417
  404c77:	e8 84 d4 ff ff       	call   402100 <std::__throw_length_error(char const*)@plt>
  404c7c:	e8 2f d4 ff ff       	call   4020b0 <std::__throw_bad_alloc()@plt>
  404c81:	bf 4b fa 40 00       	mov    edi,0x40fa4b
  404c86:	e8 75 d4 ff ff       	call   402100 <std::__throw_length_error(char const*)@plt>
  404c8b:	e8 20 d4 ff ff       	call   4020b0 <std::__throw_bad_alloc()@plt>
  404c90:	e8 1b d4 ff ff       	call   4020b0 <std::__throw_bad_alloc()@plt>
  404c95:	48 85 c0             	test   rax,rax
  404c98:	0f 84 9e fd ff ff    	je     404a3c <main+0x236c>
  404c9e:	4c 89 f0             	mov    rax,r14
  404ca1:	4c 89 ea             	mov    rdx,r13
  404ca4:	be f1 f4 40 00       	mov    esi,0x40f4f1
  404ca9:	48 89 c7             	mov    rdi,rax
  404cac:	e8 9f d4 ff ff       	call   402150 <memcpy@plt>
  404cb1:	e9 86 fd ff ff       	jmp    404a3c <main+0x236c>
  404cb6:	48 85 c0             	test   rax,rax
  404cb9:	78 64                	js     404d1f <main+0x264f>
  404cbb:	48 8d 78 01          	lea    rdi,[rax+0x1]
  404cbf:	e8 cc d4 ff ff       	call   402190 <operator new(unsigned long)@plt>
  404cc4:	48 89 84 24 80 02 00 00 	mov    QWORD PTR [rsp+0x280],rax
  404ccc:	4c 89 ac 24 90 02 00 00 	mov    QWORD PTR [rsp+0x290],r13
  404cd4:	eb cb                	jmp    404ca1 <main+0x25d1>
  404cd6:	48 85 c0             	test   rax,rax
  404cd9:	0f 84 07 fd ff ff    	je     4049e6 <main+0x2316>
  404cdf:	48 89 e8             	mov    rax,rbp
  404ce2:	4c 89 ea             	mov    rdx,r13
  404ce5:	be 4a f4 40 00       	mov    esi,0x40f44a
  404cea:	48 89 c7             	mov    rdi,rax
  404ced:	e8 5e d4 ff ff       	call   402150 <memcpy@plt>
  404cf2:	e9 ef fc ff ff       	jmp    4049e6 <main+0x2316>
  404cf7:	48 85 c0             	test   rax,rax
  404cfa:	78 2d                	js     404d29 <main+0x2659>
  404cfc:	48 8d 78 01          	lea    rdi,[rax+0x1]
  404d00:	48 8d ac 24 d0 00 00 00 	lea    rbp,[rsp+0xd0]
  404d08:	e8 83 d4 ff ff       	call   402190 <operator new(unsigned long)@plt>
  404d0d:	48 89 84 24 20 02 00 00 	mov    QWORD PTR [rsp+0x220],rax
  404d15:	4c 89 ac 24 30 02 00 00 	mov    QWORD PTR [rsp+0x230],r13
  404d1d:	eb c3                	jmp    404ce2 <main+0x2612>
  404d1f:	bf 17 f4 40 00       	mov    edi,0x40f417
  404d24:	e8 d7 d3 ff ff       	call   402100 <std::__throw_length_error(char const*)@plt>
  404d29:	bf 17 f4 40 00       	mov    edi,0x40f417
  404d2e:	48 8d ac 24 d0 00 00 00 	lea    rbp,[rsp+0xd0]
  404d36:	e8 c5 d3 ff ff       	call   402100 <std::__throw_length_error(char const*)@plt>
  404d3b:	48 89 c3             	mov    rbx,rax
  404d3e:	e9 c4 d6 ff ff       	jmp    402407 <main.cold.191+0x28>
  404d43:	48 89 c3             	mov    rbx,rax
  404d46:	e9 34 d7 ff ff       	jmp    40247f <main.cold.191+0xa0>
  404d4b:	48 89 c3             	mov    rbx,rax
  404d4e:	e9 58 d7 ff ff       	jmp    4024ab <main.cold.191+0xcc>
  404d53:	48 89 c3             	mov    rbx,rax
  404d56:	e9 9a d7 ff ff       	jmp    4024f5 <main.cold.191+0x116>
  404d5b:	48 89 c3             	mov    rbx,rax
  404d5e:	e9 ac d7 ff ff       	jmp    40250f <main.cold.191+0x130>
  404d63:	48 89 c3             	mov    rbx,rax
  404d66:	e9 bc d6 ff ff       	jmp    402427 <main.cold.191+0x48>
  404d6b:	48 89 c3             	mov    rbx,rax
  404d6e:	e9 d0 d6 ff ff       	jmp    402443 <main.cold.191+0x64>
  404d73:	48 89 c3             	mov    rbx,rax
  404d76:	4c 8d bc 24 f0 02 00 00 	lea    r15,[rsp+0x2f0]
  404d7e:	e9 9c d6 ff ff       	jmp    40241f <main.cold.191+0x40>
  404d83:	48 89 c3             	mov    rbx,rax
  404d86:	e9 ab d6 ff ff       	jmp    402436 <main.cold.191+0x57>
  404d8b:	48 89 c3             	mov    rbx,rax
  404d8e:	48 8d ac 24 80 02 00 00 	lea    rbp,[rsp+0x280]
  404d96:	e9 67 d7 ff ff       	jmp    402502 <main.cold.191+0x123>
  404d9b:	48 89 c3             	mov    rbx,rax
  404d9e:	e9 a0 d7 ff ff       	jmp    402543 <main.cold.191+0x164>
  404da3:	48 89 c3             	mov    rbx,rax
  404da6:	e9 e6 d6 ff ff       	jmp    402491 <main.cold.191+0xb2>
  404dab:	48 89 c3             	mov    rbx,rax
  404dae:	e9 9a d7 ff ff       	jmp    40254d <main.cold.191+0x16e>
  404db3:	48 89 c3             	mov    rbx,rax
  404db6:	e9 5c d6 ff ff       	jmp    402417 <main.cold.191+0x38>
  404dbb:	48 89 c3             	mov    rbx,rax
  404dbe:	e9 9a d6 ff ff       	jmp    40245d <main.cold.191+0x7e>
  404dc3:	48 89 c3             	mov    rbx,rax
  404dc6:	e9 9c d6 ff ff       	jmp    402467 <main.cold.191+0x88>
  404dcb:	48 89 c3             	mov    rbx,rax
  404dce:	e9 9c d6 ff ff       	jmp    40246f <main.cold.191+0x90>
  404dd3:	48 89 c3             	mov    rbx,rax
  404dd6:	e9 9c d6 ff ff       	jmp    402477 <main.cold.191+0x98>
  404ddb:	48 89 c3             	mov    rbx,rax
  404dde:	e9 b8 d6 ff ff       	jmp    40249b <main.cold.191+0xbc>
  404de3:	48 89 c3             	mov    rbx,rax
  404de6:	e9 b8 d6 ff ff       	jmp    4024a3 <main.cold.191+0xc4>
  404deb:	48 89 c3             	mov    rbx,rax
  404dee:	e9 dd d6 ff ff       	jmp    4024d0 <main.cold.191+0xf1>
  404df3:	48 89 c3             	mov    rbx,rax
  404df6:	e9 6f d7 ff ff       	jmp    40256a <main.cold.191+0x18b>
  404dfb:	48 89 c3             	mov    rbx,rax
  404dfe:	e9 ae d7 ff ff       	jmp    4025b1 <main.cold.191+0x1d2>
  404e03:	48 89 c3             	mov    rbx,rax
  404e06:	e9 bd d7 ff ff       	jmp    4025c8 <main.cold.191+0x1e9>
  404e0b:	48 89 c3             	mov    rbx,rax
  404e0e:	e9 d4 d7 ff ff       	jmp    4025e7 <main.cold.191+0x208>
  404e13:	48 89 c3             	mov    rbx,rax
  404e16:	e9 eb d7 ff ff       	jmp    402606 <main.cold.191+0x227>
  404e1b:	48 89 c3             	mov    rbx,rax
  404e1e:	e9 7e d7 ff ff       	jmp    4025a1 <main.cold.191+0x1c2>
  404e23:	48 89 c3             	mov    rbx,rax
  404e26:	e9 ad d6 ff ff       	jmp    4024d8 <main.cold.191+0xf9>
  404e2b:	48 89 c3             	mov    rbx,rax
  404e2e:	e9 ac d5 ff ff       	jmp    4023df <main.cold.191>
  404e33:	48 89 c3             	mov    rbx,rax
  404e36:	e9 56 d7 ff ff       	jmp    402591 <main.cold.191+0x1b2>
  404e3b:	48 89 c3             	mov    rbx,rax
  404e3e:	e9 9d d6 ff ff       	jmp    4024e0 <main.cold.191+0x101>
  404e43:	48 89 c3             	mov    rbx,rax
  404e46:	e9 d6 d6 ff ff       	jmp    402521 <main.cold.191+0x142>
  404e4b:	48 89 c3             	mov    rbx,rax
  404e4e:	e9 d8 d6 ff ff       	jmp    40252b <main.cold.191+0x14c>
  404e53:	48 89 c3             	mov    rbx,rax
  404e56:	e9 d8 d6 ff ff       	jmp    402533 <main.cold.191+0x154>
  404e5b:	48 89 c3             	mov    rbx,rax
  404e5e:	e9 b8 d7 ff ff       	jmp    40261b <main.cold.191+0x23c>
  404e63:	48 89 c3             	mov    rbx,rax
  404e66:	e9 ca d7 ff ff       	jmp    402635 <main.cold.191+0x256>
  404e6b:	48 89 c3             	mov    rbx,rax
  404e6e:	e9 b2 d7 ff ff       	jmp    402625 <main.cold.191+0x246>
  404e73:	48 89 c3             	mov    rbx,rax
  404e76:	e9 b2 d7 ff ff       	jmp    40262d <main.cold.191+0x24e>
  404e7b:	48 89 c3             	mov    rbx,rax
  404e7e:	e9 30 d6 ff ff       	jmp    4024b3 <main.cold.191+0xd4>
  404e83:	48 89 c3             	mov    rbx,rax
  404e86:	e9 0e d7 ff ff       	jmp    402599 <main.cold.191+0x1ba>
  404e8b:	48 89 c3             	mov    rbx,rax
  404e8e:	e9 16 d7 ff ff       	jmp    4025a9 <main.cold.191+0x1ca>
  404e93:	48 89 c3             	mov    rbx,rax
  404e96:	e9 bc d7 ff ff       	jmp    402657 <main.cold.191+0x278>
  404e9b:	48 89 c3             	mov    rbx,rax
  404e9e:	e9 4c d5 ff ff       	jmp    4023ef <main.cold.191+0x10>
  404ea3:	48 89 c3             	mov    rbx,rax
  404ea6:	e9 b9 d7 ff ff       	jmp    402664 <main.cold.191+0x285>
  404eab:	48 89 c3             	mov    rbx,rax
  404eae:	e9 b9 d7 ff ff       	jmp    40266c <main.cold.191+0x28d>
  404eb3:	48 89 c3             	mov    rbx,rax
  404eb6:	e9 3c d5 ff ff       	jmp    4023f7 <main.cold.191+0x18>
  404ebb:	48 89 c3             	mov    rbx,rax
  404ebe:	e9 24 d5 ff ff       	jmp    4023e7 <main.cold.191+0x8>
  404ec3:	48 89 c3             	mov    rbx,rax
  404ec6:	e9 c5 d7 ff ff       	jmp    402690 <main.cold.191+0x2b1>
  404ecb:	48 89 c3             	mov    rbx,rax
  404ece:	e9 f5 d5 ff ff       	jmp    4024c8 <main.cold.191+0xe9>
  404ed3:	48 89 c3             	mov    rbx,rax
  404ed6:	e9 62 d7 ff ff       	jmp    40263d <main.cold.191+0x25e>
  404edb:	48 89 c3             	mov    rbx,rax
  404ede:	e9 9b d7 ff ff       	jmp    40267e <main.cold.191+0x29f>
  404ee3:	48 89 c3             	mov    rbx,rax
  404ee6:	e9 fd d5 ff ff       	jmp    4024e8 <main.cold.191+0x109>
  404eeb:	48 89 c3             	mov    rbx,rax
  404eee:	e9 a7 d7 ff ff       	jmp    40269a <main.cold.191+0x2bb>
  404ef3:	48 89 c3             	mov    rbx,rax
  404ef6:	e9 40 d6 ff ff       	jmp    40253b <main.cold.191+0x15c>
  404efb:	0f 1f 44 00 00       	nop    DWORD PTR [rax+rax*1+0x0]

0000000000404f00 <_GLOBAL__sub_I_dev_null>:
  404f00:	48 83 ec 08          	sub    rsp,0x8
  404f04:	bf c0 3a 41 00       	mov    edi,0x413ac0
  404f09:	e8 d2 d3 ff ff       	call   4022e0 <std::ios_base::Init::Init()@plt>
  404f0e:	ba e8 31 41 00       	mov    edx,0x4131e8
  404f13:	be c0 3a 41 00       	mov    esi,0x413ac0
  404f18:	bf b0 23 40 00       	mov    edi,0x4023b0
  404f1d:	e8 3e d2 ff ff       	call   402160 <__cxa_atexit@plt>
  404f22:	bf c0 38 41 00       	mov    edi,0x4138c0
  404f27:	e8 14 d4 ff ff       	call   402340 <std::basic_ofstream<char, std::char_traits<char> >::basic_ofstream()@plt>
  404f2c:	ba e8 31 41 00       	mov    edx,0x4131e8
  404f31:	be c0 38 41 00       	mov    esi,0x4138c0
  404f36:	bf c0 22 40 00       	mov    edi,0x4022c0
  404f3b:	48 83 c4 08          	add    rsp,0x8
  404f3f:	e9 1c d2 ff ff       	jmp    402160 <__cxa_atexit@plt>
  404f44:	66 2e 0f 1f 84 00 00 00 00 00 	nop    WORD PTR cs:[rax+rax*1+0x0]
  404f4e:	66 90                	xchg   ax,ax

0000000000404f50 <_start>:
  404f50:	31 ed                	xor    ebp,ebp
  404f52:	49 89 d1             	mov    r9,rdx
  404f55:	5e                   	pop    rsi
  404f56:	48 89 e2             	mov    rdx,rsp
  404f59:	48 83 e4 f0          	and    rsp,0xfffffffffffffff0
  404f5d:	50                   	push   rax
  404f5e:	54                   	push   rsp
  404f5f:	49 c7 c0 10 e3 40 00 	mov    r8,0x40e310
  404f66:	48 c7 c1 a0 e2 40 00 	mov    rcx,0x40e2a0
  404f6d:	48 c7 c7 d0 26 40 00 	mov    rdi,0x4026d0
  404f74:	e8 17 d4 ff ff       	call   402390 <__libc_start_main@plt>
  404f79:	f4                   	hlt    
  404f7a:	66 0f 1f 44 00 00    	nop    WORD PTR [rax+rax*1+0x0]

0000000000404f80 <deregister_tm_clones>:
  404f80:	b8 f8 31 41 00       	mov    eax,0x4131f8
  404f85:	48 3d f8 31 41 00    	cmp    rax,0x4131f8
  404f8b:	74 13                	je     404fa0 <deregister_tm_clones+0x20>
  404f8d:	b8 00 00 00 00       	mov    eax,0x0
  404f92:	48 85 c0             	test   rax,rax
  404f95:	74 09                	je     404fa0 <deregister_tm_clones+0x20>
  404f97:	bf f8 31 41 00       	mov    edi,0x4131f8
  404f9c:	ff e0                	jmp    rax
  404f9e:	66 90                	xchg   ax,ax
  404fa0:	c3                   	ret    
  404fa1:	0f 1f 44 00 00       	nop    DWORD PTR [rax+rax*1+0x0]
  404fa6:	66 2e 0f 1f 84 00 00 00 00 00 	nop    WORD PTR cs:[rax+rax*1+0x0]

0000000000404fb0 <register_tm_clones>:
  404fb0:	be f8 31 41 00       	mov    esi,0x4131f8
  404fb5:	48 81 ee f8 31 41 00 	sub    rsi,0x4131f8
  404fbc:	48 c1 fe 03          	sar    rsi,0x3
  404fc0:	48 89 f0             	mov    rax,rsi
  404fc3:	48 c1 e8 3f          	shr    rax,0x3f
  404fc7:	48 01 c6             	add    rsi,rax
  404fca:	48 d1 fe             	sar    rsi,1
  404fcd:	74 11                	je     404fe0 <register_tm_clones+0x30>
  404fcf:	b8 00 00 00 00       	mov    eax,0x0
  404fd4:	48 85 c0             	test   rax,rax
  404fd7:	74 07                	je     404fe0 <register_tm_clones+0x30>
  404fd9:	bf f8 31 41 00       	mov    edi,0x4131f8
  404fde:	ff e0                	jmp    rax
  404fe0:	c3                   	ret    
  404fe1:	0f 1f 44 00 00       	nop    DWORD PTR [rax+rax*1+0x0]
  404fe6:	66 2e 0f 1f 84 00 00 00 00 00 	nop    WORD PTR cs:[rax+rax*1+0x0]

0000000000404ff0 <__do_global_dtors_aux>:
  404ff0:	80 3d 99 e8 00 00 00 	cmp    BYTE PTR [rip+0xe899],0x0        # 413890 <completed.7288>
  404ff7:	75 17                	jne    405010 <__do_global_dtors_aux+0x20>
  404ff9:	55                   	push   rbp
  404ffa:	48 89 e5             	mov    rbp,rsp
  404ffd:	e8 7e ff ff ff       	call   404f80 <deregister_tm_clones>
  405002:	c6 05 87 e8 00 00 01 	mov    BYTE PTR [rip+0xe887],0x1        # 413890 <completed.7288>
  405009:	5d                   	pop    rbp
  40500a:	c3                   	ret    
  40500b:	0f 1f 44 00 00       	nop    DWORD PTR [rax+rax*1+0x0]
  405010:	c3                   	ret    
  405011:	0f 1f 44 00 00       	nop    DWORD PTR [rax+rax*1+0x0]
  405016:	66 2e 0f 1f 84 00 00 00 00 00 	nop    WORD PTR cs:[rax+rax*1+0x0]

0000000000405020 <frame_dummy>:
  405020:	eb 8e                	jmp    404fb0 <register_tm_clones>
  405022:	66 2e 0f 1f 84 00 00 00 00 00 	nop    WORD PTR cs:[rax+rax*1+0x0]
  40502c:	0f 1f 40 00          	nop    DWORD PTR [rax+0x0]

0000000000405030 <simdjson::aligned_free_char(char*)>:
  405030:	48 85 ff             	test   rdi,rdi
  405033:	74 0b                	je     405040 <simdjson::aligned_free_char(char*)+0x10>
  405035:	e9 b6 d1 ff ff       	jmp    4021f0 <free@plt>
  40503a:	66 0f 1f 44 00 00    	nop    WORD PTR [rax+rax*1+0x0]
  405040:	c3                   	ret    
  405041:	90                   	nop
  405042:	66 66 2e 0f 1f 84 00 00 00 00 00 	data16 nop WORD PTR cs:[rax+rax*1+0x0]
  40504d:	0f 1f 00             	nop    DWORD PTR [rax]

0000000000405050 <std::basic_ios<char, std::char_traits<char> >::widen(char) const [clone .constprop.184]>:
  405050:	53                   	push   rbx
  405051:	48 8b 9f f0 00 00 00 	mov    rbx,QWORD PTR [rdi+0xf0]
  405058:	48 85 db             	test   rbx,rbx
  40505b:	74 3b                	je     405098 <std::basic_ios<char, std::char_traits<char> >::widen(char) const [clone .constprop.184]+0x48>
  40505d:	80 7b 38 00          	cmp    BYTE PTR [rbx+0x38],0x0
  405061:	74 0d                	je     405070 <std::basic_ios<char, std::char_traits<char> >::widen(char) const [clone .constprop.184]+0x20>
  405063:	0f b6 43 43          	movzx  eax,BYTE PTR [rbx+0x43]
  405067:	5b                   	pop    rbx
  405068:	c3                   	ret    
  405069:	0f 1f 80 00 00 00 00 	nop    DWORD PTR [rax+0x0]
  405070:	48 89 df             	mov    rdi,rbx
  405073:	e8 58 d1 ff ff       	call   4021d0 <std::ctype<char>::_M_widen_init() const@plt>
  405078:	48 8b 03             	mov    rax,QWORD PTR [rbx]
  40507b:	48 8b 50 30          	mov    rdx,QWORD PTR [rax+0x30]
  40507f:	b8 0a 00 00 00       	mov    eax,0xa
  405084:	48 81 fa 00 62 40 00 	cmp    rdx,0x406200
  40508b:	74 da                	je     405067 <std::basic_ios<char, std::char_traits<char> >::widen(char) const [clone .constprop.184]+0x17>
  40508d:	48 89 df             	mov    rdi,rbx
  405090:	be 0a 00 00 00       	mov    esi,0xa
  405095:	5b                   	pop    rbx
  405096:	ff e2                	jmp    rdx
  405098:	e8 93 d1 ff ff       	call   402230 <std::__throw_bad_cast()@plt>
  40509d:	90                   	nop
  40509e:	66 90                	xchg   ax,ax

00000000004050a0 <void std::__cxx11::basic_string<char, std::char_traits<char>, std::allocator<char> >::_M_construct<char const*>(char const*, char const*, std::forward_iterator_tag) [clone .constprop.181]>:
  4050a0:	55                   	push   rbp
  4050a1:	48 89 fd             	mov    rbp,rdi
  4050a4:	53                   	push   rbx
  4050a5:	48 83 ec 18          	sub    rsp,0x18
  4050a9:	48 85 f6             	test   rsi,rsi
  4050ac:	75 09                	jne    4050b7 <void std::__cxx11::basic_string<char, std::char_traits<char>, std::allocator<char> >::_M_construct<char const*>(char const*, char const*, std::forward_iterator_tag) [clone .constprop.181]+0x17>
  4050ae:	48 85 d2             	test   rdx,rdx
  4050b1:	0f 85 87 00 00 00    	jne    40513e <void std::__cxx11::basic_string<char, std::char_traits<char>, std::allocator<char> >::_M_construct<char const*>(char const*, char const*, std::forward_iterator_tag) [clone .constprop.181]+0x9e>
  4050b7:	48 29 f2             	sub    rdx,rsi
  4050ba:	48 89 d3             	mov    rbx,rdx
  4050bd:	48 83 fa 0f          	cmp    rdx,0xf
  4050c1:	77 3d                	ja     405100 <void std::__cxx11::basic_string<char, std::char_traits<char>, std::allocator<char> >::_M_construct<char const*>(char const*, char const*, std::forward_iterator_tag) [clone .constprop.181]+0x60>
  4050c3:	48 8b 45 00          	mov    rax,QWORD PTR [rbp+0x0]
  4050c7:	48 83 fa 01          	cmp    rdx,0x1
  4050cb:	75 1b                	jne    4050e8 <void std::__cxx11::basic_string<char, std::char_traits<char>, std::allocator<char> >::_M_construct<char const*>(char const*, char const*, std::forward_iterator_tag) [clone .constprop.181]+0x48>
  4050cd:	0f b6 16             	movzx  edx,BYTE PTR [rsi]
  4050d0:	88 10                	mov    BYTE PTR [rax],dl
  4050d2:	48 8b 45 00          	mov    rax,QWORD PTR [rbp+0x0]
  4050d6:	48 89 5d 08          	mov    QWORD PTR [rbp+0x8],rbx
  4050da:	c6 04 18 00          	mov    BYTE PTR [rax+rbx*1],0x0
  4050de:	48 83 c4 18          	add    rsp,0x18
  4050e2:	5b                   	pop    rbx
  4050e3:	5d                   	pop    rbp
  4050e4:	c3                   	ret    
  4050e5:	0f 1f 00             	nop    DWORD PTR [rax]
  4050e8:	48 85 d2             	test   rdx,rdx
  4050eb:	75 33                	jne    405120 <void std::__cxx11::basic_string<char, std::char_traits<char>, std::allocator<char> >::_M_construct<char const*>(char const*, char const*, std::forward_iterator_tag) [clone .constprop.181]+0x80>
  4050ed:	48 89 5d 08          	mov    QWORD PTR [rbp+0x8],rbx
  4050f1:	c6 04 18 00          	mov    BYTE PTR [rax+rbx*1],0x0
  4050f5:	48 83 c4 18          	add    rsp,0x18
  4050f9:	5b                   	pop    rbx
  4050fa:	5d                   	pop    rbp
  4050fb:	c3                   	ret    
  4050fc:	0f 1f 40 00          	nop    DWORD PTR [rax+0x0]
  405100:	48 85 d2             	test   rdx,rdx
  405103:	78 43                	js     405148 <void std::__cxx11::basic_string<char, std::char_traits<char>, std::allocator<char> >::_M_construct<char const*>(char const*, char const*, std::forward_iterator_tag) [clone .constprop.181]+0xa8>
  405105:	48 8d 7a 01          	lea    rdi,[rdx+0x1]
  405109:	48 89 74 24 08       	mov    QWORD PTR [rsp+0x8],rsi
  40510e:	e8 7d d0 ff ff       	call   402190 <operator new(unsigned long)@plt>
  405113:	48 89 5d 10          	mov    QWORD PTR [rbp+0x10],rbx
  405117:	48 8b 74 24 08       	mov    rsi,QWORD PTR [rsp+0x8]
  40511c:	48 89 45 00          	mov    QWORD PTR [rbp+0x0],rax
  405120:	48 89 da             	mov    rdx,rbx
  405123:	48 89 c7             	mov    rdi,rax
  405126:	e8 25 d0 ff ff       	call   402150 <memcpy@plt>
  40512b:	48 8b 45 00          	mov    rax,QWORD PTR [rbp+0x0]
  40512f:	48 89 5d 08          	mov    QWORD PTR [rbp+0x8],rbx
  405133:	c6 04 18 00          	mov    BYTE PTR [rax+rbx*1],0x0
  405137:	48 83 c4 18          	add    rsp,0x18
  40513b:	5b                   	pop    rbx
  40513c:	5d                   	pop    rbp
  40513d:	c3                   	ret    
  40513e:	bf 08 f0 40 00       	mov    edi,0x40f008
  405143:	e8 f8 cf ff ff       	call   402140 <std::__throw_logic_error(char const*)@plt>
  405148:	bf 17 f4 40 00       	mov    edi,0x40f417
  40514d:	e8 ae cf ff ff       	call   402100 <std::__throw_length_error(char const*)@plt>
  405152:	66 66 2e 0f 1f 84 00 00 00 00 00 	data16 nop WORD PTR cs:[rax+rax*1+0x0]
  40515d:	0f 1f 00             	nop    DWORD PTR [rax]

0000000000405160 <void std::__cxx11::basic_string<char, std::char_traits<char>, std::allocator<char> >::_M_construct<char*>(char*, char*, std::forward_iterator_tag) [clone .constprop.182]>:
  405160:	55                   	push   rbp
  405161:	48 89 fd             	mov    rbp,rdi
  405164:	53                   	push   rbx
  405165:	48 83 ec 18          	sub    rsp,0x18
  405169:	48 85 f6             	test   rsi,rsi
  40516c:	75 09                	jne    405177 <void std::__cxx11::basic_string<char, std::char_traits<char>, std::allocator<char> >::_M_construct<char*>(char*, char*, std::forward_iterator_tag) [clone .constprop.182]+0x17>
  40516e:	48 85 d2             	test   rdx,rdx
  405171:	0f 85 87 00 00 00    	jne    4051fe <void std::__cxx11::basic_string<char, std::char_traits<char>, std::allocator<char> >::_M_construct<char*>(char*, char*, std::forward_iterator_tag) [clone .constprop.182]+0x9e>
  405177:	48 29 f2             	sub    rdx,rsi
  40517a:	48 89 d3             	mov    rbx,rdx
  40517d:	48 83 fa 0f          	cmp    rdx,0xf
  405181:	77 3d                	ja     4051c0 <void std::__cxx11::basic_string<char, std::char_traits<char>, std::allocator<char> >::_M_construct<char*>(char*, char*, std::forward_iterator_tag) [clone .constprop.182]+0x60>
  405183:	48 8b 45 00          	mov    rax,QWORD PTR [rbp+0x0]
  405187:	48 83 fa 01          	cmp    rdx,0x1
  40518b:	75 1b                	jne    4051a8 <void std::__cxx11::basic_string<char, std::char_traits<char>, std::allocator<char> >::_M_construct<char*>(char*, char*, std::forward_iterator_tag) [clone .constprop.182]+0x48>
  40518d:	0f b6 16             	movzx  edx,BYTE PTR [rsi]
  405190:	88 10                	mov    BYTE PTR [rax],dl
  405192:	48 8b 45 00          	mov    rax,QWORD PTR [rbp+0x0]
  405196:	48 89 5d 08          	mov    QWORD PTR [rbp+0x8],rbx
  40519a:	c6 04 18 00          	mov    BYTE PTR [rax+rbx*1],0x0
  40519e:	48 83 c4 18          	add    rsp,0x18
  4051a2:	5b                   	pop    rbx
  4051a3:	5d                   	pop    rbp
  4051a4:	c3                   	ret    
  4051a5:	0f 1f 00             	nop    DWORD PTR [rax]
  4051a8:	48 85 d2             	test   rdx,rdx
  4051ab:	75 33                	jne    4051e0 <void std::__cxx11::basic_string<char, std::char_traits<char>, std::allocator<char> >::_M_construct<char*>(char*, char*, std::forward_iterator_tag) [clone .constprop.182]+0x80>
  4051ad:	48 89 5d 08          	mov    QWORD PTR [rbp+0x8],rbx
  4051b1:	c6 04 18 00          	mov    BYTE PTR [rax+rbx*1],0x0
  4051b5:	48 83 c4 18          	add    rsp,0x18
  4051b9:	5b                   	pop    rbx
  4051ba:	5d                   	pop    rbp
  4051bb:	c3                   	ret    
  4051bc:	0f 1f 40 00          	nop    DWORD PTR [rax+0x0]
  4051c0:	48 85 d2             	test   rdx,rdx
  4051c3:	78 43                	js     405208 <void std::__cxx11::basic_string<char, std::char_traits<char>, std::allocator<char> >::_M_construct<char*>(char*, char*, std::forward_iterator_tag) [clone .constprop.182]+0xa8>
  4051c5:	48 8d 7a 01          	lea    rdi,[rdx+0x1]
  4051c9:	48 89 74 24 08       	mov    QWORD PTR [rsp+0x8],rsi
  4051ce:	e8 bd cf ff ff       	call   402190 <operator new(unsigned long)@plt>
  4051d3:	48 89 5d 10          	mov    QWORD PTR [rbp+0x10],rbx
  4051d7:	48 8b 74 24 08       	mov    rsi,QWORD PTR [rsp+0x8]
  4051dc:	48 89 45 00          	mov    QWORD PTR [rbp+0x0],rax
  4051e0:	48 89 da             	mov    rdx,rbx
  4051e3:	48 89 c7             	mov    rdi,rax
  4051e6:	e8 65 cf ff ff       	call   402150 <memcpy@plt>
  4051eb:	48 8b 45 00          	mov    rax,QWORD PTR [rbp+0x0]
  4051ef:	48 89 5d 08          	mov    QWORD PTR [rbp+0x8],rbx
  4051f3:	c6 04 18 00          	mov    BYTE PTR [rax+rbx*1],0x0
  4051f7:	48 83 c4 18          	add    rsp,0x18
  4051fb:	5b                   	pop    rbx
  4051fc:	5d                   	pop    rbp
  4051fd:	c3                   	ret    
  4051fe:	bf 08 f0 40 00       	mov    edi,0x40f008
  405203:	e8 38 cf ff ff       	call   402140 <std::__throw_logic_error(char const*)@plt>
  405208:	bf 17 f4 40 00       	mov    edi,0x40f417
  40520d:	e8 ee ce ff ff       	call   402100 <std::__throw_length_error(char const*)@plt>
  405212:	66 66 2e 0f 1f 84 00 00 00 00 00 	data16 nop WORD PTR cs:[rax+rax*1+0x0]
  40521d:	0f 1f 00             	nop    DWORD PTR [rax]

0000000000405220 <std::__cxx11::basic_string<char, std::char_traits<char>, std::allocator<char> > __gnu_cxx::__to_xstring<std::__cxx11::basic_string<char, std::char_traits<char>, std::allocator<char> >, char>(int (*)(char*, unsigned long, char const*, __va_list_tag*), unsigned long, char const*, ...) [clone .constprop.175]>:
  405220:	55                   	push   rbp
  405221:	48 89 e5             	mov    rbp,rsp
  405224:	41 56                	push   r14
  405226:	41 55                	push   r13
  405228:	41 54                	push   r12
  40522a:	53                   	push   rbx
  40522b:	48 89 fb             	mov    rbx,rdi
  40522e:	48 81 ec d0 00 00 00 	sub    rsp,0xd0
  405235:	4c 89 85 50 ff ff ff 	mov    QWORD PTR [rbp-0xb0],r8
  40523c:	4c 89 8d 58 ff ff ff 	mov    QWORD PTR [rbp-0xa8],r9
  405243:	84 c0                	test   al,al
  405245:	74 26                	je     40526d <std::__cxx11::basic_string<char, std::char_traits<char>, std::allocator<char> > __gnu_cxx::__to_xstring<std::__cxx11::basic_string<char, std::char_traits<char>, std::allocator<char> >, char>(int (*)(char*, unsigned long, char const*, __va_list_tag*), unsigned long, char const*, ...) [clone .constprop.175]+0x4d>
  405247:	0f 29 85 60 ff ff ff 	movaps XMMWORD PTR [rbp-0xa0],xmm0
  40524e:	0f 29 8d 70 ff ff ff 	movaps XMMWORD PTR [rbp-0x90],xmm1
  405255:	0f 29 55 80          	movaps XMMWORD PTR [rbp-0x80],xmm2
  405259:	0f 29 5d 90          	movaps XMMWORD PTR [rbp-0x70],xmm3
  40525d:	0f 29 65 a0          	movaps XMMWORD PTR [rbp-0x60],xmm4
  405261:	0f 29 6d b0          	movaps XMMWORD PTR [rbp-0x50],xmm5
  405265:	0f 29 75 c0          	movaps XMMWORD PTR [rbp-0x40],xmm6
  405269:	0f 29 7d d0          	movaps XMMWORD PTR [rbp-0x30],xmm7
  40526d:	48 83 ec 30          	sub    rsp,0x30
  405271:	48 8d 45 10          	lea    rax,[rbp+0x10]
  405275:	ba 2f f4 40 00       	mov    edx,0x40f42f
  40527a:	be 20 00 00 00       	mov    esi,0x20
  40527f:	4c 8d 64 24 0f       	lea    r12,[rsp+0xf]
  405284:	48 89 85 20 ff ff ff 	mov    QWORD PTR [rbp-0xe0],rax
  40528b:	48 8d 8d 18 ff ff ff 	lea    rcx,[rbp-0xe8]
  405292:	49 83 e4 f0          	and    r12,0xfffffffffffffff0
  405296:	48 8d 85 30 ff ff ff 	lea    rax,[rbp-0xd0]
  40529d:	c7 85 18 ff ff ff 20 00 00 00 	mov    DWORD PTR [rbp-0xe8],0x20
  4052a7:	4c 89 e7             	mov    rdi,r12
  4052aa:	48 89 85 28 ff ff ff 	mov    QWORD PTR [rbp-0xd8],rax
  4052b1:	c7 85 1c ff ff ff 30 00 00 00 	mov    DWORD PTR [rbp-0xe4],0x30
  4052bb:	e8 60 ce ff ff       	call   402120 <vsnprintf@plt>
  4052c0:	4c 63 f0             	movsxd r14,eax
  4052c3:	48 8d 43 10          	lea    rax,[rbx+0x10]
  4052c7:	4d 89 f5             	mov    r13,r14
  4052ca:	48 89 03             	mov    QWORD PTR [rbx],rax
  4052cd:	41 83 fe 0f          	cmp    r14d,0xf
  4052d1:	7f 2d                	jg     405300 <std::__cxx11::basic_string<char, std::char_traits<char>, std::allocator<char> > __gnu_cxx::__to_xstring<std::__cxx11::basic_string<char, std::char_traits<char>, std::allocator<char> >, char>(int (*)(char*, unsigned long, char const*, __va_list_tag*), unsigned long, char const*, ...) [clone .constprop.175]+0xe0>
  4052d3:	49 83 fe 01          	cmp    r14,0x1
  4052d7:	75 37                	jne    405310 <std::__cxx11::basic_string<char, std::char_traits<char>, std::allocator<char> > __gnu_cxx::__to_xstring<std::__cxx11::basic_string<char, std::char_traits<char>, std::allocator<char> >, char>(int (*)(char*, unsigned long, char const*, __va_list_tag*), unsigned long, char const*, ...) [clone .constprop.175]+0xf0>
  4052d9:	41 0f b6 14 24       	movzx  edx,BYTE PTR [r12]
  4052de:	88 53 10             	mov    BYTE PTR [rbx+0x10],dl
  4052e1:	4c 89 73 08          	mov    QWORD PTR [rbx+0x8],r14
  4052e5:	42 c6 04 30 00       	mov    BYTE PTR [rax+r14*1],0x0
  4052ea:	48 8d 65 e0          	lea    rsp,[rbp-0x20]
  4052ee:	48 89 d8             	mov    rax,rbx
  4052f1:	5b                   	pop    rbx
  4052f2:	41 5c                	pop    r12
  4052f4:	41 5d                	pop    r13
  4052f6:	41 5e                	pop    r14
  4052f8:	5d                   	pop    rbp
  4052f9:	c3                   	ret    
  4052fa:	66 0f 1f 44 00 00    	nop    WORD PTR [rax+rax*1+0x0]
  405300:	49 8d 7e 01          	lea    rdi,[r14+0x1]
  405304:	e8 87 ce ff ff       	call   402190 <operator new(unsigned long)@plt>
  405309:	4c 89 73 10          	mov    QWORD PTR [rbx+0x10],r14
  40530d:	48 89 03             	mov    QWORD PTR [rbx],rax
  405310:	41 83 fd 08          	cmp    r13d,0x8
  405314:	73 22                	jae    405338 <std::__cxx11::basic_string<char, std::char_traits<char>, std::allocator<char> > __gnu_cxx::__to_xstring<std::__cxx11::basic_string<char, std::char_traits<char>, std::allocator<char> >, char>(int (*)(char*, unsigned long, char const*, __va_list_tag*), unsigned long, char const*, ...) [clone .constprop.175]+0x118>
  405316:	41 f6 c5 04          	test   r13b,0x4
  40531a:	75 6c                	jne    405388 <std::__cxx11::basic_string<char, std::char_traits<char>, std::allocator<char> > __gnu_cxx::__to_xstring<std::__cxx11::basic_string<char, std::char_traits<char>, std::allocator<char> >, char>(int (*)(char*, unsigned long, char const*, __va_list_tag*), unsigned long, char const*, ...) [clone .constprop.175]+0x168>
  40531c:	45 85 ed             	test   r13d,r13d
  40531f:	74 0d                	je     40532e <std::__cxx11::basic_string<char, std::char_traits<char>, std::allocator<char> > __gnu_cxx::__to_xstring<std::__cxx11::basic_string<char, std::char_traits<char>, std::allocator<char> >, char>(int (*)(char*, unsigned long, char const*, __va_list_tag*), unsigned long, char const*, ...) [clone .constprop.175]+0x10e>
  405321:	41 0f b6 14 24       	movzx  edx,BYTE PTR [r12]
  405326:	88 10                	mov    BYTE PTR [rax],dl
  405328:	41 f6 c5 02          	test   r13b,0x2
  40532c:	75 6f                	jne    40539d <std::__cxx11::basic_string<char, std::char_traits<char>, std::allocator<char> > __gnu_cxx::__to_xstring<std::__cxx11::basic_string<char, std::char_traits<char>, std::allocator<char> >, char>(int (*)(char*, unsigned long, char const*, __va_list_tag*), unsigned long, char const*, ...) [clone .constprop.175]+0x17d>
  40532e:	48 8b 03             	mov    rax,QWORD PTR [rbx]
  405331:	eb ae                	jmp    4052e1 <std::__cxx11::basic_string<char, std::char_traits<char>, std::allocator<char> > __gnu_cxx::__to_xstring<std::__cxx11::basic_string<char, std::char_traits<char>, std::allocator<char> >, char>(int (*)(char*, unsigned long, char const*, __va_list_tag*), unsigned long, char const*, ...) [clone .constprop.175]+0xc1>
  405333:	0f 1f 44 00 00       	nop    DWORD PTR [rax+rax*1+0x0]
  405338:	49 8b 14 24          	mov    rdx,QWORD PTR [r12]
  40533c:	48 89 10             	mov    QWORD PTR [rax],rdx
  40533f:	44 89 ea             	mov    edx,r13d
  405342:	49 8b 4c 14 f8       	mov    rcx,QWORD PTR [r12+rdx*1-0x8]
  405347:	48 89 4c 10 f8       	mov    QWORD PTR [rax+rdx*1-0x8],rcx
  40534c:	48 8d 48 08          	lea    rcx,[rax+0x8]
  405350:	48 83 e1 f8          	and    rcx,0xfffffffffffffff8
  405354:	48 29 c8             	sub    rax,rcx
  405357:	41 01 c5             	add    r13d,eax
  40535a:	49 29 c4             	sub    r12,rax
  40535d:	41 83 e5 f8          	and    r13d,0xfffffff8
  405361:	41 83 fd 08          	cmp    r13d,0x8
  405365:	72 c7                	jb     40532e <std::__cxx11::basic_string<char, std::char_traits<char>, std::allocator<char> > __gnu_cxx::__to_xstring<std::__cxx11::basic_string<char, std::char_traits<char>, std::allocator<char> >, char>(int (*)(char*, unsigned long, char const*, __va_list_tag*), unsigned long, char const*, ...) [clone .constprop.175]+0x10e>
  405367:	41 83 e5 f8          	and    r13d,0xfffffff8
  40536b:	31 c0                	xor    eax,eax
  40536d:	89 c2                	mov    edx,eax
  40536f:	83 c0 08             	add    eax,0x8
  405372:	49 8b 34 14          	mov    rsi,QWORD PTR [r12+rdx*1]
  405376:	48 89 34 11          	mov    QWORD PTR [rcx+rdx*1],rsi
  40537a:	44 39 e8             	cmp    eax,r13d
  40537d:	72 ee                	jb     40536d <std::__cxx11::basic_string<char, std::char_traits<char>, std::allocator<char> > __gnu_cxx::__to_xstring<std::__cxx11::basic_string<char, std::char_traits<char>, std::allocator<char> >, char>(int (*)(char*, unsigned long, char const*, __va_list_tag*), unsigned long, char const*, ...) [clone .constprop.175]+0x14d>
  40537f:	eb ad                	jmp    40532e <std::__cxx11::basic_string<char, std::char_traits<char>, std::allocator<char> > __gnu_cxx::__to_xstring<std::__cxx11::basic_string<char, std::char_traits<char>, std::allocator<char> >, char>(int (*)(char*, unsigned long, char const*, __va_list_tag*), unsigned long, char const*, ...) [clone .constprop.175]+0x10e>
  405381:	0f 1f 80 00 00 00 00 	nop    DWORD PTR [rax+0x0]
  405388:	41 8b 14 24          	mov    edx,DWORD PTR [r12]
  40538c:	45 89 ed             	mov    r13d,r13d
  40538f:	89 10                	mov    DWORD PTR [rax],edx
  405391:	43 8b 54 2c fc       	mov    edx,DWORD PTR [r12+r13*1-0x4]
  405396:	42 89 54 28 fc       	mov    DWORD PTR [rax+r13*1-0x4],edx
  40539b:	eb 91                	jmp    40532e <std::__cxx11::basic_string<char, std::char_traits<char>, std::allocator<char> > __gnu_cxx::__to_xstring<std::__cxx11::basic_string<char, std::char_traits<char>, std::allocator<char> >, char>(int (*)(char*, unsigned long, char const*, __va_list_tag*), unsigned long, char const*, ...) [clone .constprop.175]+0x10e>
  40539d:	45 89 ed             	mov    r13d,r13d
  4053a0:	43 0f b7 54 2c fe    	movzx  edx,WORD PTR [r12+r13*1-0x2]
  4053a6:	66 42 89 54 28 fe    	mov    WORD PTR [rax+r13*1-0x2],dx
  4053ac:	eb 80                	jmp    40532e <std::__cxx11::basic_string<char, std::char_traits<char>, std::allocator<char> > __gnu_cxx::__to_xstring<std::__cxx11::basic_string<char, std::char_traits<char>, std::allocator<char> >, char>(int (*)(char*, unsigned long, char const*, __va_list_tag*), unsigned long, char const*, ...) [clone .constprop.175]+0x10e>
  4053ae:	66 90                	xchg   ax,ax

00000000004053b0 <simdjson::dom::parser::parse(unsigned char const*, unsigned long, bool) & [clone .constprop.187]>:
  4053b0:	41 57                	push   r15
  4053b2:	41 56                	push   r14
  4053b4:	49 89 d6             	mov    r14,rdx
  4053b7:	41 55                	push   r13
  4053b9:	41 54                	push   r12
  4053bb:	49 89 cc             	mov    r12,rcx
  4053be:	55                   	push   rbp
  4053bf:	48 89 fd             	mov    rbp,rdi
  4053c2:	53                   	push   rbx
  4053c3:	48 89 f3             	mov    rbx,rsi
  4053c6:	48 83 ec 18          	sub    rsp,0x18
  4053ca:	48 8b 46 40          	mov    rax,QWORD PTR [rsi+0x40]
  4053ce:	48 39 c1             	cmp    rcx,rax
  4053d1:	0f 87 f1 00 00 00    	ja     4054c8 <simdjson::dom::parser::parse(unsigned char const*, unsigned long, bool) & [clone .constprop.187]+0x118>
  4053d7:	48 83 7e 28 00       	cmp    QWORD PTR [rsi+0x28],0x0
  4053dc:	0f 84 e6 00 00 00    	je     4054c8 <simdjson::dom::parser::parse(unsigned char const*, unsigned long, bool) & [clone .constprop.187]+0x118>
  4053e2:	49 8d 54 24 20       	lea    rdx,[r12+0x20]
  4053e7:	be 40 00 00 00       	mov    esi,0x40
  4053ec:	48 8d 7c 24 08       	lea    rdi,[rsp+0x8]
  4053f1:	e8 fa cc ff ff       	call   4020f0 <posix_memalign@plt>
  4053f6:	85 c0                	test   eax,eax
  4053f8:	75 66                	jne    405460 <simdjson::dom::parser::parse(unsigned char const*, unsigned long, bool) & [clone .constprop.187]+0xb0>
  4053fa:	4c 8b 6c 24 08       	mov    r13,QWORD PTR [rsp+0x8]
  4053ff:	66 0f ef c0          	pxor   xmm0,xmm0
  405403:	4b 8d 44 25 00       	lea    rax,[r13+r12*1+0x0]
  405408:	0f 11 00             	movups XMMWORD PTR [rax],xmm0
  40540b:	0f 11 40 10          	movups XMMWORD PTR [rax+0x10],xmm0
  40540f:	4d 85 ed             	test   r13,r13
  405412:	74 5b                	je     40546f <simdjson::dom::parser::parse(unsigned char const*, unsigned long, bool) & [clone .constprop.187]+0xbf>
  405414:	4c 89 e2             	mov    rdx,r12
  405417:	4c 89 f6             	mov    rsi,r14
  40541a:	4c 89 ef             	mov    rdi,r13
  40541d:	e8 2e cd ff ff       	call   402150 <memcpy@plt>
  405422:	4c 89 e2             	mov    rdx,r12
  405425:	48 89 d9             	mov    rcx,rbx
  405428:	4c 89 ee             	mov    rsi,r13
  40542b:	48 8b 3d 2e e3 00 00 	mov    rdi,QWORD PTR [rip+0xe32e]        # 413760 <simdjson::active_implementation>
  405432:	48 8b 07             	mov    rax,QWORD PTR [rdi]
  405435:	ff 50 18             	call   QWORD PTR [rax+0x18]
  405438:	4c 89 ef             	mov    rdi,r13
  40543b:	41 89 c4             	mov    r12d,eax
  40543e:	e8 ad cd ff ff       	call   4021f0 <free@plt>
  405443:	45 85 e4             	test   r12d,r12d
  405446:	74 58                	je     4054a0 <simdjson::dom::parser::parse(unsigned char const*, unsigned long, bool) & [clone .constprop.187]+0xf0>
  405448:	48 c7 45 00 00 00 00 00 	mov    QWORD PTR [rbp+0x0],0x0
  405450:	48 c7 45 08 00 00 00 00 	mov    QWORD PTR [rbp+0x8],0x0
  405458:	44 89 65 10          	mov    DWORD PTR [rbp+0x10],r12d
  40545c:	eb 28                	jmp    405486 <simdjson::dom::parser::parse(unsigned char const*, unsigned long, bool) & [clone .constprop.187]+0xd6>
  40545e:	66 90                	xchg   ax,ax
  405460:	66 0f ef c0          	pxor   xmm0,xmm0
  405464:	41 0f 11 04 24       	movups XMMWORD PTR [r12],xmm0
  405469:	41 0f 11 44 24 10    	movups XMMWORD PTR [r12+0x10],xmm0
  40546f:	48 c7 45 00 00 00 00 00 	mov    QWORD PTR [rbp+0x0],0x0
  405477:	48 c7 45 08 00 00 00 00 	mov    QWORD PTR [rbp+0x8],0x0
  40547f:	c7 45 10 03 00 00 00 	mov    DWORD PTR [rbp+0x10],0x3
  405486:	48 83 c4 18          	add    rsp,0x18
  40548a:	48 89 e8             	mov    rax,rbp
  40548d:	5b                   	pop    rbx
  40548e:	5d                   	pop    rbp
  40548f:	41 5c                	pop    r12
  405491:	41 5d                	pop    r13
  405493:	41 5e                	pop    r14
  405495:	41 5f                	pop    r15
  405497:	c3                   	ret    
  405498:	0f 1f 84 00 00 00 00 00 	nop    DWORD PTR [rax+rax*1+0x0]
  4054a0:	c6 43 20 00          	mov    BYTE PTR [rbx+0x20],0x0
  4054a4:	48 83 c3 28          	add    rbx,0x28
  4054a8:	c7 43 fc 0c 00 00 00 	mov    DWORD PTR [rbx-0x4],0xc
  4054af:	48 c7 45 08 01 00 00 00 	mov    QWORD PTR [rbp+0x8],0x1
  4054b7:	48 89 5d 00          	mov    QWORD PTR [rbp+0x0],rbx
  4054bb:	c7 45 10 00 00 00 00 	mov    DWORD PTR [rbp+0x10],0x0
  4054c2:	eb c2                	jmp    405486 <simdjson::dom::parser::parse(unsigned char const*, unsigned long, bool) & [clone .constprop.187]+0xd6>
  4054c4:	0f 1f 40 00          	nop    DWORD PTR [rax+0x0]
  4054c8:	4c 3b 63 38          	cmp    r12,QWORD PTR [rbx+0x38]
  4054cc:	77 7a                	ja     405548 <simdjson::dom::parser::parse(unsigned char const*, unsigned long, bool) & [clone .constprop.187]+0x198>
  4054ce:	48 8b 53 48          	mov    rdx,QWORD PTR [rbx+0x48]
  4054d2:	41 bd 00 04 00 00    	mov    r13d,0x400
  4054d8:	48 85 d2             	test   rdx,rdx
  4054db:	4c 0f 45 ea          	cmovne r13,rdx
  4054df:	49 39 c4             	cmp    r12,rax
  4054e2:	0f 84 88 00 00 00    	je     405570 <simdjson::dom::parser::parse(unsigned char const*, unsigned long, bool) & [clone .constprop.187]+0x1c0>
  4054e8:	48 c7 43 40 00 00 00 00 	mov    QWORD PTR [rbx+0x40],0x0
  4054f0:	4d 85 e4             	test   r12,r12
  4054f3:	0f 85 17 01 00 00    	jne    405610 <simdjson::dom::parser::parse(unsigned char const*, unsigned long, bool) & [clone .constprop.187]+0x260>
  4054f9:	48 8b 7b 30          	mov    rdi,QWORD PTR [rbx+0x30]
  4054fd:	48 c7 43 30 00 00 00 00 	mov    QWORD PTR [rbx+0x30],0x0
  405505:	48 85 ff             	test   rdi,rdi
  405508:	74 05                	je     40550f <simdjson::dom::parser::parse(unsigned char const*, unsigned long, bool) & [clone .constprop.187]+0x15f>
  40550a:	e8 31 cd ff ff       	call   402240 <operator delete[](void*)@plt>
  40550f:	48 8b 7b 28          	mov    rdi,QWORD PTR [rbx+0x28]
  405513:	48 c7 43 28 00 00 00 00 	mov    QWORD PTR [rbx+0x28],0x0
  40551b:	48 85 ff             	test   rdi,rdi
  40551e:	74 05                	je     405525 <simdjson::dom::parser::parse(unsigned char const*, unsigned long, bool) & [clone .constprop.187]+0x175>
  405520:	e8 1b cd ff ff       	call   402240 <operator delete[](void*)@plt>
  405525:	48 8b 7b 08          	mov    rdi,QWORD PTR [rbx+0x8]
  405529:	48 c7 43 08 00 00 00 00 	mov    QWORD PTR [rbx+0x8],0x0
  405531:	48 85 ff             	test   rdi,rdi
  405534:	0f 84 a8 fe ff ff    	je     4053e2 <simdjson::dom::parser::parse(unsigned char const*, unsigned long, bool) & [clone .constprop.187]+0x32>
  40553a:	e8 01 cd ff ff       	call   402240 <operator delete[](void*)@plt>
  40553f:	e9 9e fe ff ff       	jmp    4053e2 <simdjson::dom::parser::parse(unsigned char const*, unsigned long, bool) & [clone .constprop.187]+0x32>
  405544:	0f 1f 40 00          	nop    DWORD PTR [rax+0x0]
  405548:	c7 43 24 02 00 00 00 	mov    DWORD PTR [rbx+0x24],0x2
  40554f:	b8 02 00 00 00       	mov    eax,0x2
  405554:	48 c7 45 00 00 00 00 00 	mov    QWORD PTR [rbp+0x0],0x0
  40555c:	48 c7 45 08 00 00 00 00 	mov    QWORD PTR [rbp+0x8],0x0
  405564:	89 45 10             	mov    DWORD PTR [rbp+0x10],eax
  405567:	e9 1a ff ff ff       	jmp    405486 <simdjson::dom::parser::parse(unsigned char const*, unsigned long, bool) & [clone .constprop.187]+0xd6>
  40556c:	0f 1f 40 00          	nop    DWORD PTR [rax+0x0]
  405570:	48 83 7b 28 00       	cmp    QWORD PTR [rbx+0x28],0x0
  405575:	0f 84 1d 02 00 00    	je     405798 <simdjson::dom::parser::parse(unsigned char const*, unsigned long, bool) & [clone .constprop.187]+0x3e8>
  40557b:	49 39 d5             	cmp    r13,rdx
  40557e:	0f 84 5e fe ff ff    	je     4053e2 <simdjson::dom::parser::parse(unsigned char const*, unsigned long, bool) & [clone .constprop.187]+0x32>
  405584:	48 b8 ff ff ff ff ff ff ff 0f 	movabs rax,0xfffffffffffffff
  40558e:	48 c7 43 48 00 00 00 00 	mov    QWORD PTR [rbx+0x48],0x0
  405596:	49 39 c5             	cmp    r13,rax
  405599:	0f 87 3b 02 00 00    	ja     4057da <simdjson::dom::parser::parse(unsigned char const*, unsigned long, bool) & [clone .constprop.187]+0x42a>
  40559f:	4e 8d 3c ed 00 00 00 00 	lea    r15,[r13*8+0x0]
  4055a7:	be b0 2d 41 00       	mov    esi,0x412db0
  4055ac:	4c 89 ff             	mov    rdi,r15
  4055af:	e8 5c cd ff ff       	call   402310 <operator new[](unsigned long, std::nothrow_t const&)@plt>
  4055b4:	48 8b 7b 10          	mov    rdi,QWORD PTR [rbx+0x10]
  4055b8:	48 89 43 10          	mov    QWORD PTR [rbx+0x10],rax
  4055bc:	48 85 ff             	test   rdi,rdi
  4055bf:	74 05                	je     4055c6 <simdjson::dom::parser::parse(unsigned char const*, unsigned long, bool) & [clone .constprop.187]+0x216>
  4055c1:	e8 7a cc ff ff       	call   402240 <operator delete[](void*)@plt>
  4055c6:	4c 89 ff             	mov    rdi,r15
  4055c9:	be b0 2d 41 00       	mov    esi,0x412db0
  4055ce:	e8 3d cd ff ff       	call   402310 <operator new[](unsigned long, std::nothrow_t const&)@plt>
  4055d3:	48 8b 7b 18          	mov    rdi,QWORD PTR [rbx+0x18]
  4055d7:	48 89 43 18          	mov    QWORD PTR [rbx+0x18],rax
  4055db:	48 85 ff             	test   rdi,rdi
  4055de:	74 09                	je     4055e9 <simdjson::dom::parser::parse(unsigned char const*, unsigned long, bool) & [clone .constprop.187]+0x239>
  4055e0:	e8 5b cc ff ff       	call   402240 <operator delete[](void*)@plt>
  4055e5:	48 8b 43 18          	mov    rax,QWORD PTR [rbx+0x18]
  4055e9:	48 85 c0             	test   rax,rax
  4055ec:	0f 84 96 01 00 00    	je     405788 <simdjson::dom::parser::parse(unsigned char const*, unsigned long, bool) & [clone .constprop.187]+0x3d8>
  4055f2:	48 83 7b 10 00       	cmp    QWORD PTR [rbx+0x10],0x0
  4055f7:	0f 84 8b 01 00 00    	je     405788 <simdjson::dom::parser::parse(unsigned char const*, unsigned long, bool) & [clone .constprop.187]+0x3d8>
  4055fd:	4c 89 6b 48          	mov    QWORD PTR [rbx+0x48],r13
  405601:	e9 dc fd ff ff       	jmp    4053e2 <simdjson::dom::parser::parse(unsigned char const*, unsigned long, bool) & [clone .constprop.187]+0x32>
  405606:	66 2e 0f 1f 84 00 00 00 00 00 	nop    WORD PTR cs:[rax+rax*1+0x0]
  405610:	4b 8d 14 a4          	lea    rdx,[r12+r12*4]
  405614:	be b0 2d 41 00       	mov    esi,0x412db0
  405619:	4d 8d 7c 24 41       	lea    r15,[r12+0x41]
  40561e:	48 b9 ab aa aa aa aa aa aa aa 	movabs rcx,0xaaaaaaaaaaaaaaab
  405628:	48 89 d0             	mov    rax,rdx
  40562b:	49 83 e7 c0          	and    r15,0xffffffffffffffc0
  40562f:	48 f7 e1             	mul    rcx
  405632:	48 d1 ea             	shr    rdx,1
  405635:	48 8d 7a 5f          	lea    rdi,[rdx+0x5f]
  405639:	48 83 e7 c0          	and    rdi,0xffffffffffffffc0
  40563d:	e8 ce cc ff ff       	call   402310 <operator new[](unsigned long, std::nothrow_t const&)@plt>
  405642:	48 8b 7b 30          	mov    rdi,QWORD PTR [rbx+0x30]
  405646:	48 89 43 30          	mov    QWORD PTR [rbx+0x30],rax
  40564a:	48 85 ff             	test   rdi,rdi
  40564d:	74 05                	je     405654 <simdjson::dom::parser::parse(unsigned char const*, unsigned long, bool) & [clone .constprop.187]+0x2a4>
  40564f:	e8 ec cb ff ff       	call   402240 <operator delete[](void*)@plt>
  405654:	48 b8 ff ff ff ff ff ff ff 0f 	movabs rax,0xfffffffffffffff
  40565e:	49 39 c7             	cmp    r15,rax
  405661:	0f 87 6e cd ff ff    	ja     4023d5 <simdjson::dom::parser::parse(unsigned char const*, unsigned long, bool) & [clone .constprop.187] [clone .cold.190]+0x5>
  405667:	4a 8d 3c fd 00 00 00 00 	lea    rdi,[r15*8+0x0]
  40566f:	be b0 2d 41 00       	mov    esi,0x412db0
  405674:	e8 97 cc ff ff       	call   402310 <operator new[](unsigned long, std::nothrow_t const&)@plt>
  405679:	48 8b 7b 28          	mov    rdi,QWORD PTR [rbx+0x28]
  40567d:	48 89 43 28          	mov    QWORD PTR [rbx+0x28],rax
  405681:	48 85 ff             	test   rdi,rdi
  405684:	74 05                	je     40568b <simdjson::dom::parser::parse(unsigned char const*, unsigned long, bool) & [clone .constprop.187]+0x2db>
  405686:	e8 b5 cb ff ff       	call   402240 <operator delete[](void*)@plt>
  40568b:	48 83 7b 30 00       	cmp    QWORD PTR [rbx+0x30],0x0
  405690:	0f 84 f2 00 00 00    	je     405788 <simdjson::dom::parser::parse(unsigned char const*, unsigned long, bool) & [clone .constprop.187]+0x3d8>
  405696:	48 83 7b 28 00       	cmp    QWORD PTR [rbx+0x28],0x0
  40569b:	0f 84 e7 00 00 00    	je     405788 <simdjson::dom::parser::parse(unsigned char const*, unsigned long, bool) & [clone .constprop.187]+0x3d8>
  4056a1:	48 b8 fe ff ff ff ff ff ff 1f 	movabs rax,0x1ffffffffffffffe
  4056ab:	49 8d 7c 24 3f       	lea    rdi,[r12+0x3f]
  4056b0:	48 83 e7 c0          	and    rdi,0xffffffffffffffc0
  4056b4:	48 83 c7 09          	add    rdi,0x9
  4056b8:	48 39 c7             	cmp    rdi,rax
  4056bb:	0f 87 1e 01 00 00    	ja     4057df <simdjson::dom::parser::parse(unsigned char const*, unsigned long, bool) & [clone .constprop.187]+0x42f>
  4056c1:	48 c1 e7 02          	shl    rdi,0x2
  4056c5:	be b0 2d 41 00       	mov    esi,0x412db0
  4056ca:	e8 41 cc ff ff       	call   402310 <operator new[](unsigned long, std::nothrow_t const&)@plt>
  4056cf:	48 8b 7b 08          	mov    rdi,QWORD PTR [rbx+0x8]
  4056d3:	48 89 43 08          	mov    QWORD PTR [rbx+0x8],rax
  4056d7:	48 85 ff             	test   rdi,rdi
  4056da:	74 09                	je     4056e5 <simdjson::dom::parser::parse(unsigned char const*, unsigned long, bool) & [clone .constprop.187]+0x335>
  4056dc:	e8 5f cb ff ff       	call   402240 <operator delete[](void*)@plt>
  4056e1:	48 8b 43 08          	mov    rax,QWORD PTR [rbx+0x8]
  4056e5:	48 85 c0             	test   rax,rax
  4056e8:	0f 84 9a 00 00 00    	je     405788 <simdjson::dom::parser::parse(unsigned char const*, unsigned long, bool) & [clone .constprop.187]+0x3d8>
  4056ee:	4c 89 63 40          	mov    QWORD PTR [rbx+0x40],r12
  4056f2:	48 8b 53 48          	mov    rdx,QWORD PTR [rbx+0x48]
  4056f6:	e9 80 fe ff ff       	jmp    40557b <simdjson::dom::parser::parse(unsigned char const*, unsigned long, bool) & [clone .constprop.187]+0x1cb>
  4056fb:	4b 8d 14 a4          	lea    rdx,[r12+r12*4]
  4056ff:	be b0 2d 41 00       	mov    esi,0x412db0
  405704:	4d 8d 7c 24 41       	lea    r15,[r12+0x41]
  405709:	48 b9 ab aa aa aa aa aa aa aa 	movabs rcx,0xaaaaaaaaaaaaaaab
  405713:	48 89 d0             	mov    rax,rdx
  405716:	49 83 e7 c0          	and    r15,0xffffffffffffffc0
  40571a:	48 f7 e1             	mul    rcx
  40571d:	48 d1 ea             	shr    rdx,1
  405720:	48 8d 7a 5f          	lea    rdi,[rdx+0x5f]
  405724:	48 83 e7 c0          	and    rdi,0xffffffffffffffc0
  405728:	e8 e3 cb ff ff       	call   402310 <operator new[](unsigned long, std::nothrow_t const&)@plt>
  40572d:	48 8b 7b 30          	mov    rdi,QWORD PTR [rbx+0x30]
  405731:	48 89 43 30          	mov    QWORD PTR [rbx+0x30],rax
  405735:	48 85 ff             	test   rdi,rdi
  405738:	74 05                	je     40573f <simdjson::dom::parser::parse(unsigned char const*, unsigned long, bool) & [clone .constprop.187]+0x38f>
  40573a:	e8 01 cb ff ff       	call   402240 <operator delete[](void*)@plt>
  40573f:	48 b8 ff ff ff ff ff ff ff 0f 	movabs rax,0xfffffffffffffff
  405749:	49 39 c7             	cmp    r15,rax
  40574c:	0f 87 7e cc ff ff    	ja     4023d0 <simdjson::dom::parser::parse(unsigned char const*, unsigned long, bool) & [clone .constprop.187] [clone .cold.190]>
  405752:	4a 8d 3c fd 00 00 00 00 	lea    rdi,[r15*8+0x0]
  40575a:	be b0 2d 41 00       	mov    esi,0x412db0
  40575f:	e8 ac cb ff ff       	call   402310 <operator new[](unsigned long, std::nothrow_t const&)@plt>
  405764:	48 8b 7b 28          	mov    rdi,QWORD PTR [rbx+0x28]
  405768:	48 89 43 28          	mov    QWORD PTR [rbx+0x28],rax
  40576c:	48 85 ff             	test   rdi,rdi
  40576f:	74 05                	je     405776 <simdjson::dom::parser::parse(unsigned char const*, unsigned long, bool) & [clone .constprop.187]+0x3c6>
  405771:	e8 ca ca ff ff       	call   402240 <operator delete[](void*)@plt>
  405776:	48 83 7b 30 00       	cmp    QWORD PTR [rbx+0x30],0x0
  40577b:	74 0b                	je     405788 <simdjson::dom::parser::parse(unsigned char const*, unsigned long, bool) & [clone .constprop.187]+0x3d8>
  40577d:	48 83 7b 28 00       	cmp    QWORD PTR [rbx+0x28],0x0
  405782:	75 4d                	jne    4057d1 <simdjson::dom::parser::parse(unsigned char const*, unsigned long, bool) & [clone .constprop.187]+0x421>
  405784:	0f 1f 40 00          	nop    DWORD PTR [rax+0x0]
  405788:	b8 03 00 00 00       	mov    eax,0x3
  40578d:	e9 c2 fd ff ff       	jmp    405554 <simdjson::dom::parser::parse(unsigned char const*, unsigned long, bool) & [clone .constprop.187]+0x1a4>
  405792:	66 0f 1f 44 00 00    	nop    WORD PTR [rax+rax*1+0x0]
  405798:	4d 85 e4             	test   r12,r12
  40579b:	0f 85 5a ff ff ff    	jne    4056fb <simdjson::dom::parser::parse(unsigned char const*, unsigned long, bool) & [clone .constprop.187]+0x34b>
  4057a1:	48 8b 7b 30          	mov    rdi,QWORD PTR [rbx+0x30]
  4057a5:	48 c7 43 30 00 00 00 00 	mov    QWORD PTR [rbx+0x30],0x0
  4057ad:	48 85 ff             	test   rdi,rdi
  4057b0:	0f 84 c5 fd ff ff    	je     40557b <simdjson::dom::parser::parse(unsigned char const*, unsigned long, bool) & [clone .constprop.187]+0x1cb>
  4057b6:	e8 85 ca ff ff       	call   402240 <operator delete[](void*)@plt>
  4057bb:	48 8b 7b 28          	mov    rdi,QWORD PTR [rbx+0x28]
  4057bf:	48 c7 43 28 00 00 00 00 	mov    QWORD PTR [rbx+0x28],0x0
  4057c7:	48 85 ff             	test   rdi,rdi
  4057ca:	74 05                	je     4057d1 <simdjson::dom::parser::parse(unsigned char const*, unsigned long, bool) & [clone .constprop.187]+0x421>
  4057cc:	e8 6f ca ff ff       	call   402240 <operator delete[](void*)@plt>
  4057d1:	48 8b 53 48          	mov    rdx,QWORD PTR [rbx+0x48]
  4057d5:	e9 a1 fd ff ff       	jmp    40557b <simdjson::dom::parser::parse(unsigned char const*, unsigned long, bool) & [clone .constprop.187]+0x1cb>
  4057da:	e9 fb cb ff ff       	jmp    4023da <simdjson::dom::parser::parse(unsigned char const*, unsigned long, bool) & [clone .constprop.187] [clone .cold.190]+0xa>
  4057df:	e9 f6 cb ff ff       	jmp    4023da <simdjson::dom::parser::parse(unsigned char const*, unsigned long, bool) & [clone .constprop.187] [clone .cold.190]+0xa>
  4057e4:	66 66 2e 0f 1f 84 00 00 00 00 00 	data16 nop WORD PTR cs:[rax+rax*1+0x0]
  4057ef:	90                   	nop

00000000004057f0 <verbose()>:
  4057f0:	48 8b 05 f9 d9 00 00 	mov    rax,QWORD PTR [rip+0xd9f9]        # 4131f0 <verbose_stream>
  4057f7:	c3                   	ret    
  4057f8:	0f 1f 84 00 00 00 00 00 	nop    DWORD PTR [rax+rax*1+0x0]

0000000000405800 <exit_error(std::__cxx11::basic_string<char, std::char_traits<char>, std::allocator<char> >)>:
  405800:	55                   	push   rbp
  405801:	53                   	push   rbx
  405802:	48 83 ec 08          	sub    rsp,0x8
  405806:	48 8b 57 08          	mov    rdx,QWORD PTR [rdi+0x8]
  40580a:	48 8b 37             	mov    rsi,QWORD PTR [rdi]
  40580d:	bf 80 37 41 00       	mov    edi,0x413780
  405812:	e8 a9 c9 ff ff       	call   4021c0 <std::basic_ostream<char, std::char_traits<char> >& std::__ostream_insert<char, std::char_traits<char> >(std::basic_ostream<char, std::char_traits<char> >&, char const*, long)@plt>
  405817:	48 89 c5             	mov    rbp,rax
  40581a:	48 8b 00             	mov    rax,QWORD PTR [rax]
  40581d:	48 8b 40 e8          	mov    rax,QWORD PTR [rax-0x18]
  405821:	48 8b 9c 05 f0 00 00 00 	mov    rbx,QWORD PTR [rbp+rax*1+0xf0]
  405829:	48 85 db             	test   rbx,rbx
  40582c:	74 4a                	je     405878 <exit_error(std::__cxx11::basic_string<char, std::char_traits<char>, std::allocator<char> >)+0x78>
  40582e:	80 7b 38 00          	cmp    BYTE PTR [rbx+0x38],0x0
  405832:	74 1e                	je     405852 <exit_error(std::__cxx11::basic_string<char, std::char_traits<char>, std::allocator<char> >)+0x52>
  405834:	0f be 73 43          	movsx  esi,BYTE PTR [rbx+0x43]
  405838:	48 89 ef             	mov    rdi,rbp
  40583b:	e8 00 c8 ff ff       	call   402040 <std::ostream::put(char)@plt>
  405840:	48 89 c7             	mov    rdi,rax
  405843:	e8 e8 c8 ff ff       	call   402130 <std::ostream::flush()@plt>
  405848:	bf 01 00 00 00       	mov    edi,0x1
  40584d:	e8 ae c9 ff ff       	call   402200 <exit@plt>
  405852:	48 89 df             	mov    rdi,rbx
  405855:	e8 76 c9 ff ff       	call   4021d0 <std::ctype<char>::_M_widen_init() const@plt>
  40585a:	48 8b 03             	mov    rax,QWORD PTR [rbx]
  40585d:	be 0a 00 00 00       	mov    esi,0xa
  405862:	48 8b 40 30          	mov    rax,QWORD PTR [rax+0x30]
  405866:	48 3d 00 62 40 00    	cmp    rax,0x406200
  40586c:	74 ca                	je     405838 <exit_error(std::__cxx11::basic_string<char, std::char_traits<char>, std::allocator<char> >)+0x38>
  40586e:	48 89 df             	mov    rdi,rbx
  405871:	ff d0                	call   rax
  405873:	0f be f0             	movsx  esi,al
  405876:	eb c0                	jmp    405838 <exit_error(std::__cxx11::basic_string<char, std::char_traits<char>, std::allocator<char> >)+0x38>
  405878:	e8 b3 c9 ff ff       	call   402230 <std::__throw_bad_cast()@plt>
  40587d:	0f 1f 00             	nop    DWORD PTR [rax]

0000000000405880 <benchmark_stage_name(BenchmarkStage)>:
  405880:	b8 33 f4 40 00       	mov    eax,0x40f433
  405885:	83 ff 03             	cmp    edi,0x3
  405888:	77 0a                	ja     405894 <benchmark_stage_name(BenchmarkStage)+0x14>
  40588a:	89 ff                	mov    edi,edi
  40588c:	48 8b 04 fd 20 fd 40 00 	mov    rax,QWORD PTR [rdi*8+0x40fd20]
  405894:	c3                   	ret    
  405895:	66 66 2e 0f 1f 84 00 00 00 00 00 	data16 nop WORD PTR cs:[rax+rax*1+0x0]

00000000004058a0 <print_usage(std::ostream&)>:
  4058a0:	41 56                	push   r14
  4058a2:	ba 07 00 00 00       	mov    edx,0x7
  4058a7:	be 3b f4 40 00       	mov    esi,0x40f43b
  4058ac:	41 55                	push   r13
  4058ae:	41 54                	push   r12
  4058b0:	55                   	push   rbp
  4058b1:	53                   	push   rbx
  4058b2:	48 89 fb             	mov    rbx,rdi
  4058b5:	e8 06 c9 ff ff       	call   4021c0 <std::basic_ostream<char, std::char_traits<char> >& std::__ostream_insert<char, std::char_traits<char> >(std::basic_ostream<char, std::char_traits<char> >&, char const*, long)@plt>
  4058ba:	48 8b 2d df df 00 00 	mov    rbp,QWORD PTR [rip+0xdfdf]        # 4138a0 <exe_name>
  4058c1:	48 85 ed             	test   rbp,rbp
  4058c4:	0f 84 d6 08 00 00    	je     4061a0 <print_usage(std::ostream&)+0x900>
  4058ca:	48 89 ef             	mov    rdi,rbp
  4058cd:	e8 ee c7 ff ff       	call   4020c0 <strlen@plt>
  4058d2:	48 89 ee             	mov    rsi,rbp
  4058d5:	48 89 df             	mov    rdi,rbx
  4058d8:	48 89 c2             	mov    rdx,rax
  4058db:	e8 e0 c8 ff ff       	call   4021c0 <std::basic_ostream<char, std::char_traits<char> >& std::__ostream_insert<char, std::char_traits<char> >(std::basic_ostream<char, std::char_traits<char> >&, char const*, long)@plt>
  4058e0:	ba 31 00 00 00       	mov    edx,0x31
  4058e5:	be 38 f0 40 00       	mov    esi,0x40f038
  4058ea:	48 89 df             	mov    rdi,rbx
  4058ed:	e8 ce c8 ff ff       	call   4021c0 <std::basic_ostream<char, std::char_traits<char> >& std::__ostream_insert<char, std::char_traits<char> >(std::basic_ostream<char, std::char_traits<char> >&, char const*, long)@plt>
  4058f2:	48 8b 03             	mov    rax,QWORD PTR [rbx]
  4058f5:	48 8b 40 e8          	mov    rax,QWORD PTR [rax-0x18]
  4058f9:	48 8b ac 03 f0 00 00 00 	mov    rbp,QWORD PTR [rbx+rax*1+0xf0]
  405901:	48 85 ed             	test   rbp,rbp
  405904:	0f 84 b0 08 00 00    	je     4061ba <print_usage(std::ostream&)+0x91a>
  40590a:	80 7d 38 00          	cmp    BYTE PTR [rbp+0x38],0x0
  40590e:	0f 84 8c 05 00 00    	je     405ea0 <print_usage(std::ostream&)+0x600>
  405914:	0f be 75 43          	movsx  esi,BYTE PTR [rbp+0x43]
  405918:	48 89 df             	mov    rdi,rbx
  40591b:	e8 20 c7 ff ff       	call   402040 <std::ostream::put(char)@plt>
  405920:	48 89 c7             	mov    rdi,rax
  405923:	e8 08 c8 ff ff       	call   402130 <std::ostream::flush()@plt>
  405928:	48 8b 03             	mov    rax,QWORD PTR [rbx]
  40592b:	48 8b 40 e8          	mov    rax,QWORD PTR [rax-0x18]
  40592f:	48 8b ac 03 f0 00 00 00 	mov    rbp,QWORD PTR [rbx+rax*1+0xf0]
  405937:	48 85 ed             	test   rbp,rbp
  40593a:	0f 84 7a 08 00 00    	je     4061ba <print_usage(std::ostream&)+0x91a>
  405940:	80 7d 38 00          	cmp    BYTE PTR [rbp+0x38],0x0
  405944:	0f 84 16 06 00 00    	je     405f60 <print_usage(std::ostream&)+0x6c0>
  40594a:	0f be 75 43          	movsx  esi,BYTE PTR [rbp+0x43]
  40594e:	48 89 df             	mov    rdi,rbx
  405951:	e8 ea c6 ff ff       	call   402040 <std::ostream::put(char)@plt>
  405956:	48 89 c7             	mov    rdi,rax
  405959:	e8 d2 c7 ff ff       	call   402130 <std::ostream::flush()@plt>
  40595e:	ba 5d 00 00 00       	mov    edx,0x5d
  405963:	be 70 f0 40 00       	mov    esi,0x40f070
  405968:	48 89 df             	mov    rdi,rbx
  40596b:	e8 50 c8 ff ff       	call   4021c0 <std::basic_ostream<char, std::char_traits<char> >& std::__ostream_insert<char, std::char_traits<char> >(std::basic_ostream<char, std::char_traits<char> >&, char const*, long)@plt>
  405970:	48 8b 03             	mov    rax,QWORD PTR [rbx]
  405973:	48 8b 40 e8          	mov    rax,QWORD PTR [rax-0x18]
  405977:	48 8b ac 03 f0 00 00 00 	mov    rbp,QWORD PTR [rbx+rax*1+0xf0]
  40597f:	48 85 ed             	test   rbp,rbp
  405982:	0f 84 32 08 00 00    	je     4061ba <print_usage(std::ostream&)+0x91a>
  405988:	80 7d 38 00          	cmp    BYTE PTR [rbp+0x38],0x0
  40598c:	0f 84 9e 05 00 00    	je     405f30 <print_usage(std::ostream&)+0x690>
  405992:	0f be 75 43          	movsx  esi,BYTE PTR [rbp+0x43]
  405996:	48 89 df             	mov    rdi,rbx
  405999:	e8 a2 c6 ff ff       	call   402040 <std::ostream::put(char)@plt>
  40599e:	48 89 c7             	mov    rdi,rax
  4059a1:	e8 8a c7 ff ff       	call   402130 <std::ostream::flush()@plt>
  4059a6:	48 8b 03             	mov    rax,QWORD PTR [rbx]
  4059a9:	48 8b 40 e8          	mov    rax,QWORD PTR [rax-0x18]
  4059ad:	48 8b ac 03 f0 00 00 00 	mov    rbp,QWORD PTR [rbx+rax*1+0xf0]
  4059b5:	48 85 ed             	test   rbp,rbp
  4059b8:	0f 84 fc 07 00 00    	je     4061ba <print_usage(std::ostream&)+0x91a>
  4059be:	80 7d 38 00          	cmp    BYTE PTR [rbp+0x38],0x0
  4059c2:	0f 84 38 05 00 00    	je     405f00 <print_usage(std::ostream&)+0x660>
  4059c8:	0f be 75 43          	movsx  esi,BYTE PTR [rbp+0x43]
  4059cc:	48 89 df             	mov    rdi,rbx
  4059cf:	e8 6c c6 ff ff       	call   402040 <std::ostream::put(char)@plt>
  4059d4:	48 89 c7             	mov    rdi,rax
  4059d7:	e8 54 c7 ff ff       	call   402130 <std::ostream::flush()@plt>
  4059dc:	ba 08 00 00 00       	mov    edx,0x8
  4059e1:	be 43 f4 40 00       	mov    esi,0x40f443
  4059e6:	48 89 df             	mov    rdi,rbx
  4059e9:	e8 d2 c7 ff ff       	call   4021c0 <std::basic_ostream<char, std::char_traits<char> >& std::__ostream_insert<char, std::char_traits<char> >(std::basic_ostream<char, std::char_traits<char> >&, char const*, long)@plt>
  4059ee:	48 8b 03             	mov    rax,QWORD PTR [rbx]
  4059f1:	48 8b 40 e8          	mov    rax,QWORD PTR [rax-0x18]
  4059f5:	48 8b ac 03 f0 00 00 00 	mov    rbp,QWORD PTR [rbx+rax*1+0xf0]
  4059fd:	48 85 ed             	test   rbp,rbp
  405a00:	0f 84 b4 07 00 00    	je     4061ba <print_usage(std::ostream&)+0x91a>
  405a06:	80 7d 38 00          	cmp    BYTE PTR [rbp+0x38],0x0
  405a0a:	0f 84 c0 04 00 00    	je     405ed0 <print_usage(std::ostream&)+0x630>
  405a10:	0f be 75 43          	movsx  esi,BYTE PTR [rbp+0x43]
  405a14:	48 89 df             	mov    rdi,rbx
  405a17:	e8 24 c6 ff ff       	call   402040 <std::ostream::put(char)@plt>
  405a1c:	48 89 c7             	mov    rdi,rax
  405a1f:	e8 0c c7 ff ff       	call   402130 <std::ostream::flush()@plt>
  405a24:	48 8b 03             	mov    rax,QWORD PTR [rbx]
  405a27:	48 8b 40 e8          	mov    rax,QWORD PTR [rax-0x18]
  405a2b:	48 8b ac 03 f0 00 00 00 	mov    rbp,QWORD PTR [rbx+rax*1+0xf0]
  405a33:	48 85 ed             	test   rbp,rbp
  405a36:	0f 84 7e 07 00 00    	je     4061ba <print_usage(std::ostream&)+0x91a>
  405a3c:	80 7d 38 00          	cmp    BYTE PTR [rbp+0x38],0x0
  405a40:	0f 84 da 05 00 00    	je     406020 <print_usage(std::ostream&)+0x780>
  405a46:	0f be 75 43          	movsx  esi,BYTE PTR [rbp+0x43]
  405a4a:	48 89 df             	mov    rdi,rbx
  405a4d:	e8 ee c5 ff ff       	call   402040 <std::ostream::put(char)@plt>
  405a52:	48 89 c7             	mov    rdi,rax
  405a55:	e8 d6 c6 ff ff       	call   402130 <std::ostream::flush()@plt>
  405a5a:	ba 3a 00 00 00       	mov    edx,0x3a
  405a5f:	be d0 f0 40 00       	mov    esi,0x40f0d0
  405a64:	48 89 df             	mov    rdi,rbx
  405a67:	e8 54 c7 ff ff       	call   4021c0 <std::basic_ostream<char, std::char_traits<char> >& std::__ostream_insert<char, std::char_traits<char> >(std::basic_ostream<char, std::char_traits<char> >&, char const*, long)@plt>
  405a6c:	48 8b 03             	mov    rax,QWORD PTR [rbx]
  405a6f:	48 8b 40 e8          	mov    rax,QWORD PTR [rax-0x18]
  405a73:	48 8b ac 03 f0 00 00 00 	mov    rbp,QWORD PTR [rbx+rax*1+0xf0]
  405a7b:	48 85 ed             	test   rbp,rbp
  405a7e:	0f 84 36 07 00 00    	je     4061ba <print_usage(std::ostream&)+0x91a>
  405a84:	80 7d 38 00          	cmp    BYTE PTR [rbp+0x38],0x0
  405a88:	0f 84 62 05 00 00    	je     405ff0 <print_usage(std::ostream&)+0x750>
  405a8e:	0f be 75 43          	movsx  esi,BYTE PTR [rbp+0x43]
  405a92:	48 89 df             	mov    rdi,rbx
  405a95:	e8 a6 c5 ff ff       	call   402040 <std::ostream::put(char)@plt>
  405a9a:	48 89 c7             	mov    rdi,rax
  405a9d:	e8 8e c6 ff ff       	call   402130 <std::ostream::flush()@plt>
  405aa2:	ba 5e 00 00 00       	mov    edx,0x5e
  405aa7:	be 10 f1 40 00       	mov    esi,0x40f110
  405aac:	48 89 df             	mov    rdi,rbx
  405aaf:	e8 0c c7 ff ff       	call   4021c0 <std::basic_ostream<char, std::char_traits<char> >& std::__ostream_insert<char, std::char_traits<char> >(std::basic_ostream<char, std::char_traits<char> >&, char const*, long)@plt>
  405ab4:	48 8b 03             	mov    rax,QWORD PTR [rbx]
  405ab7:	48 8b 40 e8          	mov    rax,QWORD PTR [rax-0x18]
  405abb:	48 8b ac 03 f0 00 00 00 	mov    rbp,QWORD PTR [rbx+rax*1+0xf0]
  405ac3:	48 85 ed             	test   rbp,rbp
  405ac6:	0f 84 ee 06 00 00    	je     4061ba <print_usage(std::ostream&)+0x91a>
  405acc:	80 7d 38 00          	cmp    BYTE PTR [rbp+0x38],0x0
  405ad0:	0f 84 ea 04 00 00    	je     405fc0 <print_usage(std::ostream&)+0x720>
  405ad6:	0f be 75 43          	movsx  esi,BYTE PTR [rbp+0x43]
  405ada:	48 89 df             	mov    rdi,rbx
  405add:	e8 5e c5 ff ff       	call   402040 <std::ostream::put(char)@plt>
  405ae2:	48 89 c7             	mov    rdi,rax
  405ae5:	e8 46 c6 ff ff       	call   402130 <std::ostream::flush()@plt>
  405aea:	ba 21 00 00 00       	mov    edx,0x21
  405aef:	be 70 f1 40 00       	mov    esi,0x40f170
  405af4:	48 89 df             	mov    rdi,rbx
  405af7:	e8 c4 c6 ff ff       	call   4021c0 <std::basic_ostream<char, std::char_traits<char> >& std::__ostream_insert<char, std::char_traits<char> >(std::basic_ostream<char, std::char_traits<char> >&, char const*, long)@plt>
  405afc:	48 8b 03             	mov    rax,QWORD PTR [rbx]
  405aff:	48 8b 40 e8          	mov    rax,QWORD PTR [rax-0x18]
  405b03:	48 8b ac 03 f0 00 00 00 	mov    rbp,QWORD PTR [rbx+rax*1+0xf0]
  405b0b:	48 85 ed             	test   rbp,rbp
  405b0e:	0f 84 a6 06 00 00    	je     4061ba <print_usage(std::ostream&)+0x91a>
  405b14:	80 7d 38 00          	cmp    BYTE PTR [rbp+0x38],0x0
  405b18:	0f 84 72 04 00 00    	je     405f90 <print_usage(std::ostream&)+0x6f0>
  405b1e:	0f be 75 43          	movsx  esi,BYTE PTR [rbp+0x43]
  405b22:	48 89 df             	mov    rdi,rbx
  405b25:	e8 16 c5 ff ff       	call   402040 <std::ostream::put(char)@plt>
  405b2a:	48 89 c7             	mov    rdi,rax
  405b2d:	e8 fe c5 ff ff       	call   402130 <std::ostream::flush()@plt>
  405b32:	ba 1e 00 00 00       	mov    edx,0x1e
  405b37:	be 98 f1 40 00       	mov    esi,0x40f198
  405b3c:	48 89 df             	mov    rdi,rbx
  405b3f:	e8 7c c6 ff ff       	call   4021c0 <std::basic_ostream<char, std::char_traits<char> >& std::__ostream_insert<char, std::char_traits<char> >(std::basic_ostream<char, std::char_traits<char> >&, char const*, long)@plt>
  405b44:	48 8b 03             	mov    rax,QWORD PTR [rbx]
  405b47:	48 8b 40 e8          	mov    rax,QWORD PTR [rax-0x18]
  405b4b:	48 8b ac 03 f0 00 00 00 	mov    rbp,QWORD PTR [rbx+rax*1+0xf0]
  405b53:	48 85 ed             	test   rbp,rbp
  405b56:	0f 84 5e 06 00 00    	je     4061ba <print_usage(std::ostream&)+0x91a>
  405b5c:	80 7d 38 00          	cmp    BYTE PTR [rbp+0x38],0x0
  405b60:	0f 84 ea 04 00 00    	je     406050 <print_usage(std::ostream&)+0x7b0>
  405b66:	0f be 75 43          	movsx  esi,BYTE PTR [rbp+0x43]
  405b6a:	48 89 df             	mov    rdi,rbx
  405b6d:	e8 ce c4 ff ff       	call   402040 <std::ostream::put(char)@plt>
  405b72:	48 89 c7             	mov    rdi,rax
  405b75:	e8 b6 c5 ff ff       	call   402130 <std::ostream::flush()@plt>
  405b7a:	ba 2f 00 00 00       	mov    edx,0x2f
  405b7f:	be b8 f1 40 00       	mov    esi,0x40f1b8
  405b84:	48 89 df             	mov    rdi,rbx
  405b87:	e8 34 c6 ff ff       	call   4021c0 <std::basic_ostream<char, std::char_traits<char> >& std::__ostream_insert<char, std::char_traits<char> >(std::basic_ostream<char, std::char_traits<char> >&, char const*, long)@plt>
  405b8c:	48 8b 03             	mov    rax,QWORD PTR [rbx]
  405b8f:	48 8b 40 e8          	mov    rax,QWORD PTR [rax-0x18]
  405b93:	48 8b ac 03 f0 00 00 00 	mov    rbp,QWORD PTR [rbx+rax*1+0xf0]
  405b9b:	48 85 ed             	test   rbp,rbp
  405b9e:	0f 84 16 06 00 00    	je     4061ba <print_usage(std::ostream&)+0x91a>
  405ba4:	80 7d 38 00          	cmp    BYTE PTR [rbp+0x38],0x0
  405ba8:	0f 84 d2 04 00 00    	je     406080 <print_usage(std::ostream&)+0x7e0>
  405bae:	0f be 75 43          	movsx  esi,BYTE PTR [rbp+0x43]
  405bb2:	48 89 df             	mov    rdi,rbx
  405bb5:	e8 86 c4 ff ff       	call   402040 <std::ostream::put(char)@plt>
  405bba:	48 89 c7             	mov    rdi,rax
  405bbd:	e8 6e c5 ff ff       	call   402130 <std::ostream::flush()@plt>
  405bc2:	ba 1e 00 00 00       	mov    edx,0x1e
  405bc7:	be e8 f1 40 00       	mov    esi,0x40f1e8
  405bcc:	48 89 df             	mov    rdi,rbx
  405bcf:	e8 ec c5 ff ff       	call   4021c0 <std::basic_ostream<char, std::char_traits<char> >& std::__ostream_insert<char, std::char_traits<char> >(std::basic_ostream<char, std::char_traits<char> >&, char const*, long)@plt>
  405bd4:	48 8b 03             	mov    rax,QWORD PTR [rbx]
  405bd7:	48 8b 40 e8          	mov    rax,QWORD PTR [rax-0x18]
  405bdb:	48 8b ac 03 f0 00 00 00 	mov    rbp,QWORD PTR [rbx+rax*1+0xf0]
  405be3:	48 85 ed             	test   rbp,rbp
  405be6:	0f 84 ce 05 00 00    	je     4061ba <print_usage(std::ostream&)+0x91a>
  405bec:	80 7d 38 00          	cmp    BYTE PTR [rbp+0x38],0x0
  405bf0:	0f 84 ea 04 00 00    	je     4060e0 <print_usage(std::ostream&)+0x840>
  405bf6:	0f be 75 43          	movsx  esi,BYTE PTR [rbp+0x43]
  405bfa:	48 89 df             	mov    rdi,rbx
  405bfd:	e8 3e c4 ff ff       	call   402040 <std::ostream::put(char)@plt>
  405c02:	48 89 c7             	mov    rdi,rax
  405c05:	e8 26 c5 ff ff       	call   402130 <std::ostream::flush()@plt>
  405c0a:	ba 82 00 00 00       	mov    edx,0x82
  405c0f:	be 08 f2 40 00       	mov    esi,0x40f208
  405c14:	48 89 df             	mov    rdi,rbx
  405c17:	e8 a4 c5 ff ff       	call   4021c0 <std::basic_ostream<char, std::char_traits<char> >& std::__ostream_insert<char, std::char_traits<char> >(std::basic_ostream<char, std::char_traits<char> >&, char const*, long)@plt>
  405c1c:	48 8b 03             	mov    rax,QWORD PTR [rbx]
  405c1f:	48 8b 40 e8          	mov    rax,QWORD PTR [rax-0x18]
  405c23:	48 8b ac 03 f0 00 00 00 	mov    rbp,QWORD PTR [rbx+rax*1+0xf0]
  405c2b:	48 85 ed             	test   rbp,rbp
  405c2e:	0f 84 86 05 00 00    	je     4061ba <print_usage(std::ostream&)+0x91a>
  405c34:	80 7d 38 00          	cmp    BYTE PTR [rbp+0x38],0x0
  405c38:	0f 84 72 04 00 00    	je     4060b0 <print_usage(std::ostream&)+0x810>
  405c3e:	0f be 75 43          	movsx  esi,BYTE PTR [rbp+0x43]
  405c42:	48 89 df             	mov    rdi,rbx
  405c45:	e8 f6 c3 ff ff       	call   402040 <std::ostream::put(char)@plt>
  405c4a:	48 89 c7             	mov    rdi,rax
  405c4d:	e8 de c4 ff ff       	call   402130 <std::ostream::flush()@plt>
  405c52:	ba 6a 00 00 00       	mov    edx,0x6a
  405c57:	be 90 f2 40 00       	mov    esi,0x40f290
  405c5c:	48 89 df             	mov    rdi,rbx
  405c5f:	e8 5c c5 ff ff       	call   4021c0 <std::basic_ostream<char, std::char_traits<char> >& std::__ostream_insert<char, std::char_traits<char> >(std::basic_ostream<char, std::char_traits<char> >&, char const*, long)@plt>
  405c64:	48 8b 03             	mov    rax,QWORD PTR [rbx]
  405c67:	48 8b 40 e8          	mov    rax,QWORD PTR [rax-0x18]
  405c6b:	48 8b ac 03 f0 00 00 00 	mov    rbp,QWORD PTR [rbx+rax*1+0xf0]
  405c73:	48 85 ed             	test   rbp,rbp
  405c76:	0f 84 3e 05 00 00    	je     4061ba <print_usage(std::ostream&)+0x91a>
  405c7c:	80 7d 38 00          	cmp    BYTE PTR [rbp+0x38],0x0
  405c80:	0f 84 8a 04 00 00    	je     406110 <print_usage(std::ostream&)+0x870>
  405c86:	0f be 75 43          	movsx  esi,BYTE PTR [rbp+0x43]
  405c8a:	48 89 df             	mov    rdi,rbx
  405c8d:	e8 ae c3 ff ff       	call   402040 <std::ostream::put(char)@plt>
  405c92:	48 89 c7             	mov    rdi,rax
  405c95:	e8 96 c4 ff ff       	call   402130 <std::ostream::flush()@plt>
  405c9a:	ba 59 00 00 00       	mov    edx,0x59
  405c9f:	be 00 f3 40 00       	mov    esi,0x40f300
  405ca4:	48 89 df             	mov    rdi,rbx
  405ca7:	e8 14 c5 ff ff       	call   4021c0 <std::basic_ostream<char, std::char_traits<char> >& std::__ostream_insert<char, std::char_traits<char> >(std::basic_ostream<char, std::char_traits<char> >&, char const*, long)@plt>
  405cac:	48 8b 03             	mov    rax,QWORD PTR [rbx]
  405caf:	48 8b 40 e8          	mov    rax,QWORD PTR [rax-0x18]
  405cb3:	48 8b ac 03 f0 00 00 00 	mov    rbp,QWORD PTR [rbx+rax*1+0xf0]
  405cbb:	48 85 ed             	test   rbp,rbp
  405cbe:	0f 84 f6 04 00 00    	je     4061ba <print_usage(std::ostream&)+0x91a>
  405cc4:	80 7d 38 00          	cmp    BYTE PTR [rbp+0x38],0x0
  405cc8:	0f 84 72 04 00 00    	je     406140 <print_usage(std::ostream&)+0x8a0>
  405cce:	0f be 75 43          	movsx  esi,BYTE PTR [rbp+0x43]
  405cd2:	48 89 df             	mov    rdi,rbx
  405cd5:	e8 66 c3 ff ff       	call   402040 <std::ostream::put(char)@plt>
  405cda:	48 89 c7             	mov    rdi,rax
  405cdd:	e8 4e c4 ff ff       	call   402130 <std::ostream::flush()@plt>
  405ce2:	ba 3c 00 00 00       	mov    edx,0x3c
  405ce7:	be 60 f3 40 00       	mov    esi,0x40f360
  405cec:	48 89 df             	mov    rdi,rbx
  405cef:	e8 cc c4 ff ff       	call   4021c0 <std::basic_ostream<char, std::char_traits<char> >& std::__ostream_insert<char, std::char_traits<char> >(std::basic_ostream<char, std::char_traits<char> >&, char const*, long)@plt>
  405cf4:	48 8b 03             	mov    rax,QWORD PTR [rbx]
  405cf7:	48 8b 40 e8          	mov    rax,QWORD PTR [rax-0x18]
  405cfb:	48 8b ac 03 f0 00 00 00 	mov    rbp,QWORD PTR [rbx+rax*1+0xf0]
  405d03:	48 85 ed             	test   rbp,rbp
  405d06:	0f 84 ae 04 00 00    	je     4061ba <print_usage(std::ostream&)+0x91a>
  405d0c:	80 7d 38 00          	cmp    BYTE PTR [rbp+0x38],0x0
  405d10:	0f 84 5a 04 00 00    	je     406170 <print_usage(std::ostream&)+0x8d0>
  405d16:	0f be 75 43          	movsx  esi,BYTE PTR [rbp+0x43]
  405d1a:	48 89 df             	mov    rdi,rbx
  405d1d:	e8 1e c3 ff ff       	call   402040 <std::ostream::put(char)@plt>
  405d22:	48 89 c7             	mov    rdi,rax
  405d25:	e8 06 c4 ff ff       	call   402130 <std::ostream::flush()@plt>
  405d2a:	bf 68 37 41 00       	mov    edi,0x413768
  405d2f:	e8 4c c6 ff ff       	call   402380 <simdjson::internal::available_implementation_list::begin() const@plt>
  405d34:	bf 68 37 41 00       	mov    edi,0x413768
  405d39:	49 89 c4             	mov    r12,rax
  405d3c:	e8 cf c4 ff ff       	call   402210 <simdjson::internal::available_implementation_list::end() const@plt>
  405d41:	49 89 c5             	mov    r13,rax
  405d44:	49 39 c4             	cmp    r12,rax
  405d47:	75 29                	jne    405d72 <print_usage(std::ostream&)+0x4d2>
  405d49:	e9 42 01 00 00       	jmp    405e90 <print_usage(std::ostream&)+0x5f0>
  405d4e:	66 90                	xchg   ax,ax
  405d50:	41 0f be 76 43       	movsx  esi,BYTE PTR [r14+0x43]
  405d55:	48 89 ef             	mov    rdi,rbp
  405d58:	49 83 c4 08          	add    r12,0x8
  405d5c:	e8 df c2 ff ff       	call   402040 <std::ostream::put(char)@plt>
  405d61:	48 89 c7             	mov    rdi,rax
  405d64:	e8 c7 c3 ff ff       	call   402130 <std::ostream::flush()@plt>
  405d69:	4d 39 e5             	cmp    r13,r12
  405d6c:	0f 84 1e 01 00 00    	je     405e90 <print_usage(std::ostream&)+0x5f0>
  405d72:	ba 03 00 00 00       	mov    edx,0x3
  405d77:	be 4c f4 40 00       	mov    esi,0x40f44c
  405d7c:	48 89 df             	mov    rdi,rbx
  405d7f:	49 8b 2c 24          	mov    rbp,QWORD PTR [r12]
  405d83:	e8 38 c4 ff ff       	call   4021c0 <std::basic_ostream<char, std::char_traits<char> >& std::__ostream_insert<char, std::char_traits<char> >(std::basic_ostream<char, std::char_traits<char> >&, char const*, long)@plt>
  405d88:	48 8b 03             	mov    rax,QWORD PTR [rbx]
  405d8b:	48 8b 48 e8          	mov    rcx,QWORD PTR [rax-0x18]
  405d8f:	48 8b 45 00          	mov    rax,QWORD PTR [rbp+0x0]
  405d93:	48 01 d9             	add    rcx,rbx
  405d96:	48 8b 00             	mov    rax,QWORD PTR [rax]
  405d99:	8b 51 18             	mov    edx,DWORD PTR [rcx+0x18]
  405d9c:	48 c7 41 10 09 00 00 00 	mov    QWORD PTR [rcx+0x10],0x9
  405da4:	80 e2 4f             	and    dl,0x4f
  405da7:	83 ca 20             	or     edx,0x20
  405daa:	89 51 18             	mov    DWORD PTR [rcx+0x18],edx
  405dad:	48 3d 10 62 40 00    	cmp    rax,0x406210
  405db3:	0f 85 c7 00 00 00    	jne    405e80 <print_usage(std::ostream&)+0x5e0>
  405db9:	48 8d 45 08          	lea    rax,[rbp+0x8]
  405dbd:	48 8b 50 08          	mov    rdx,QWORD PTR [rax+0x8]
  405dc1:	48 8b 30             	mov    rsi,QWORD PTR [rax]
  405dc4:	48 89 df             	mov    rdi,rbx
  405dc7:	e8 f4 c3 ff ff       	call   4021c0 <std::basic_ostream<char, std::char_traits<char> >& std::__ostream_insert<char, std::char_traits<char> >(std::basic_ostream<char, std::char_traits<char> >&, char const*, long)@plt>
  405dcc:	ba 0b 00 00 00       	mov    edx,0xb
  405dd1:	be 50 f4 40 00       	mov    esi,0x40f450
  405dd6:	48 89 c7             	mov    rdi,rax
  405dd9:	49 89 c6             	mov    r14,rax
  405ddc:	e8 df c3 ff ff       	call   4021c0 <std::basic_ostream<char, std::char_traits<char> >& std::__ostream_insert<char, std::char_traits<char> >(std::basic_ostream<char, std::char_traits<char> >&, char const*, long)@plt>
  405de1:	48 8b 45 00          	mov    rax,QWORD PTR [rbp+0x0]
  405de5:	48 8b 40 08          	mov    rax,QWORD PTR [rax+0x8]
  405de9:	48 3d 20 62 40 00    	cmp    rax,0x406220
  405def:	75 7f                	jne    405e70 <print_usage(std::ostream&)+0x5d0>
  405df1:	48 8d 45 28          	lea    rax,[rbp+0x28]
  405df5:	48 8b 50 08          	mov    rdx,QWORD PTR [rax+0x8]
  405df9:	48 8b 30             	mov    rsi,QWORD PTR [rax]
  405dfc:	4c 89 f7             	mov    rdi,r14
  405dff:	e8 bc c3 ff ff       	call   4021c0 <std::basic_ostream<char, std::char_traits<char> >& std::__ostream_insert<char, std::char_traits<char> >(std::basic_ostream<char, std::char_traits<char> >&, char const*, long)@plt>
  405e04:	ba 17 00 00 00       	mov    edx,0x17
  405e09:	be 5c f4 40 00       	mov    esi,0x40f45c
  405e0e:	48 89 c5             	mov    rbp,rax
  405e11:	48 89 c7             	mov    rdi,rax
  405e14:	e8 a7 c3 ff ff       	call   4021c0 <std::basic_ostream<char, std::char_traits<char> >& std::__ostream_insert<char, std::char_traits<char> >(std::basic_ostream<char, std::char_traits<char> >&, char const*, long)@plt>
  405e19:	48 8b 45 00          	mov    rax,QWORD PTR [rbp+0x0]
  405e1d:	48 8b 40 e8          	mov    rax,QWORD PTR [rax-0x18]
  405e21:	4c 8b b4 05 f0 00 00 00 	mov    r14,QWORD PTR [rbp+rax*1+0xf0]
  405e29:	4d 85 f6             	test   r14,r14
  405e2c:	0f 84 88 03 00 00    	je     4061ba <print_usage(std::ostream&)+0x91a>
  405e32:	41 80 7e 38 00       	cmp    BYTE PTR [r14+0x38],0x0
  405e37:	0f 85 13 ff ff ff    	jne    405d50 <print_usage(std::ostream&)+0x4b0>
  405e3d:	4c 89 f7             	mov    rdi,r14
  405e40:	e8 8b c3 ff ff       	call   4021d0 <std::ctype<char>::_M_widen_init() const@plt>
  405e45:	49 8b 06             	mov    rax,QWORD PTR [r14]
  405e48:	be 0a 00 00 00       	mov    esi,0xa
  405e4d:	48 8b 40 30          	mov    rax,QWORD PTR [rax+0x30]
  405e51:	48 3d 00 62 40 00    	cmp    rax,0x406200
  405e57:	0f 84 f8 fe ff ff    	je     405d55 <print_usage(std::ostream&)+0x4b5>
  405e5d:	4c 89 f7             	mov    rdi,r14
  405e60:	ff d0                	call   rax
  405e62:	0f be f0             	movsx  esi,al
  405e65:	e9 eb fe ff ff       	jmp    405d55 <print_usage(std::ostream&)+0x4b5>
  405e6a:	66 0f 1f 44 00 00    	nop    WORD PTR [rax+rax*1+0x0]
  405e70:	48 89 ef             	mov    rdi,rbp
  405e73:	ff d0                	call   rax
  405e75:	e9 7b ff ff ff       	jmp    405df5 <print_usage(std::ostream&)+0x555>
  405e7a:	66 0f 1f 44 00 00    	nop    WORD PTR [rax+rax*1+0x0]
  405e80:	48 89 ef             	mov    rdi,rbp
  405e83:	ff d0                	call   rax
  405e85:	e9 33 ff ff ff       	jmp    405dbd <print_usage(std::ostream&)+0x51d>
  405e8a:	66 0f 1f 44 00 00    	nop    WORD PTR [rax+rax*1+0x0]
  405e90:	5b                   	pop    rbx
  405e91:	5d                   	pop    rbp
  405e92:	41 5c                	pop    r12
  405e94:	41 5d                	pop    r13
  405e96:	41 5e                	pop    r14
  405e98:	c3                   	ret    
  405e99:	0f 1f 80 00 00 00 00 	nop    DWORD PTR [rax+0x0]
  405ea0:	48 89 ef             	mov    rdi,rbp
  405ea3:	e8 28 c3 ff ff       	call   4021d0 <std::ctype<char>::_M_widen_init() const@plt>
  405ea8:	48 8b 45 00          	mov    rax,QWORD PTR [rbp+0x0]
  405eac:	be 0a 00 00 00       	mov    esi,0xa
  405eb1:	48 8b 40 30          	mov    rax,QWORD PTR [rax+0x30]
  405eb5:	48 3d 00 62 40 00    	cmp    rax,0x406200
  405ebb:	0f 84 57 fa ff ff    	je     405918 <print_usage(std::ostream&)+0x78>
  405ec1:	48 89 ef             	mov    rdi,rbp
  405ec4:	ff d0                	call   rax
  405ec6:	0f be f0             	movsx  esi,al
  405ec9:	e9 4a fa ff ff       	jmp    405918 <print_usage(std::ostream&)+0x78>
  405ece:	66 90                	xchg   ax,ax
  405ed0:	48 89 ef             	mov    rdi,rbp
  405ed3:	e8 f8 c2 ff ff       	call   4021d0 <std::ctype<char>::_M_widen_init() const@plt>
  405ed8:	48 8b 45 00          	mov    rax,QWORD PTR [rbp+0x0]
  405edc:	be 0a 00 00 00       	mov    esi,0xa
  405ee1:	48 8b 40 30          	mov    rax,QWORD PTR [rax+0x30]
  405ee5:	48 3d 00 62 40 00    	cmp    rax,0x406200
  405eeb:	0f 84 23 fb ff ff    	je     405a14 <print_usage(std::ostream&)+0x174>
  405ef1:	48 89 ef             	mov    rdi,rbp
  405ef4:	ff d0                	call   rax
  405ef6:	0f be f0             	movsx  esi,al
  405ef9:	e9 16 fb ff ff       	jmp    405a14 <print_usage(std::ostream&)+0x174>
  405efe:	66 90                	xchg   ax,ax
  405f00:	48 89 ef             	mov    rdi,rbp
  405f03:	e8 c8 c2 ff ff       	call   4021d0 <std::ctype<char>::_M_widen_init() const@plt>
  405f08:	48 8b 45 00          	mov    rax,QWORD PTR [rbp+0x0]
  405f0c:	be 0a 00 00 00       	mov    esi,0xa
  405f11:	48 8b 40 30          	mov    rax,QWORD PTR [rax+0x30]
  405f15:	48 3d 00 62 40 00    	cmp    rax,0x406200
  405f1b:	0f 84 ab fa ff ff    	je     4059cc <print_usage(std::ostream&)+0x12c>
  405f21:	48 89 ef             	mov    rdi,rbp
  405f24:	ff d0                	call   rax
  405f26:	0f be f0             	movsx  esi,al
  405f29:	e9 9e fa ff ff       	jmp    4059cc <print_usage(std::ostream&)+0x12c>
  405f2e:	66 90                	xchg   ax,ax
  405f30:	48 89 ef             	mov    rdi,rbp
  405f33:	e8 98 c2 ff ff       	call   4021d0 <std::ctype<char>::_M_widen_init() const@plt>
  405f38:	48 8b 45 00          	mov    rax,QWORD PTR [rbp+0x0]
  405f3c:	be 0a 00 00 00       	mov    esi,0xa
  405f41:	48 8b 40 30          	mov    rax,QWORD PTR [rax+0x30]
  405f45:	48 3d 00 62 40 00    	cmp    rax,0x406200
  405f4b:	0f 84 45 fa ff ff    	je     405996 <print_usage(std::ostream&)+0xf6>
  405f51:	48 89 ef             	mov    rdi,rbp
  405f54:	ff d0                	call   rax
  405f56:	0f be f0             	movsx  esi,al
  405f59:	e9 38 fa ff ff       	jmp    405996 <print_usage(std::ostream&)+0xf6>
  405f5e:	66 90                	xchg   ax,ax
  405f60:	48 89 ef             	mov    rdi,rbp
  405f63:	e8 68 c2 ff ff       	call   4021d0 <std::ctype<char>::_M_widen_init() const@plt>
  405f68:	48 8b 45 00          	mov    rax,QWORD PTR [rbp+0x0]
  405f6c:	be 0a 00 00 00       	mov    esi,0xa
  405f71:	48 8b 40 30          	mov    rax,QWORD PTR [rax+0x30]
  405f75:	48 3d 00 62 40 00    	cmp    rax,0x406200
  405f7b:	0f 84 cd f9 ff ff    	je     40594e <print_usage(std::ostream&)+0xae>
  405f81:	48 89 ef             	mov    rdi,rbp
  405f84:	ff d0                	call   rax
  405f86:	0f be f0             	movsx  esi,al
  405f89:	e9 c0 f9 ff ff       	jmp    40594e <print_usage(std::ostream&)+0xae>
  405f8e:	66 90                	xchg   ax,ax
  405f90:	48 89 ef             	mov    rdi,rbp
  405f93:	e8 38 c2 ff ff       	call   4021d0 <std::ctype<char>::_M_widen_init() const@plt>
  405f98:	48 8b 45 00          	mov    rax,QWORD PTR [rbp+0x0]
  405f9c:	be 0a 00 00 00       	mov    esi,0xa
  405fa1:	48 8b 40 30          	mov    rax,QWORD PTR [rax+0x30]
  405fa5:	48 3d 00 62 40 00    	cmp    rax,0x406200
  405fab:	0f 84 71 fb ff ff    	je     405b22 <print_usage(std::ostream&)+0x282>
  405fb1:	48 89 ef             	mov    rdi,rbp
  405fb4:	ff d0                	call   rax
  405fb6:	0f be f0             	movsx  esi,al
  405fb9:	e9 64 fb ff ff       	jmp    405b22 <print_usage(std::ostream&)+0x282>
  405fbe:	66 90                	xchg   ax,ax
  405fc0:	48 89 ef             	mov    rdi,rbp
  405fc3:	e8 08 c2 ff ff       	call   4021d0 <std::ctype<char>::_M_widen_init() const@plt>
  405fc8:	48 8b 45 00          	mov    rax,QWORD PTR [rbp+0x0]
  405fcc:	be 0a 00 00 00       	mov    esi,0xa
  405fd1:	48 8b 40 30          	mov    rax,QWORD PTR [rax+0x30]
  405fd5:	48 3d 00 62 40 00    	cmp    rax,0x406200
  405fdb:	0f 84 f9 fa ff ff    	je     405ada <print_usage(std::ostream&)+0x23a>
  405fe1:	48 89 ef             	mov    rdi,rbp
  405fe4:	ff d0                	call   rax
  405fe6:	0f be f0             	movsx  esi,al
  405fe9:	e9 ec fa ff ff       	jmp    405ada <print_usage(std::ostream&)+0x23a>
  405fee:	66 90                	xchg   ax,ax
  405ff0:	48 89 ef             	mov    rdi,rbp
  405ff3:	e8 d8 c1 ff ff       	call   4021d0 <std::ctype<char>::_M_widen_init() const@plt>
  405ff8:	48 8b 45 00          	mov    rax,QWORD PTR [rbp+0x0]
  405ffc:	be 0a 00 00 00       	mov    esi,0xa
  406001:	48 8b 40 30          	mov    rax,QWORD PTR [rax+0x30]
  406005:	48 3d 00 62 40 00    	cmp    rax,0x406200
  40600b:	0f 84 81 fa ff ff    	je     405a92 <print_usage(std::ostream&)+0x1f2>
  406011:	48 89 ef             	mov    rdi,rbp
  406014:	ff d0                	call   rax
  406016:	0f be f0             	movsx  esi,al
  406019:	e9 74 fa ff ff       	jmp    405a92 <print_usage(std::ostream&)+0x1f2>
  40601e:	66 90                	xchg   ax,ax
  406020:	48 89 ef             	mov    rdi,rbp
  406023:	e8 a8 c1 ff ff       	call   4021d0 <std::ctype<char>::_M_widen_init() const@plt>
  406028:	48 8b 45 00          	mov    rax,QWORD PTR [rbp+0x0]
  40602c:	be 0a 00 00 00       	mov    esi,0xa
  406031:	48 8b 40 30          	mov    rax,QWORD PTR [rax+0x30]
  406035:	48 3d 00 62 40 00    	cmp    rax,0x406200
  40603b:	0f 84 09 fa ff ff    	je     405a4a <print_usage(std::ostream&)+0x1aa>
  406041:	48 89 ef             	mov    rdi,rbp
  406044:	ff d0                	call   rax
  406046:	0f be f0             	movsx  esi,al
  406049:	e9 fc f9 ff ff       	jmp    405a4a <print_usage(std::ostream&)+0x1aa>
  40604e:	66 90                	xchg   ax,ax
  406050:	48 89 ef             	mov    rdi,rbp
  406053:	e8 78 c1 ff ff       	call   4021d0 <std::ctype<char>::_M_widen_init() const@plt>
  406058:	48 8b 45 00          	mov    rax,QWORD PTR [rbp+0x0]
  40605c:	be 0a 00 00 00       	mov    esi,0xa
  406061:	48 8b 40 30          	mov    rax,QWORD PTR [rax+0x30]
  406065:	48 3d 00 62 40 00    	cmp    rax,0x406200
  40606b:	0f 84 f9 fa ff ff    	je     405b6a <print_usage(std::ostream&)+0x2ca>
  406071:	48 89 ef             	mov    rdi,rbp
  406074:	ff d0                	call   rax
  406076:	0f be f0             	movsx  esi,al
  406079:	e9 ec fa ff ff       	jmp    405b6a <print_usage(std::ostream&)+0x2ca>
  40607e:	66 90                	xchg   ax,ax
  406080:	48 89 ef             	mov    rdi,rbp
  406083:	e8 48 c1 ff ff       	call   4021d0 <std::ctype<char>::_M_widen_init() const@plt>
  406088:	48 8b 45 00          	mov    rax,QWORD PTR [rbp+0x0]
  40608c:	be 0a 00 00 00       	mov    esi,0xa
  406091:	48 8b 40 30          	mov    rax,QWORD PTR [rax+0x30]
  406095:	48 3d 00 62 40 00    	cmp    rax,0x406200
  40609b:	0f 84 11 fb ff ff    	je     405bb2 <print_usage(std::ostream&)+0x312>
  4060a1:	48 89 ef             	mov    rdi,rbp
  4060a4:	ff d0                	call   rax
  4060a6:	0f be f0             	movsx  esi,al
  4060a9:	e9 04 fb ff ff       	jmp    405bb2 <print_usage(std::ostream&)+0x312>
  4060ae:	66 90                	xchg   ax,ax
  4060b0:	48 89 ef             	mov    rdi,rbp
  4060b3:	e8 18 c1 ff ff       	call   4021d0 <std::ctype<char>::_M_widen_init() const@plt>
  4060b8:	48 8b 45 00          	mov    rax,QWORD PTR [rbp+0x0]
  4060bc:	be 0a 00 00 00       	mov    esi,0xa
  4060c1:	48 8b 40 30          	mov    rax,QWORD PTR [rax+0x30]
  4060c5:	48 3d 00 62 40 00    	cmp    rax,0x406200
  4060cb:	0f 84 71 fb ff ff    	je     405c42 <print_usage(std::ostream&)+0x3a2>
  4060d1:	48 89 ef             	mov    rdi,rbp
  4060d4:	ff d0                	call   rax
  4060d6:	0f be f0             	movsx  esi,al
  4060d9:	e9 64 fb ff ff       	jmp    405c42 <print_usage(std::ostream&)+0x3a2>
  4060de:	66 90                	xchg   ax,ax
  4060e0:	48 89 ef             	mov    rdi,rbp
  4060e3:	e8 e8 c0 ff ff       	call   4021d0 <std::ctype<char>::_M_widen_init() const@plt>
  4060e8:	48 8b 45 00          	mov    rax,QWORD PTR [rbp+0x0]
  4060ec:	be 0a 00 00 00       	mov    esi,0xa
  4060f1:	48 8b 40 30          	mov    rax,QWORD PTR [rax+0x30]
  4060f5:	48 3d 00 62 40 00    	cmp    rax,0x406200
  4060fb:	0f 84 f9 fa ff ff    	je     405bfa <print_usage(std::ostream&)+0x35a>
  406101:	48 89 ef             	mov    rdi,rbp
  406104:	ff d0                	call   rax
  406106:	0f be f0             	movsx  esi,al
  406109:	e9 ec fa ff ff       	jmp    405bfa <print_usage(std::ostream&)+0x35a>
  40610e:	66 90                	xchg   ax,ax
  406110:	48 89 ef             	mov    rdi,rbp
  406113:	e8 b8 c0 ff ff       	call   4021d0 <std::ctype<char>::_M_widen_init() const@plt>
  406118:	48 8b 45 00          	mov    rax,QWORD PTR [rbp+0x0]
  40611c:	be 0a 00 00 00       	mov    esi,0xa
  406121:	48 8b 40 30          	mov    rax,QWORD PTR [rax+0x30]
  406125:	48 3d 00 62 40 00    	cmp    rax,0x406200
  40612b:	0f 84 59 fb ff ff    	je     405c8a <print_usage(std::ostream&)+0x3ea>
  406131:	48 89 ef             	mov    rdi,rbp
  406134:	ff d0                	call   rax
  406136:	0f be f0             	movsx  esi,al
  406139:	e9 4c fb ff ff       	jmp    405c8a <print_usage(std::ostream&)+0x3ea>
  40613e:	66 90                	xchg   ax,ax
  406140:	48 89 ef             	mov    rdi,rbp
  406143:	e8 88 c0 ff ff       	call   4021d0 <std::ctype<char>::_M_widen_init() const@plt>
  406148:	48 8b 45 00          	mov    rax,QWORD PTR [rbp+0x0]
  40614c:	be 0a 00 00 00       	mov    esi,0xa
  406151:	48 8b 40 30          	mov    rax,QWORD PTR [rax+0x30]
  406155:	48 3d 00 62 40 00    	cmp    rax,0x406200
  40615b:	0f 84 71 fb ff ff    	je     405cd2 <print_usage(std::ostream&)+0x432>
  406161:	48 89 ef             	mov    rdi,rbp
  406164:	ff d0                	call   rax
  406166:	0f be f0             	movsx  esi,al
  406169:	e9 64 fb ff ff       	jmp    405cd2 <print_usage(std::ostream&)+0x432>
  40616e:	66 90                	xchg   ax,ax
  406170:	48 89 ef             	mov    rdi,rbp
  406173:	e8 58 c0 ff ff       	call   4021d0 <std::ctype<char>::_M_widen_init() const@plt>
  406178:	48 8b 45 00          	mov    rax,QWORD PTR [rbp+0x0]
  40617c:	be 0a 00 00 00       	mov    esi,0xa
  406181:	48 8b 40 30          	mov    rax,QWORD PTR [rax+0x30]
  406185:	48 3d 00 62 40 00    	cmp    rax,0x406200
  40618b:	0f 84 89 fb ff ff    	je     405d1a <print_usage(std::ostream&)+0x47a>
  406191:	48 89 ef             	mov    rdi,rbp
  406194:	ff d0                	call   rax
  406196:	0f be f0             	movsx  esi,al
  406199:	e9 7c fb ff ff       	jmp    405d1a <print_usage(std::ostream&)+0x47a>
  40619e:	66 90                	xchg   ax,ax
  4061a0:	48 8b 03             	mov    rax,QWORD PTR [rbx]
  4061a3:	48 8b 78 e8          	mov    rdi,QWORD PTR [rax-0x18]
  4061a7:	48 01 df             	add    rdi,rbx
  4061aa:	8b 77 20             	mov    esi,DWORD PTR [rdi+0x20]
  4061ad:	83 ce 01             	or     esi,0x1
  4061b0:	e8 7b c1 ff ff       	call   402330 <std::basic_ios<char, std::char_traits<char> >::clear(std::_Ios_Iostate)@plt>
  4061b5:	e9 26 f7 ff ff       	jmp    4058e0 <print_usage(std::ostream&)+0x40>
  4061ba:	e8 71 c0 ff ff       	call   402230 <std::__throw_bad_cast()@plt>
  4061bf:	90                   	nop

00000000004061c0 <exit_usage(std::__cxx11::basic_string<char, std::char_traits<char>, std::allocator<char> >)>:
  4061c0:	48 83 ec 08          	sub    rsp,0x8
  4061c4:	48 8b 57 08          	mov    rdx,QWORD PTR [rdi+0x8]
  4061c8:	48 8b 37             	mov    rsi,QWORD PTR [rdi]
  4061cb:	bf 80 37 41 00       	mov    edi,0x413780
  4061d0:	e8 eb bf ff ff       	call   4021c0 <std::basic_ostream<char, std::char_traits<char> >& std::__ostream_insert<char, std::char_traits<char> >(std::basic_ostream<char, std::char_traits<char> >&, char const*, long)@plt>
  4061d5:	48 89 c7             	mov    rdi,rax
  4061d8:	e8 03 bf ff ff       	call   4020e0 <std::basic_ostream<char, std::char_traits<char> >& std::endl<char, std::char_traits<char> >(std::basic_ostream<char, std::char_traits<char> >&)@plt>
  4061dd:	bf 80 37 41 00       	mov    edi,0x413780
  4061e2:	e8 f9 be ff ff       	call   4020e0 <std::basic_ostream<char, std::char_traits<char> >& std::endl<char, std::char_traits<char> >(std::basic_ostream<char, std::char_traits<char> >&)@plt>
  4061e7:	bf 80 37 41 00       	mov    edi,0x413780
  4061ec:	e8 af f6 ff ff       	call   4058a0 <print_usage(std::ostream&)>
  4061f1:	bf 01 00 00 00       	mov    edi,0x1
  4061f6:	e8 05 c0 ff ff       	call   402200 <exit@plt>
  4061fb:	0f 1f 44 00 00       	nop    DWORD PTR [rax+rax*1+0x0]

0000000000406200 <std::ctype<char>::do_widen(char) const>:
  406200:	89 f0                	mov    eax,esi
  406202:	c3                   	ret    
  406203:	66 2e 0f 1f 84 00 00 00 00 00 	nop    WORD PTR cs:[rax+rax*1+0x0]
  40620d:	0f 1f 00             	nop    DWORD PTR [rax]

0000000000406210 <simdjson::implementation::name[abi:cxx11]() const>:
  406210:	48 8d 47 08          	lea    rax,[rdi+0x8]
  406214:	c3                   	ret    
  406215:	66 2e 0f 1f 84 00 00 00 00 00 	nop    WORD PTR cs:[rax+rax*1+0x0]
  40621f:	90                   	nop

0000000000406220 <simdjson::implementation::description[abi:cxx11]() const>:
  406220:	48 8d 47 28          	lea    rax,[rdi+0x28]
  406224:	c3                   	ret    
  406225:	66 2e 0f 1f 84 00 00 00 00 00 	nop    WORD PTR cs:[rax+rax*1+0x0]
  40622f:	90                   	nop

0000000000406230 <std::__cxx11::basic_string<char, std::char_traits<char>, std::allocator<char> >::basic_string<std::allocator<char> >(char const*, std::allocator<char> const&) [clone .constprop.180]>:
  406230:	41 55                	push   r13
  406232:	41 54                	push   r12
  406234:	4c 8d 67 10          	lea    r12,[rdi+0x10]
  406238:	55                   	push   rbp
  406239:	53                   	push   rbx
  40623a:	48 83 ec 08          	sub    rsp,0x8
  40623e:	4c 89 27             	mov    QWORD PTR [rdi],r12
  406241:	48 85 f6             	test   rsi,rsi
  406244:	74 72                	je     4062b8 <std::__cxx11::basic_string<char, std::char_traits<char>, std::allocator<char> >::basic_string<std::allocator<char> >(char const*, std::allocator<char> const&) [clone .constprop.180]+0x88>
  406246:	48 89 fd             	mov    rbp,rdi
  406249:	48 89 f7             	mov    rdi,rsi
  40624c:	49 89 f5             	mov    r13,rsi
  40624f:	e8 6c be ff ff       	call   4020c0 <strlen@plt>
  406254:	48 89 c3             	mov    rbx,rax
  406257:	48 83 f8 0f          	cmp    rax,0xf
  40625b:	77 33                	ja     406290 <std::__cxx11::basic_string<char, std::char_traits<char>, std::allocator<char> >::basic_string<std::allocator<char> >(char const*, std::allocator<char> const&) [clone .constprop.180]+0x60>
  40625d:	48 83 f8 01          	cmp    rax,0x1
  406261:	75 1d                	jne    406280 <std::__cxx11::basic_string<char, std::char_traits<char>, std::allocator<char> >::basic_string<std::allocator<char> >(char const*, std::allocator<char> const&) [clone .constprop.180]+0x50>
  406263:	41 0f b6 45 00       	movzx  eax,BYTE PTR [r13+0x0]
  406268:	88 45 10             	mov    BYTE PTR [rbp+0x10],al
  40626b:	48 89 5d 08          	mov    QWORD PTR [rbp+0x8],rbx
